ARM GAS  C:\Users\seanw\AppData\Local\Temp\ccbivcrf.s 			page 1


   1              		.cpu cortex-m7
   2              		.eabi_attribute 28, 1
   3              		.eabi_attribute 20, 1
   4              		.eabi_attribute 21, 1
   5              		.eabi_attribute 23, 3
   6              		.eabi_attribute 24, 1
   7              		.eabi_attribute 25, 1
   8              		.eabi_attribute 26, 1
   9              		.eabi_attribute 30, 2
  10              		.eabi_attribute 34, 1
  11              		.eabi_attribute 18, 4
  12              		.file	"MultiEffect.cpp"
  13              		.text
  14              	.Ltext0:
  15              		.cfi_sections	.debug_frame
  16              		.section	.text._ZN7daisysp6ChorusD2Ev,"axG",%progbits,_ZN7daisysp6ChorusD5Ev,comdat
  17              		.align	1
  18              		.p2align 2,,3
  19              		.weak	_ZN7daisysp6ChorusD2Ev
  20              		.arch armv7e-m
  21              		.syntax unified
  22              		.thumb
  23              		.thumb_func
  24              		.fpu fpv5-d16
  26              	_ZN7daisysp6ChorusD2Ev:
  27              	.LVL0:
  28              	.LFB3003:
  29              		.file 1 "../../DaisySP/Source/Effects/chorus.h"
   1:../../DaisySP/Source/Effects/chorus.h **** #pragma once
   2:../../DaisySP/Source/Effects/chorus.h **** #ifndef DSY_CHORUS_H
   3:../../DaisySP/Source/Effects/chorus.h **** #define DSY_CHORUS_H
   4:../../DaisySP/Source/Effects/chorus.h **** #ifdef __cplusplus
   5:../../DaisySP/Source/Effects/chorus.h **** 
   6:../../DaisySP/Source/Effects/chorus.h **** #include <stdint.h>
   7:../../DaisySP/Source/Effects/chorus.h **** #include "Utility/delayline.h"
   8:../../DaisySP/Source/Effects/chorus.h **** 
   9:../../DaisySP/Source/Effects/chorus.h **** /** @file chorus.h */
  10:../../DaisySP/Source/Effects/chorus.h **** 
  11:../../DaisySP/Source/Effects/chorus.h **** namespace daisysp
  12:../../DaisySP/Source/Effects/chorus.h **** {
  13:../../DaisySP/Source/Effects/chorus.h **** /**  
  14:../../DaisySP/Source/Effects/chorus.h ****     @brief Single Chorus engine. Used in Chorus.
  15:../../DaisySP/Source/Effects/chorus.h ****     @author Ben Sergentanis
  16:../../DaisySP/Source/Effects/chorus.h **** */
  17:../../DaisySP/Source/Effects/chorus.h **** class ChorusEngine
  18:../../DaisySP/Source/Effects/chorus.h **** {
  19:../../DaisySP/Source/Effects/chorus.h ****   public:
  20:../../DaisySP/Source/Effects/chorus.h ****     ChorusEngine() {}
  21:../../DaisySP/Source/Effects/chorus.h ****     ~ChorusEngine() {}
  22:../../DaisySP/Source/Effects/chorus.h **** 
  23:../../DaisySP/Source/Effects/chorus.h ****     /** Initialize the module
  24:../../DaisySP/Source/Effects/chorus.h ****         \param sample_rate Audio engine sample rate.
  25:../../DaisySP/Source/Effects/chorus.h ****     */
  26:../../DaisySP/Source/Effects/chorus.h ****     void Init(float sample_rate);
  27:../../DaisySP/Source/Effects/chorus.h **** 
  28:../../DaisySP/Source/Effects/chorus.h ****     /** Get the next sample
  29:../../DaisySP/Source/Effects/chorus.h ****         \param in Sample to process
ARM GAS  C:\Users\seanw\AppData\Local\Temp\ccbivcrf.s 			page 2


  30:../../DaisySP/Source/Effects/chorus.h ****     */
  31:../../DaisySP/Source/Effects/chorus.h ****     float Process(float in);
  32:../../DaisySP/Source/Effects/chorus.h **** 
  33:../../DaisySP/Source/Effects/chorus.h ****     /** How much to modulate the delay by.
  34:../../DaisySP/Source/Effects/chorus.h ****         \param depth Works 0-1.
  35:../../DaisySP/Source/Effects/chorus.h ****     */
  36:../../DaisySP/Source/Effects/chorus.h ****     void SetLfoDepth(float depth);
  37:../../DaisySP/Source/Effects/chorus.h **** 
  38:../../DaisySP/Source/Effects/chorus.h ****     /** Set lfo frequency.
  39:../../DaisySP/Source/Effects/chorus.h ****         \param freq Frequency in Hz
  40:../../DaisySP/Source/Effects/chorus.h ****     */
  41:../../DaisySP/Source/Effects/chorus.h ****     void SetLfoFreq(float freq);
  42:../../DaisySP/Source/Effects/chorus.h **** 
  43:../../DaisySP/Source/Effects/chorus.h ****     /** Set the internal delay rate. 
  44:../../DaisySP/Source/Effects/chorus.h ****         \param delay Tuned for 0-1. Maps to .1 to 50 ms.
  45:../../DaisySP/Source/Effects/chorus.h ****     */
  46:../../DaisySP/Source/Effects/chorus.h ****     void SetDelay(float delay);
  47:../../DaisySP/Source/Effects/chorus.h **** 
  48:../../DaisySP/Source/Effects/chorus.h ****     /** Set the delay time in ms.
  49:../../DaisySP/Source/Effects/chorus.h ****         \param ms Delay time in ms, 0 to 50 ms.
  50:../../DaisySP/Source/Effects/chorus.h ****     */
  51:../../DaisySP/Source/Effects/chorus.h ****     void SetDelayMs(float ms);
  52:../../DaisySP/Source/Effects/chorus.h **** 
  53:../../DaisySP/Source/Effects/chorus.h ****     /** Set the feedback amount.
  54:../../DaisySP/Source/Effects/chorus.h ****         \param feedback Amount from 0-1.
  55:../../DaisySP/Source/Effects/chorus.h ****     */
  56:../../DaisySP/Source/Effects/chorus.h ****     void SetFeedback(float feedback);
  57:../../DaisySP/Source/Effects/chorus.h **** 
  58:../../DaisySP/Source/Effects/chorus.h ****   private:
  59:../../DaisySP/Source/Effects/chorus.h ****     float                    sample_rate_;
  60:../../DaisySP/Source/Effects/chorus.h ****     static constexpr int32_t kDelayLength
  61:../../DaisySP/Source/Effects/chorus.h ****         = 2400; // 50 ms at 48kHz = .05 * 48000
  62:../../DaisySP/Source/Effects/chorus.h **** 
  63:../../DaisySP/Source/Effects/chorus.h ****     //triangle lfos
  64:../../DaisySP/Source/Effects/chorus.h ****     float lfo_phase_;
  65:../../DaisySP/Source/Effects/chorus.h ****     float lfo_freq_;
  66:../../DaisySP/Source/Effects/chorus.h ****     float lfo_amp_;
  67:../../DaisySP/Source/Effects/chorus.h **** 
  68:../../DaisySP/Source/Effects/chorus.h ****     float feedback_;
  69:../../DaisySP/Source/Effects/chorus.h **** 
  70:../../DaisySP/Source/Effects/chorus.h ****     float delay_;
  71:../../DaisySP/Source/Effects/chorus.h **** 
  72:../../DaisySP/Source/Effects/chorus.h ****     DelayLine<float, kDelayLength> del_;
  73:../../DaisySP/Source/Effects/chorus.h **** 
  74:../../DaisySP/Source/Effects/chorus.h ****     float ProcessLfo();
  75:../../DaisySP/Source/Effects/chorus.h **** };
  76:../../DaisySP/Source/Effects/chorus.h **** 
  77:../../DaisySP/Source/Effects/chorus.h **** //wraps up all of the chorus engines
  78:../../DaisySP/Source/Effects/chorus.h **** /**  
  79:../../DaisySP/Source/Effects/chorus.h ****     @brief Chorus Effect.
  80:../../DaisySP/Source/Effects/chorus.h ****     @author Ben Sergentanis
  81:../../DaisySP/Source/Effects/chorus.h ****     @date Jan 2021
  82:../../DaisySP/Source/Effects/chorus.h ****     Based on https://www.izotope.com/en/learn/understanding-chorus-flangers-and-phasers-in-audio-pr
  83:../../DaisySP/Source/Effects/chorus.h ****     and https://www.researchgate.net/publication/236629475_Implementing_Professional_Audio_Effects_
  84:../../DaisySP/Source/Effects/chorus.h **** */
  85:../../DaisySP/Source/Effects/chorus.h **** class Chorus
  86:../../DaisySP/Source/Effects/chorus.h **** {
ARM GAS  C:\Users\seanw\AppData\Local\Temp\ccbivcrf.s 			page 3


  87:../../DaisySP/Source/Effects/chorus.h ****   public:
  88:../../DaisySP/Source/Effects/chorus.h ****     Chorus() {}
  89:../../DaisySP/Source/Effects/chorus.h ****     ~Chorus() {}
  30              		.loc 1 89 5 view -0
  31              		.cfi_startproc
  32              		@ args = 0, pretend = 0, frame = 0
  33              		@ frame_needed = 0, uses_anonymous_args = 0
  34              		@ link register save eliminated.
  35              		.loc 1 89 16 is_stmt 0 view .LVU1
  36 0000 7047     		bx	lr
  37              		.cfi_endproc
  38              	.LFE3003:
  40              		.weak	_ZN7daisysp6ChorusD1Ev
  41              		.thumb_set _ZN7daisysp6ChorusD1Ev,_ZN7daisysp6ChorusD2Ev
  42 0002 00BF     		.section	.text._ZN7daisysp6PhaserD2Ev,"axG",%progbits,_ZN7daisysp6PhaserD5Ev,comdat
  43              		.align	1
  44              		.p2align 2,,3
  45              		.weak	_ZN7daisysp6PhaserD2Ev
  46              		.syntax unified
  47              		.thumb
  48              		.thumb_func
  49              		.fpu fpv5-d16
  51              	_ZN7daisysp6PhaserD2Ev:
  52              	.LVL1:
  53              	.LFB3047:
  54              		.file 2 "../../DaisySP/Source/Effects/phaser.h"
   1:../../DaisySP/Source/Effects/phaser.h **** #pragma once
   2:../../DaisySP/Source/Effects/phaser.h **** #ifndef DSY_PHASER_H
   3:../../DaisySP/Source/Effects/phaser.h **** #define DSY_PHASER_H
   4:../../DaisySP/Source/Effects/phaser.h **** #ifdef __cplusplus
   5:../../DaisySP/Source/Effects/phaser.h **** 
   6:../../DaisySP/Source/Effects/phaser.h **** #include <stdint.h>
   7:../../DaisySP/Source/Effects/phaser.h **** #include "Utility/delayline.h"
   8:../../DaisySP/Source/Effects/phaser.h **** 
   9:../../DaisySP/Source/Effects/phaser.h **** /** @file phaser.h */
  10:../../DaisySP/Source/Effects/phaser.h **** 
  11:../../DaisySP/Source/Effects/phaser.h **** namespace daisysp
  12:../../DaisySP/Source/Effects/phaser.h **** {
  13:../../DaisySP/Source/Effects/phaser.h **** /**  
  14:../../DaisySP/Source/Effects/phaser.h ****     @brief Single Phaser engine. Used in Phaser.
  15:../../DaisySP/Source/Effects/phaser.h ****     @author Ben Sergentanis
  16:../../DaisySP/Source/Effects/phaser.h **** */
  17:../../DaisySP/Source/Effects/phaser.h **** class PhaserEngine
  18:../../DaisySP/Source/Effects/phaser.h **** {
  19:../../DaisySP/Source/Effects/phaser.h ****   public:
  20:../../DaisySP/Source/Effects/phaser.h ****     PhaserEngine() {}
  21:../../DaisySP/Source/Effects/phaser.h ****     ~PhaserEngine() {}
  22:../../DaisySP/Source/Effects/phaser.h **** 
  23:../../DaisySP/Source/Effects/phaser.h ****     /** Initialize the module
  24:../../DaisySP/Source/Effects/phaser.h ****         \param sample_rate Audio engine sample rate.
  25:../../DaisySP/Source/Effects/phaser.h ****     */
  26:../../DaisySP/Source/Effects/phaser.h ****     void Init(float sample_rate);
  27:../../DaisySP/Source/Effects/phaser.h **** 
  28:../../DaisySP/Source/Effects/phaser.h ****     /** Get the next sample
  29:../../DaisySP/Source/Effects/phaser.h ****         \param in Sample to process
  30:../../DaisySP/Source/Effects/phaser.h ****     */
  31:../../DaisySP/Source/Effects/phaser.h ****     float Process(float in);
ARM GAS  C:\Users\seanw\AppData\Local\Temp\ccbivcrf.s 			page 4


  32:../../DaisySP/Source/Effects/phaser.h **** 
  33:../../DaisySP/Source/Effects/phaser.h ****     /** How much to modulate the allpass filter by.
  34:../../DaisySP/Source/Effects/phaser.h ****         \param depth Works 0-1.
  35:../../DaisySP/Source/Effects/phaser.h ****     */
  36:../../DaisySP/Source/Effects/phaser.h ****     void SetLfoDepth(float depth);
  37:../../DaisySP/Source/Effects/phaser.h **** 
  38:../../DaisySP/Source/Effects/phaser.h ****     /** Set lfo frequency.
  39:../../DaisySP/Source/Effects/phaser.h ****         \param lfo_freq Frequency in Hz
  40:../../DaisySP/Source/Effects/phaser.h ****     */
  41:../../DaisySP/Source/Effects/phaser.h ****     void SetLfoFreq(float lfo_freq);
  42:../../DaisySP/Source/Effects/phaser.h **** 
  43:../../DaisySP/Source/Effects/phaser.h ****     /** Set the allpass frequency
  44:../../DaisySP/Source/Effects/phaser.h ****         \param ap_freq Frequency in Hz.
  45:../../DaisySP/Source/Effects/phaser.h ****     */
  46:../../DaisySP/Source/Effects/phaser.h ****     void SetFreq(float ap_freq);
  47:../../DaisySP/Source/Effects/phaser.h **** 
  48:../../DaisySP/Source/Effects/phaser.h ****     /** Set the feedback amount.
  49:../../DaisySP/Source/Effects/phaser.h ****         \param feedback Amount from 0-1.
  50:../../DaisySP/Source/Effects/phaser.h ****     */
  51:../../DaisySP/Source/Effects/phaser.h ****     void SetFeedback(float feedback);
  52:../../DaisySP/Source/Effects/phaser.h **** 
  53:../../DaisySP/Source/Effects/phaser.h ****   private:
  54:../../DaisySP/Source/Effects/phaser.h ****     float                    sample_rate_;
  55:../../DaisySP/Source/Effects/phaser.h ****     static constexpr int32_t kDelayLength
  56:../../DaisySP/Source/Effects/phaser.h ****         = 2400; // 50 ms at 48kHz = .05 * 48000
  57:../../DaisySP/Source/Effects/phaser.h **** 
  58:../../DaisySP/Source/Effects/phaser.h ****     //triangle lfo
  59:../../DaisySP/Source/Effects/phaser.h ****     float lfo_phase_;
  60:../../DaisySP/Source/Effects/phaser.h ****     float lfo_freq_;
  61:../../DaisySP/Source/Effects/phaser.h ****     float lfo_amp_;
  62:../../DaisySP/Source/Effects/phaser.h **** 
  63:../../DaisySP/Source/Effects/phaser.h ****     float os_;
  64:../../DaisySP/Source/Effects/phaser.h **** 
  65:../../DaisySP/Source/Effects/phaser.h ****     float feedback_;
  66:../../DaisySP/Source/Effects/phaser.h ****     float ap_freq_;
  67:../../DaisySP/Source/Effects/phaser.h **** 
  68:../../DaisySP/Source/Effects/phaser.h ****     float deltime_;
  69:../../DaisySP/Source/Effects/phaser.h ****     float last_sample_;
  70:../../DaisySP/Source/Effects/phaser.h **** 
  71:../../DaisySP/Source/Effects/phaser.h ****     DelayLine<float, kDelayLength> del_;
  72:../../DaisySP/Source/Effects/phaser.h **** 
  73:../../DaisySP/Source/Effects/phaser.h ****     float ProcessLfo();
  74:../../DaisySP/Source/Effects/phaser.h **** };
  75:../../DaisySP/Source/Effects/phaser.h **** 
  76:../../DaisySP/Source/Effects/phaser.h **** //wraps up all of the phaser engines
  77:../../DaisySP/Source/Effects/phaser.h **** /**  
  78:../../DaisySP/Source/Effects/phaser.h ****     @brief Phaser Effect.
  79:../../DaisySP/Source/Effects/phaser.h ****     @author Ben Sergentanis
  80:../../DaisySP/Source/Effects/phaser.h ****     @date Jan 2021
  81:../../DaisySP/Source/Effects/phaser.h **** */
  82:../../DaisySP/Source/Effects/phaser.h **** class Phaser
  83:../../DaisySP/Source/Effects/phaser.h **** {
  84:../../DaisySP/Source/Effects/phaser.h ****   public:
  85:../../DaisySP/Source/Effects/phaser.h ****     Phaser() {}
  86:../../DaisySP/Source/Effects/phaser.h ****     ~Phaser() {}
  55              		.loc 2 86 5 is_stmt 1 view -0
  56              		.cfi_startproc
ARM GAS  C:\Users\seanw\AppData\Local\Temp\ccbivcrf.s 			page 5


  57              		@ args = 0, pretend = 0, frame = 0
  58              		@ frame_needed = 0, uses_anonymous_args = 0
  59              		@ link register save eliminated.
  60              		.loc 2 86 16 is_stmt 0 view .LVU3
  61 0000 7047     		bx	lr
  62              		.cfi_endproc
  63              	.LFE3047:
  65              		.weak	_ZN7daisysp6PhaserD1Ev
  66              		.thumb_set _ZN7daisysp6PhaserD1Ev,_ZN7daisysp6PhaserD2Ev
  67              		.section	.text._ZN7daisysp12PitchShifterD2Ev,"axG",%progbits,_ZN7daisysp12PitchShifterD5Ev,comdat
  68              		.align	1
  69              		.p2align 2,,3
  70              		.weak	_ZN7daisysp12PitchShifterD2Ev
  71              		.syntax unified
  72              		.thumb
  73              		.thumb_func
  74              		.fpu fpv5-d16
  76              	_ZN7daisysp12PitchShifterD2Ev:
  77              	.LVL2:
  78              	.LFB3055:
  79              		.file 3 "../../DaisySP/Source/Effects/pitchshifter.h"
   1:../../DaisySP/Source/Effects/pitchshifter.h **** #pragma once
   2:../../DaisySP/Source/Effects/pitchshifter.h **** #ifndef DSY_PITCHSHIFTER_H
   3:../../DaisySP/Source/Effects/pitchshifter.h **** #define DSY_PITCHSHIFTER_H
   4:../../DaisySP/Source/Effects/pitchshifter.h **** #include <stdint.h>
   5:../../DaisySP/Source/Effects/pitchshifter.h **** #include <cmath>
   6:../../DaisySP/Source/Effects/pitchshifter.h **** #ifdef USE_ARM_DSP
   7:../../DaisySP/Source/Effects/pitchshifter.h **** #include "arm_math.h"
   8:../../DaisySP/Source/Effects/pitchshifter.h **** #endif
   9:../../DaisySP/Source/Effects/pitchshifter.h **** #include "Utility/dsp.h"
  10:../../DaisySP/Source/Effects/pitchshifter.h **** #include "Utility/delayline.h"
  11:../../DaisySP/Source/Effects/pitchshifter.h **** #include "Control/phasor.h"
  12:../../DaisySP/Source/Effects/pitchshifter.h **** 
  13:../../DaisySP/Source/Effects/pitchshifter.h **** /** Shift can be 30-100 ms lets just start with 50 for now.
  14:../../DaisySP/Source/Effects/pitchshifter.h **** 0.050 * SR = 2400 samples (at 48kHz)
  15:../../DaisySP/Source/Effects/pitchshifter.h **** */
  16:../../DaisySP/Source/Effects/pitchshifter.h **** #define SHIFT_BUFFER_SIZE 16384
  17:../../DaisySP/Source/Effects/pitchshifter.h **** //#define SHIFT_BUFFER_SIZE 4800
  18:../../DaisySP/Source/Effects/pitchshifter.h **** //#define SHIFT_BUFFER_SIZE 8192
  19:../../DaisySP/Source/Effects/pitchshifter.h **** //#define SHIFT_BUFFER_SIZE 1024
  20:../../DaisySP/Source/Effects/pitchshifter.h **** 
  21:../../DaisySP/Source/Effects/pitchshifter.h **** namespace daisysp
  22:../../DaisySP/Source/Effects/pitchshifter.h **** {
  23:../../DaisySP/Source/Effects/pitchshifter.h **** static inline uint32_t hash_xs32(uint32_t x)
  24:../../DaisySP/Source/Effects/pitchshifter.h **** {
  25:../../DaisySP/Source/Effects/pitchshifter.h ****     x ^= x << 13;
  26:../../DaisySP/Source/Effects/pitchshifter.h ****     x ^= x >> 17;
  27:../../DaisySP/Source/Effects/pitchshifter.h ****     x ^= x << 5;
  28:../../DaisySP/Source/Effects/pitchshifter.h ****     return x;
  29:../../DaisySP/Source/Effects/pitchshifter.h **** }
  30:../../DaisySP/Source/Effects/pitchshifter.h **** 
  31:../../DaisySP/Source/Effects/pitchshifter.h **** inline uint32_t myrand()
  32:../../DaisySP/Source/Effects/pitchshifter.h **** {
  33:../../DaisySP/Source/Effects/pitchshifter.h ****     static uint32_t seed = 1;
  34:../../DaisySP/Source/Effects/pitchshifter.h ****     seed                 = hash_xs32(seed);
  35:../../DaisySP/Source/Effects/pitchshifter.h ****     return seed;
  36:../../DaisySP/Source/Effects/pitchshifter.h **** }
ARM GAS  C:\Users\seanw\AppData\Local\Temp\ccbivcrf.s 			page 6


  37:../../DaisySP/Source/Effects/pitchshifter.h **** 
  38:../../DaisySP/Source/Effects/pitchshifter.h **** /**  time-domain pitchshifter
  39:../../DaisySP/Source/Effects/pitchshifter.h **** 
  40:../../DaisySP/Source/Effects/pitchshifter.h **** Author: shensley
  41:../../DaisySP/Source/Effects/pitchshifter.h **** 
  42:../../DaisySP/Source/Effects/pitchshifter.h **** Based on "Pitch Shifting" from ucsd.edu 
  43:../../DaisySP/Source/Effects/pitchshifter.h **** 
  44:../../DaisySP/Source/Effects/pitchshifter.h **** t = 1 - ((s *f) / R)
  45:../../DaisySP/Source/Effects/pitchshifter.h **** 
  46:../../DaisySP/Source/Effects/pitchshifter.h **** where:
  47:../../DaisySP/Source/Effects/pitchshifter.h ****     s is the size of the delay
  48:../../DaisySP/Source/Effects/pitchshifter.h ****     f is the frequency of the lfo
  49:../../DaisySP/Source/Effects/pitchshifter.h ****     r is the sample_rate
  50:../../DaisySP/Source/Effects/pitchshifter.h **** 
  51:../../DaisySP/Source/Effects/pitchshifter.h **** solving for t = 12.0
  52:../../DaisySP/Source/Effects/pitchshifter.h **** f = (12 - 1) * 48000 / SHIFT_BUFFER_SIZE;
  53:../../DaisySP/Source/Effects/pitchshifter.h **** 
  54:../../DaisySP/Source/Effects/pitchshifter.h **** \todo - move hash_xs32 and myrand to dsp.h and give appropriate names
  55:../../DaisySP/Source/Effects/pitchshifter.h **** */
  56:../../DaisySP/Source/Effects/pitchshifter.h **** class PitchShifter
  57:../../DaisySP/Source/Effects/pitchshifter.h **** {
  58:../../DaisySP/Source/Effects/pitchshifter.h ****   public:
  59:../../DaisySP/Source/Effects/pitchshifter.h ****     PitchShifter() {}
  60:../../DaisySP/Source/Effects/pitchshifter.h ****     ~PitchShifter() {}
  80              		.loc 3 60 5 is_stmt 1 view -0
  81              		.cfi_startproc
  82              		@ args = 0, pretend = 0, frame = 0
  83              		@ frame_needed = 0, uses_anonymous_args = 0
  84              		@ link register save eliminated.
  85              		.loc 3 60 22 is_stmt 0 view .LVU5
  86 0000 7047     		bx	lr
  87              		.cfi_endproc
  88              	.LFE3055:
  90              		.weak	_ZN7daisysp12PitchShifterD1Ev
  91              		.thumb_set _ZN7daisysp12PitchShifterD1Ev,_ZN7daisysp12PitchShifterD2Ev
  92              		.section	.text._ZN5daisy9ParameterD2Ev,"axG",%progbits,_ZN5daisy9ParameterD5Ev,comdat
  93              		.align	1
  94              		.p2align 2,,3
  95              		.weak	_ZN5daisy9ParameterD2Ev
  96              		.syntax unified
  97              		.thumb
  98              		.thumb_func
  99              		.fpu fpv5-d16
 101              	_ZN5daisy9ParameterD2Ev:
 102              	.LVL3:
 103              	.LFB3867:
 104              		.file 4 "../../libDaisy/src/hid/parameter.h"
   1:../../libDaisy/src/hid/parameter.h **** #pragma once
   2:../../libDaisy/src/hid/parameter.h **** #include <stdint.h>
   3:../../libDaisy/src/hid/parameter.h **** #include "hid/ctrl.h"
   4:../../libDaisy/src/hid/parameter.h **** 
   5:../../libDaisy/src/hid/parameter.h **** namespace daisy
   6:../../libDaisy/src/hid/parameter.h **** {
   7:../../libDaisy/src/hid/parameter.h **** /** @addtogroup controls
   8:../../libDaisy/src/hid/parameter.h ****     @{
   9:../../libDaisy/src/hid/parameter.h **** */
  10:../../libDaisy/src/hid/parameter.h **** 
ARM GAS  C:\Users\seanw\AppData\Local\Temp\ccbivcrf.s 			page 7


  11:../../libDaisy/src/hid/parameter.h **** /**      Simple parameter mapping tool that takes a 0-1 input from an hid_ctrl. */
  12:../../libDaisy/src/hid/parameter.h **** class Parameter
  13:../../libDaisy/src/hid/parameter.h **** {
  14:../../libDaisy/src/hid/parameter.h ****   public:
  15:../../libDaisy/src/hid/parameter.h ****     /** Curves are applied to the output signal */
  16:../../libDaisy/src/hid/parameter.h ****     enum Curve
  17:../../libDaisy/src/hid/parameter.h ****     {
  18:../../libDaisy/src/hid/parameter.h ****         LINEAR,      /**< Linear curve */
  19:../../libDaisy/src/hid/parameter.h ****         EXPONENTIAL, /**< Exponential curve */
  20:../../libDaisy/src/hid/parameter.h ****         LOGARITHMIC, /**<  Logarithmic curve */
  21:../../libDaisy/src/hid/parameter.h ****         CUBE,        /**< Cubic curve */
  22:../../libDaisy/src/hid/parameter.h ****         LAST,        /**< Final enum element. */
  23:../../libDaisy/src/hid/parameter.h ****     };
  24:../../libDaisy/src/hid/parameter.h ****     /** Constructor */
  25:../../libDaisy/src/hid/parameter.h ****     Parameter() {}
  26:../../libDaisy/src/hid/parameter.h ****     /** Destructor */
  27:../../libDaisy/src/hid/parameter.h ****     ~Parameter() {}
 105              		.loc 4 27 5 is_stmt 1 view -0
 106              		.cfi_startproc
 107              		@ args = 0, pretend = 0, frame = 0
 108              		@ frame_needed = 0, uses_anonymous_args = 0
 109              		@ link register save eliminated.
 110              	.LBB523:
 111              	.LBI523:
 112              		.file 5 "../../libDaisy/src/hid/ctrl.h"
   1:../../libDaisy/src/hid/ctrl.h **** #pragma once
   2:../../libDaisy/src/hid/ctrl.h **** #ifndef DSY_KNOB_H
   3:../../libDaisy/src/hid/ctrl.h **** #define DSY_KNOB_H /**< & */
   4:../../libDaisy/src/hid/ctrl.h **** #include <stdint.h>
   5:../../libDaisy/src/hid/ctrl.h **** 
   6:../../libDaisy/src/hid/ctrl.h **** #ifdef __cplusplus
   7:../../libDaisy/src/hid/ctrl.h **** namespace daisy
   8:../../libDaisy/src/hid/ctrl.h **** {
   9:../../libDaisy/src/hid/ctrl.h **** /**
  10:../../libDaisy/src/hid/ctrl.h ****     @brief Hardware Interface for control inputs \n 
  11:../../libDaisy/src/hid/ctrl.h ****     Primarily designed for ADC input controls such as \n 
  12:../../libDaisy/src/hid/ctrl.h ****     potentiometers, and control voltage. \n 
  13:../../libDaisy/src/hid/ctrl.h ****     @author Stephen Hensley
  14:../../libDaisy/src/hid/ctrl.h ****     @date November 2019
  15:../../libDaisy/src/hid/ctrl.h ****     @ingroup controls
  16:../../libDaisy/src/hid/ctrl.h **** */
  17:../../libDaisy/src/hid/ctrl.h **** class AnalogControl
  18:../../libDaisy/src/hid/ctrl.h **** {
  19:../../libDaisy/src/hid/ctrl.h ****   public:
  20:../../libDaisy/src/hid/ctrl.h ****     /** Constructor */
  21:../../libDaisy/src/hid/ctrl.h ****     AnalogControl() {}
  22:../../libDaisy/src/hid/ctrl.h ****     /** destructor */
  23:../../libDaisy/src/hid/ctrl.h ****     ~AnalogControl() {}
 113              		.loc 5 23 5 view .LVU7
 114              		.loc 5 23 5 is_stmt 0 view .LVU8
 115              	.LBE523:
 116              		.loc 4 27 19 view .LVU9
 117 0000 7047     		bx	lr
 118              		.cfi_endproc
 119              	.LFE3867:
 121              		.weak	_ZN5daisy9ParameterD1Ev
 122              		.thumb_set _ZN5daisy9ParameterD1Ev,_ZN5daisy9ParameterD2Ev
ARM GAS  C:\Users\seanw\AppData\Local\Temp\ccbivcrf.s 			page 8


 123 0002 00BF     		.section	.text._ZN5daisy8DaisyPodD2Ev,"axG",%progbits,_ZN5daisy8DaisyPodD5Ev,comdat
 124              		.align	1
 125              		.p2align 2,,3
 126              		.weak	_ZN5daisy8DaisyPodD2Ev
 127              		.syntax unified
 128              		.thumb
 129              		.thumb_func
 130              		.fpu fpv5-d16
 132              	_ZN5daisy8DaisyPodD2Ev:
 133              	.LVL4:
 134              	.LFB4400:
 135              		.file 6 "../../libDaisy/src/daisy_pod.h"
   1:../../libDaisy/src/daisy_pod.h **** #pragma once
   2:../../libDaisy/src/daisy_pod.h **** #ifndef DSY_POD_BSP_H
   3:../../libDaisy/src/daisy_pod.h **** #define DSY_POD_BSP_H
   4:../../libDaisy/src/daisy_pod.h **** 
   5:../../libDaisy/src/daisy_pod.h **** #include "daisy_seed.h"
   6:../../libDaisy/src/daisy_pod.h **** 
   7:../../libDaisy/src/daisy_pod.h **** namespace daisy
   8:../../libDaisy/src/daisy_pod.h **** {
   9:../../libDaisy/src/daisy_pod.h **** /**
  10:../../libDaisy/src/daisy_pod.h ****     @brief Class that handles initializing all of the hardware specific to the Daisy Patch Board. \
  11:../../libDaisy/src/daisy_pod.h ****     Helper funtions are also in place to provide easy access to built-in controls and peripherals.
  12:../../libDaisy/src/daisy_pod.h ****     @author Stephen Hensley
  13:../../libDaisy/src/daisy_pod.h ****     @date November 2019
  14:../../libDaisy/src/daisy_pod.h ****     @ingroup boards
  15:../../libDaisy/src/daisy_pod.h **** */
  16:../../libDaisy/src/daisy_pod.h **** class DaisyPod
  17:../../libDaisy/src/daisy_pod.h **** {
  18:../../libDaisy/src/daisy_pod.h ****   public:
  19:../../libDaisy/src/daisy_pod.h ****     /** Switches */
  20:../../libDaisy/src/daisy_pod.h ****     enum Sw
  21:../../libDaisy/src/daisy_pod.h ****     {
  22:../../libDaisy/src/daisy_pod.h ****         BUTTON_1,    /** & */
  23:../../libDaisy/src/daisy_pod.h ****         BUTTON_2,    /** & */
  24:../../libDaisy/src/daisy_pod.h ****         BUTTON_LAST, /** &  */
  25:../../libDaisy/src/daisy_pod.h ****     };
  26:../../libDaisy/src/daisy_pod.h **** 
  27:../../libDaisy/src/daisy_pod.h ****     /** Knobs */
  28:../../libDaisy/src/daisy_pod.h ****     enum Knob
  29:../../libDaisy/src/daisy_pod.h ****     {
  30:../../libDaisy/src/daisy_pod.h ****         KNOB_1,    /** &  */
  31:../../libDaisy/src/daisy_pod.h ****         KNOB_2,    /** & */
  32:../../libDaisy/src/daisy_pod.h ****         KNOB_LAST, /** & */
  33:../../libDaisy/src/daisy_pod.h ****     };
  34:../../libDaisy/src/daisy_pod.h **** 
  35:../../libDaisy/src/daisy_pod.h ****     DaisyPod() {}
  36:../../libDaisy/src/daisy_pod.h ****     ~DaisyPod() {}
 136              		.loc 6 36 5 is_stmt 1 view -0
 137              		.cfi_startproc
 138              		@ args = 0, pretend = 0, frame = 0
 139              		@ frame_needed = 0, uses_anonymous_args = 0
 140              		@ link register save eliminated.
 141              	.LBB524:
 142              	.LBI524:
 143              		.file 7 "../../libDaisy/src/hid/midi.h"
   1:../../libDaisy/src/hid/midi.h **** #pragma once
ARM GAS  C:\Users\seanw\AppData\Local\Temp\ccbivcrf.s 			page 9


   2:../../libDaisy/src/hid/midi.h **** #ifndef DSY_MIDI_H
   3:../../libDaisy/src/hid/midi.h **** #define DSY_MIDI_H
   4:../../libDaisy/src/hid/midi.h **** 
   5:../../libDaisy/src/hid/midi.h **** // TODO: make this adjustable
   6:../../libDaisy/src/hid/midi.h **** #define SYSEX_BUFFER_LEN 128
   7:../../libDaisy/src/hid/midi.h **** 
   8:../../libDaisy/src/hid/midi.h **** #include <stdint.h>
   9:../../libDaisy/src/hid/midi.h **** #include <stdlib.h>
  10:../../libDaisy/src/hid/midi.h **** #include "per/uart.h"
  11:../../libDaisy/src/hid/midi.h **** #include "util/ringbuffer.h"
  12:../../libDaisy/src/hid/midi.h **** #include "hid/MidiEvent.h"
  13:../../libDaisy/src/hid/midi.h **** #include "hid/usb_midi.h"
  14:../../libDaisy/src/hid/midi.h **** #include "sys/system.h"
  15:../../libDaisy/src/hid/midi.h **** 
  16:../../libDaisy/src/hid/midi.h **** namespace daisy
  17:../../libDaisy/src/hid/midi.h **** {
  18:../../libDaisy/src/hid/midi.h **** /** @addtogroup external 
  19:../../libDaisy/src/hid/midi.h ****     @{ 
  20:../../libDaisy/src/hid/midi.h **** */
  21:../../libDaisy/src/hid/midi.h **** 
  22:../../libDaisy/src/hid/midi.h **** class MidiUartTransport
  23:../../libDaisy/src/hid/midi.h **** {
  24:../../libDaisy/src/hid/midi.h ****   public:
  25:../../libDaisy/src/hid/midi.h ****     MidiUartTransport() {}
  26:../../libDaisy/src/hid/midi.h ****     ~MidiUartTransport() {}
  27:../../libDaisy/src/hid/midi.h **** 
  28:../../libDaisy/src/hid/midi.h ****     struct Config
  29:../../libDaisy/src/hid/midi.h ****     {
  30:../../libDaisy/src/hid/midi.h ****         UartHandler::Config::Peripheral periph;
  31:../../libDaisy/src/hid/midi.h ****         dsy_gpio_pin                    rx;
  32:../../libDaisy/src/hid/midi.h ****         dsy_gpio_pin                    tx;
  33:../../libDaisy/src/hid/midi.h **** 
  34:../../libDaisy/src/hid/midi.h ****         Config()
  35:../../libDaisy/src/hid/midi.h ****         {
  36:../../libDaisy/src/hid/midi.h ****             periph = UartHandler::Config::Peripheral::USART_1;
  37:../../libDaisy/src/hid/midi.h ****             rx     = {DSY_GPIOB, 7};
  38:../../libDaisy/src/hid/midi.h ****             tx     = {DSY_GPIOB, 6};
  39:../../libDaisy/src/hid/midi.h ****         }
  40:../../libDaisy/src/hid/midi.h ****     };
  41:../../libDaisy/src/hid/midi.h **** 
  42:../../libDaisy/src/hid/midi.h ****     inline void Init(Config config)
  43:../../libDaisy/src/hid/midi.h ****     {
  44:../../libDaisy/src/hid/midi.h ****         UartHandler::Config uart_config;
  45:../../libDaisy/src/hid/midi.h **** 
  46:../../libDaisy/src/hid/midi.h ****         //defaults
  47:../../libDaisy/src/hid/midi.h ****         uart_config.baudrate   = 31250;
  48:../../libDaisy/src/hid/midi.h ****         uart_config.stopbits   = UartHandler::Config::StopBits::BITS_1;
  49:../../libDaisy/src/hid/midi.h ****         uart_config.parity     = UartHandler::Config::Parity::NONE;
  50:../../libDaisy/src/hid/midi.h ****         uart_config.mode       = UartHandler::Config::Mode::TX_RX;
  51:../../libDaisy/src/hid/midi.h ****         uart_config.wordlength = UartHandler::Config::WordLength::BITS_8;
  52:../../libDaisy/src/hid/midi.h **** 
  53:../../libDaisy/src/hid/midi.h ****         //user settings
  54:../../libDaisy/src/hid/midi.h ****         uart_config.periph        = config.periph;
  55:../../libDaisy/src/hid/midi.h ****         uart_config.pin_config.rx = config.rx;
  56:../../libDaisy/src/hid/midi.h ****         uart_config.pin_config.tx = config.tx;
  57:../../libDaisy/src/hid/midi.h **** 
  58:../../libDaisy/src/hid/midi.h ****         uart_.Init(uart_config);
ARM GAS  C:\Users\seanw\AppData\Local\Temp\ccbivcrf.s 			page 10


  59:../../libDaisy/src/hid/midi.h ****     }
  60:../../libDaisy/src/hid/midi.h **** 
  61:../../libDaisy/src/hid/midi.h ****     inline void    StartRx() { uart_.StartRx(); }
  62:../../libDaisy/src/hid/midi.h ****     inline size_t  Readable() { return uart_.Readable(); }
  63:../../libDaisy/src/hid/midi.h ****     inline uint8_t Rx() { return uart_.PopRx(); }
  64:../../libDaisy/src/hid/midi.h ****     inline bool    RxActive() { return uart_.RxActive(); }
  65:../../libDaisy/src/hid/midi.h ****     inline void    FlushRx() { uart_.FlushRx(); }
  66:../../libDaisy/src/hid/midi.h ****     inline void    Tx(uint8_t* buff, size_t size) { uart_.PollTx(buff, size); }
  67:../../libDaisy/src/hid/midi.h **** 
  68:../../libDaisy/src/hid/midi.h ****   private:
  69:../../libDaisy/src/hid/midi.h ****     UartHandler uart_;
  70:../../libDaisy/src/hid/midi.h **** };
  71:../../libDaisy/src/hid/midi.h **** 
  72:../../libDaisy/src/hid/midi.h **** /** 
  73:../../libDaisy/src/hid/midi.h ****     @brief Simple MIDI Handler \n 
  74:../../libDaisy/src/hid/midi.h ****     Parses bytes from an input into valid MidiEvents. \n 
  75:../../libDaisy/src/hid/midi.h ****     The MidiEvents fill a FIFO queue that the user can pop messages from.
  76:../../libDaisy/src/hid/midi.h ****     @author shensley
  77:../../libDaisy/src/hid/midi.h ****     @date March 2020
  78:../../libDaisy/src/hid/midi.h **** */
  79:../../libDaisy/src/hid/midi.h **** template <typename Transport>
  80:../../libDaisy/src/hid/midi.h **** class MidiHandler
  81:../../libDaisy/src/hid/midi.h **** {
  82:../../libDaisy/src/hid/midi.h ****   public:
  83:../../libDaisy/src/hid/midi.h ****     MidiHandler() {}
  84:../../libDaisy/src/hid/midi.h ****     ~MidiHandler() {}
 144              		.loc 7 84 5 view .LVU11
 145              	.LBB525:
 146              	.LBI525:
  26:../../libDaisy/src/hid/midi.h **** 
 147              		.loc 7 26 5 view .LVU12
  26:../../libDaisy/src/hid/midi.h **** 
 148              		.loc 7 26 5 is_stmt 0 view .LVU13
 149              	.LBE525:
 150              	.LBE524:
 151              	.LBB526:
 152              	.LBI526:
 153              		.file 8 "../../libDaisy/src/hid/rgb_led.h"
   1:../../libDaisy/src/hid/rgb_led.h **** #pragma once
   2:../../libDaisy/src/hid/rgb_led.h **** #ifndef DSY_RGB_LED_H
   3:../../libDaisy/src/hid/rgb_led.h **** #define DSY_RGB_LED_H
   4:../../libDaisy/src/hid/rgb_led.h **** #include "hid/led.h"
   5:../../libDaisy/src/hid/rgb_led.h **** #include "util/color.h"
   6:../../libDaisy/src/hid/rgb_led.h **** 
   7:../../libDaisy/src/hid/rgb_led.h **** namespace daisy
   8:../../libDaisy/src/hid/rgb_led.h **** {
   9:../../libDaisy/src/hid/rgb_led.h **** /** @addtogroup feedback
  10:../../libDaisy/src/hid/rgb_led.h ****     @{
  11:../../libDaisy/src/hid/rgb_led.h **** */
  12:../../libDaisy/src/hid/rgb_led.h **** 
  13:../../libDaisy/src/hid/rgb_led.h **** /** 3x LEDs configured as an RGB for ease of use. */
  14:../../libDaisy/src/hid/rgb_led.h **** class RgbLed
  15:../../libDaisy/src/hid/rgb_led.h **** {
  16:../../libDaisy/src/hid/rgb_led.h ****   public:
  17:../../libDaisy/src/hid/rgb_led.h ****     RgbLed() {}
  18:../../libDaisy/src/hid/rgb_led.h ****     ~RgbLed() {}
 154              		.loc 8 18 5 is_stmt 1 view .LVU14
ARM GAS  C:\Users\seanw\AppData\Local\Temp\ccbivcrf.s 			page 11


 155              	.LBB527:
 156              	.LBI527:
 157              		.file 9 "../../libDaisy/src/hid/led.h"
   1:../../libDaisy/src/hid/led.h **** 
   2:../../libDaisy/src/hid/led.h **** #pragma once
   3:../../libDaisy/src/hid/led.h **** #ifndef DSY_LED_H
   4:../../libDaisy/src/hid/led.h **** #define DSY_LED_H
   5:../../libDaisy/src/hid/led.h **** #include "daisy_core.h"
   6:../../libDaisy/src/hid/led.h **** #include "per/gpio.h"
   7:../../libDaisy/src/hid/led.h **** 
   8:../../libDaisy/src/hid/led.h **** /* TODO - Get this set up to work with the dev_leddriver stuff as well
   9:../../libDaisy/src/hid/led.h **** - Setup Hardware PWM for pins that have it
  10:../../libDaisy/src/hid/led.h **** */
  11:../../libDaisy/src/hid/led.h **** 
  12:../../libDaisy/src/hid/led.h **** namespace daisy
  13:../../libDaisy/src/hid/led.h **** {
  14:../../libDaisy/src/hid/led.h **** /**
  15:../../libDaisy/src/hid/led.h ****     @brief LED Class providing simple Software PWM ability, etc \n 
  16:../../libDaisy/src/hid/led.h ****     Eventually this will work with hardware PWM, and external LED Driver devices as well.
  17:../../libDaisy/src/hid/led.h ****     @author shensley
  18:../../libDaisy/src/hid/led.h ****     @date March 2020
  19:../../libDaisy/src/hid/led.h ****     @ingroup feedback
  20:../../libDaisy/src/hid/led.h **** */
  21:../../libDaisy/src/hid/led.h **** class Led
  22:../../libDaisy/src/hid/led.h **** {
  23:../../libDaisy/src/hid/led.h ****   public:
  24:../../libDaisy/src/hid/led.h ****     Led() {}
  25:../../libDaisy/src/hid/led.h ****     ~Led() {}
 158              		.loc 9 25 5 view .LVU15
 159              		.loc 9 25 5 is_stmt 0 view .LVU16
 160              	.LBE527:
 161              	.LBB528:
 162              	.LBI528:
 163              		.loc 9 25 5 is_stmt 1 view .LVU17
 164              		.loc 9 25 5 is_stmt 0 view .LVU18
 165              	.LBE528:
 166              	.LBB529:
 167              	.LBI529:
 168              		.loc 9 25 5 is_stmt 1 view .LVU19
 169              		.loc 9 25 5 is_stmt 0 view .LVU20
 170              	.LBE529:
 171              	.LBE526:
 172              	.LBB530:
 173              	.LBI530:
 174              		.loc 8 18 5 is_stmt 1 view .LVU21
 175              	.LBB531:
 176              	.LBI531:
 177              		.loc 9 25 5 view .LVU22
 178              		.loc 9 25 5 is_stmt 0 view .LVU23
 179              	.LBE531:
 180              	.LBB532:
 181              	.LBI532:
 182              		.loc 9 25 5 is_stmt 1 view .LVU24
 183              		.loc 9 25 5 is_stmt 0 view .LVU25
 184              	.LBE532:
 185              	.LBB533:
 186              	.LBI533:
ARM GAS  C:\Users\seanw\AppData\Local\Temp\ccbivcrf.s 			page 12


 187              		.loc 9 25 5 is_stmt 1 view .LVU26
 188              		.loc 9 25 5 is_stmt 0 view .LVU27
 189              	.LBE533:
 190              	.LBE530:
 191              	.LBB534:
 192              	.LBI534:
 193              		.file 10 "../../libDaisy/src/hid/switch.h"
   1:../../libDaisy/src/hid/switch.h **** #pragma once
   2:../../libDaisy/src/hid/switch.h **** #ifndef DSY_SWITCH_H
   3:../../libDaisy/src/hid/switch.h **** #define DSY_SWITCH_H
   4:../../libDaisy/src/hid/switch.h **** #include "daisy_core.h"
   5:../../libDaisy/src/hid/switch.h **** #include "per/gpio.h"
   6:../../libDaisy/src/hid/switch.h **** #include "sys/system.h"
   7:../../libDaisy/src/hid/switch.h **** 
   8:../../libDaisy/src/hid/switch.h **** namespace daisy
   9:../../libDaisy/src/hid/switch.h **** {
  10:../../libDaisy/src/hid/switch.h **** /** 
  11:../../libDaisy/src/hid/switch.h ****     Generic Class for handling momentary/latching switches \n 
  12:../../libDaisy/src/hid/switch.h ****     Inspired/influenced by Mutable Instruments (pichenettes) Switch classes
  13:../../libDaisy/src/hid/switch.h ****     @author Stephen Hensley
  14:../../libDaisy/src/hid/switch.h ****     @date December 2019
  15:../../libDaisy/src/hid/switch.h ****     @ingroup controls
  16:../../libDaisy/src/hid/switch.h **** */
  17:../../libDaisy/src/hid/switch.h **** class Switch
  18:../../libDaisy/src/hid/switch.h **** {
  19:../../libDaisy/src/hid/switch.h ****   public:
  20:../../libDaisy/src/hid/switch.h ****     /** Specifies the expected behavior of the switch */
  21:../../libDaisy/src/hid/switch.h ****     enum Type
  22:../../libDaisy/src/hid/switch.h ****     {
  23:../../libDaisy/src/hid/switch.h ****         TYPE_TOGGLE,    /**< & */
  24:../../libDaisy/src/hid/switch.h ****         TYPE_MOMENTARY, /**< & */
  25:../../libDaisy/src/hid/switch.h ****     };
  26:../../libDaisy/src/hid/switch.h ****     /** Specifies whether the pressed is HIGH or LOW. */
  27:../../libDaisy/src/hid/switch.h ****     enum Polarity
  28:../../libDaisy/src/hid/switch.h ****     {
  29:../../libDaisy/src/hid/switch.h ****         POLARITY_NORMAL,   /**< & */
  30:../../libDaisy/src/hid/switch.h ****         POLARITY_INVERTED, /**< & */
  31:../../libDaisy/src/hid/switch.h ****     };
  32:../../libDaisy/src/hid/switch.h **** 
  33:../../libDaisy/src/hid/switch.h ****     /** Specifies whether to use built-in Pull Up/Down resistors to hold button at a given state wh
  34:../../libDaisy/src/hid/switch.h ****     enum Pull
  35:../../libDaisy/src/hid/switch.h ****     {
  36:../../libDaisy/src/hid/switch.h ****         PULL_UP,   /**< & */
  37:../../libDaisy/src/hid/switch.h ****         PULL_DOWN, /**< & */
  38:../../libDaisy/src/hid/switch.h ****         PULL_NONE, /**< & */
  39:../../libDaisy/src/hid/switch.h ****     };
  40:../../libDaisy/src/hid/switch.h **** 
  41:../../libDaisy/src/hid/switch.h ****     Switch() {}
  42:../../libDaisy/src/hid/switch.h ****     ~Switch() {}
 194              		.loc 10 42 5 is_stmt 1 view .LVU28
 195              		.loc 10 42 5 is_stmt 0 view .LVU29
 196              	.LBE534:
 197              	.LBB535:
 198              	.LBI535:
 199              		.loc 10 42 5 is_stmt 1 view .LVU30
 200              		.loc 10 42 5 is_stmt 0 view .LVU31
 201              	.LBE535:
ARM GAS  C:\Users\seanw\AppData\Local\Temp\ccbivcrf.s 			page 13


 202              	.LBB536:
 203              	.LBI536:
 204              		.loc 5 23 5 is_stmt 1 view .LVU32
 205              		.loc 5 23 5 is_stmt 0 view .LVU33
 206              	.LBE536:
 207              	.LBB537:
 208              	.LBI537:
 209              		.loc 5 23 5 is_stmt 1 view .LVU34
 210              		.loc 5 23 5 is_stmt 0 view .LVU35
 211              	.LBE537:
 212              	.LBB538:
 213              	.LBI538:
 214              		.file 11 "../../libDaisy/src/hid/encoder.h"
   1:../../libDaisy/src/hid/encoder.h **** #pragma once
   2:../../libDaisy/src/hid/encoder.h **** #ifndef DSY_ENCODER_H
   3:../../libDaisy/src/hid/encoder.h **** #define DSY_ENCODER_H
   4:../../libDaisy/src/hid/encoder.h **** #include "daisy_core.h"
   5:../../libDaisy/src/hid/encoder.h **** #include "per/gpio.h"
   6:../../libDaisy/src/hid/encoder.h **** #include "hid/switch.h"
   7:../../libDaisy/src/hid/encoder.h **** 
   8:../../libDaisy/src/hid/encoder.h **** namespace daisy
   9:../../libDaisy/src/hid/encoder.h **** {
  10:../../libDaisy/src/hid/encoder.h **** /** 
  11:../../libDaisy/src/hid/encoder.h ****     @brief Generic Class for handling Quadrature Encoders \n 
  12:../../libDaisy/src/hid/encoder.h ****     Inspired/influenced by Mutable Instruments (pichenettes) Encoder classes
  13:../../libDaisy/src/hid/encoder.h ****     @author Stephen Hensley
  14:../../libDaisy/src/hid/encoder.h ****     @date December 2019
  15:../../libDaisy/src/hid/encoder.h ****     @ingroup controls
  16:../../libDaisy/src/hid/encoder.h **** */
  17:../../libDaisy/src/hid/encoder.h **** class Encoder
  18:../../libDaisy/src/hid/encoder.h **** {
  19:../../libDaisy/src/hid/encoder.h ****   public:
  20:../../libDaisy/src/hid/encoder.h ****     Encoder() {}
  21:../../libDaisy/src/hid/encoder.h ****     ~Encoder() {}
 215              		.loc 11 21 5 is_stmt 1 view .LVU36
 216              	.LBB539:
 217              	.LBI539:
 218              		.loc 10 42 5 view .LVU37
 219              		.loc 10 42 5 is_stmt 0 view .LVU38
 220              	.LBE539:
 221              	.LBE538:
 222              	.LBB540:
 223              	.LBI540:
 224              		.file 12 "../../libDaisy/src/daisy_seed.h"
   1:../../libDaisy/src/daisy_seed.h **** #pragma once
   2:../../libDaisy/src/daisy_seed.h **** #ifndef DSY_SEED_H
   3:../../libDaisy/src/daisy_seed.h **** #define DSY_SEED_H
   4:../../libDaisy/src/daisy_seed.h **** 
   5:../../libDaisy/src/daisy_seed.h **** #include "daisy.h"
   6:../../libDaisy/src/daisy_seed.h **** 
   7:../../libDaisy/src/daisy_seed.h **** //Uncomment this out if you're still using the rev2 hardware
   8:../../libDaisy/src/daisy_seed.h **** //#define SEED_REV2
   9:../../libDaisy/src/daisy_seed.h **** 
  10:../../libDaisy/src/daisy_seed.h **** namespace daisy
  11:../../libDaisy/src/daisy_seed.h **** {
  12:../../libDaisy/src/daisy_seed.h **** /**
  13:../../libDaisy/src/daisy_seed.h ****    @brief This is the higher-level interface for the Daisy board. \n 
ARM GAS  C:\Users\seanw\AppData\Local\Temp\ccbivcrf.s 			page 14


  14:../../libDaisy/src/daisy_seed.h ****     All basic peripheral configuration/initialization is setup here. \n
  15:../../libDaisy/src/daisy_seed.h **** 
  16:../../libDaisy/src/daisy_seed.h ****    @ingroup boards
  17:../../libDaisy/src/daisy_seed.h **** */
  18:../../libDaisy/src/daisy_seed.h **** class DaisySeed
  19:../../libDaisy/src/daisy_seed.h **** {
  20:../../libDaisy/src/daisy_seed.h ****   public:
  21:../../libDaisy/src/daisy_seed.h ****     DaisySeed() {}
  22:../../libDaisy/src/daisy_seed.h ****     ~DaisySeed() {}
 225              		.loc 12 22 5 is_stmt 1 view .LVU39
 226              	.LBB541:
 227              	.LBI541:
 228              		.file 13 "../../libDaisy/src/sys/system.h"
   1:../../libDaisy/src/sys/system.h **** #ifndef DSY_SYSTEM_H
   2:../../libDaisy/src/sys/system.h **** #define DSY_SYSTEM_H
   3:../../libDaisy/src/sys/system.h **** 
   4:../../libDaisy/src/sys/system.h **** #ifndef UNIT_TEST // for unit tests, a dummy implementation is provided below
   5:../../libDaisy/src/sys/system.h **** 
   6:../../libDaisy/src/sys/system.h **** #include <cstdint>
   7:../../libDaisy/src/sys/system.h **** #include "per/tim.h"
   8:../../libDaisy/src/sys/system.h **** 
   9:../../libDaisy/src/sys/system.h **** namespace daisy
  10:../../libDaisy/src/sys/system.h **** {
  11:../../libDaisy/src/sys/system.h **** /** A handle for interacting with the Core System. 
  12:../../libDaisy/src/sys/system.h ****  ** This includes the Clock tree, MPU, global DMA initialization,
  13:../../libDaisy/src/sys/system.h ****  ** cache handling, and any other necessary global initiailzation
  14:../../libDaisy/src/sys/system.h ****  **
  15:../../libDaisy/src/sys/system.h ****  ** @author shensley
  16:../../libDaisy/src/sys/system.h ****  ** @addtogroup system
  17:../../libDaisy/src/sys/system.h ****  */
  18:../../libDaisy/src/sys/system.h **** class System
  19:../../libDaisy/src/sys/system.h **** {
  20:../../libDaisy/src/sys/system.h ****   public:
  21:../../libDaisy/src/sys/system.h ****     /** Contains settings for initializing the System */
  22:../../libDaisy/src/sys/system.h ****     struct Config
  23:../../libDaisy/src/sys/system.h ****     {
  24:../../libDaisy/src/sys/system.h ****         /** Specifies the system clock frequency that feeds APB/AHB clocks, etc. */
  25:../../libDaisy/src/sys/system.h ****         enum class SysClkFreq
  26:../../libDaisy/src/sys/system.h ****         {
  27:../../libDaisy/src/sys/system.h ****             FREQ_400MHZ,
  28:../../libDaisy/src/sys/system.h ****             FREQ_480MHZ,
  29:../../libDaisy/src/sys/system.h ****         };
  30:../../libDaisy/src/sys/system.h **** 
  31:../../libDaisy/src/sys/system.h ****         /** Method to call on the struct to set to defaults
  32:../../libDaisy/src/sys/system.h ****          ** CPU Freq set to 400MHz
  33:../../libDaisy/src/sys/system.h ****          ** Cache Enabled 
  34:../../libDaisy/src/sys/system.h ****          ** */
  35:../../libDaisy/src/sys/system.h ****         void Defaults()
  36:../../libDaisy/src/sys/system.h ****         {
  37:../../libDaisy/src/sys/system.h ****             cpu_freq    = SysClkFreq::FREQ_400MHZ;
  38:../../libDaisy/src/sys/system.h ****             use_dcache  = true;
  39:../../libDaisy/src/sys/system.h ****             use_icache  = true;
  40:../../libDaisy/src/sys/system.h ****             skip_clocks = false;
  41:../../libDaisy/src/sys/system.h ****         }
  42:../../libDaisy/src/sys/system.h **** 
  43:../../libDaisy/src/sys/system.h ****         /** Method to call on the struct to set to boost mode:
  44:../../libDaisy/src/sys/system.h ****          ** CPU Freq set to 480MHz
ARM GAS  C:\Users\seanw\AppData\Local\Temp\ccbivcrf.s 			page 15


  45:../../libDaisy/src/sys/system.h ****          ** Cache Enabled 
  46:../../libDaisy/src/sys/system.h ****          ** */
  47:../../libDaisy/src/sys/system.h ****         void Boost()
  48:../../libDaisy/src/sys/system.h ****         {
  49:../../libDaisy/src/sys/system.h ****             cpu_freq    = SysClkFreq::FREQ_480MHZ;
  50:../../libDaisy/src/sys/system.h ****             use_dcache  = true;
  51:../../libDaisy/src/sys/system.h ****             use_icache  = true;
  52:../../libDaisy/src/sys/system.h ****             skip_clocks = false;
  53:../../libDaisy/src/sys/system.h ****         }
  54:../../libDaisy/src/sys/system.h **** 
  55:../../libDaisy/src/sys/system.h ****         SysClkFreq cpu_freq;
  56:../../libDaisy/src/sys/system.h ****         bool       use_dcache;
  57:../../libDaisy/src/sys/system.h ****         bool       use_icache;
  58:../../libDaisy/src/sys/system.h ****         bool       skip_clocks;
  59:../../libDaisy/src/sys/system.h ****     };
  60:../../libDaisy/src/sys/system.h **** 
  61:../../libDaisy/src/sys/system.h ****     /** Describes the different regions of memory available to the Daisy
  62:../../libDaisy/src/sys/system.h ****      * 
  63:../../libDaisy/src/sys/system.h ****      */
  64:../../libDaisy/src/sys/system.h ****     enum MemoryRegion
  65:../../libDaisy/src/sys/system.h ****     {
  66:../../libDaisy/src/sys/system.h ****         INTERNAL_FLASH = 0,
  67:../../libDaisy/src/sys/system.h ****         ITCMRAM,
  68:../../libDaisy/src/sys/system.h ****         DTCMRAM,
  69:../../libDaisy/src/sys/system.h ****         SRAM_D1,
  70:../../libDaisy/src/sys/system.h ****         SRAM_D2,
  71:../../libDaisy/src/sys/system.h ****         SRAM_D3,
  72:../../libDaisy/src/sys/system.h ****         SDRAM,
  73:../../libDaisy/src/sys/system.h ****         QSPI,
  74:../../libDaisy/src/sys/system.h ****         INVALID_ADDRESS,
  75:../../libDaisy/src/sys/system.h ****     };
  76:../../libDaisy/src/sys/system.h **** 
  77:../../libDaisy/src/sys/system.h ****     System() {}
  78:../../libDaisy/src/sys/system.h ****     ~System() {}
 229              		.loc 13 78 5 view .LVU40
 230              		.loc 13 78 5 is_stmt 0 view .LVU41
 231              	.LBE541:
 232              	.LBB542:
 233              	.LBI542:
 234              		.file 14 "../../libDaisy/src/hid/usb.h"
   1:../../libDaisy/src/hid/usb.h **** #pragma once
   2:../../libDaisy/src/hid/usb.h **** #ifndef DSY_HID_USB_H
   3:../../libDaisy/src/hid/usb.h **** #define DSY_HID_USB_H
   4:../../libDaisy/src/hid/usb.h **** #include <stdint.h>
   5:../../libDaisy/src/hid/usb.h **** #include <stdlib.h>
   6:../../libDaisy/src/hid/usb.h **** 
   7:../../libDaisy/src/hid/usb.h **** namespace daisy
   8:../../libDaisy/src/hid/usb.h **** /** @addtogroup externals
   9:../../libDaisy/src/hid/usb.h ****     @{
  10:../../libDaisy/src/hid/usb.h **** */
  11:../../libDaisy/src/hid/usb.h **** 
  12:../../libDaisy/src/hid/usb.h **** {
  13:../../libDaisy/src/hid/usb.h **** /** 
  14:../../libDaisy/src/hid/usb.h ****     @brief Interface for initializing and using the USB Peripherals on the daisy
  15:../../libDaisy/src/hid/usb.h ****     @author Stephen Hensley
  16:../../libDaisy/src/hid/usb.h ****     @date December 2019
  17:../../libDaisy/src/hid/usb.h **** */
ARM GAS  C:\Users\seanw\AppData\Local\Temp\ccbivcrf.s 			page 16


  18:../../libDaisy/src/hid/usb.h **** class UsbHandle
  19:../../libDaisy/src/hid/usb.h **** {
  20:../../libDaisy/src/hid/usb.h ****   public:
  21:../../libDaisy/src/hid/usb.h ****     /** Return values for USBHandle Functions */
  22:../../libDaisy/src/hid/usb.h ****     enum class Result
  23:../../libDaisy/src/hid/usb.h ****     {
  24:../../libDaisy/src/hid/usb.h ****         OK,
  25:../../libDaisy/src/hid/usb.h ****         ERR,
  26:../../libDaisy/src/hid/usb.h ****     };
  27:../../libDaisy/src/hid/usb.h **** 
  28:../../libDaisy/src/hid/usb.h ****     /** Specified which of the two USB Peripherals to initialize. */
  29:../../libDaisy/src/hid/usb.h ****     enum UsbPeriph
  30:../../libDaisy/src/hid/usb.h ****     {
  31:../../libDaisy/src/hid/usb.h ****         FS_INTERNAL, /**< Internal pin */
  32:../../libDaisy/src/hid/usb.h ****         FS_EXTERNAL, /**< FS External D+ pin is Pin 38 (GPIO32). FS External D- pin is Pin 37 (GPIO
  33:../../libDaisy/src/hid/usb.h ****         FS_BOTH,     /**< Both */
  34:../../libDaisy/src/hid/usb.h ****     };
  35:../../libDaisy/src/hid/usb.h **** 
  36:../../libDaisy/src/hid/usb.h **** 
  37:../../libDaisy/src/hid/usb.h ****     /** Function called upon reception of a buffer */
  38:../../libDaisy/src/hid/usb.h ****     typedef void (*ReceiveCallback)(uint8_t* buff, uint32_t* len);
  39:../../libDaisy/src/hid/usb.h **** 
  40:../../libDaisy/src/hid/usb.h ****     UsbHandle() {}
  41:../../libDaisy/src/hid/usb.h **** 
  42:../../libDaisy/src/hid/usb.h ****     ~UsbHandle() {}
 235              		.loc 14 42 5 is_stmt 1 view .LVU42
 236              		.loc 14 42 5 is_stmt 0 view .LVU43
 237              	.LBE542:
 238              	.LBB543:
 239              	.LBI543:
 240              		.file 15 "../../libDaisy/src/per/adc.h"
   1:../../libDaisy/src/per/adc.h **** #pragma once
   2:../../libDaisy/src/per/adc.h **** #ifndef DSY_ADC_H
   3:../../libDaisy/src/per/adc.h **** #define DSY_ADC_H /**< Macro */
   4:../../libDaisy/src/per/adc.h **** #include <stdint.h>
   5:../../libDaisy/src/per/adc.h **** #include <stdlib.h>
   6:../../libDaisy/src/per/adc.h **** #include "daisy_core.h"
   7:../../libDaisy/src/per/adc.h **** #include "per/gpio.h"
   8:../../libDaisy/src/per/adc.h **** 
   9:../../libDaisy/src/per/adc.h **** #define DSY_ADC_MAX_CHANNELS 16 /**< Maximum number of ADC channels */
  10:../../libDaisy/src/per/adc.h **** 
  11:../../libDaisy/src/per/adc.h **** namespace daisy
  12:../../libDaisy/src/per/adc.h **** {
  13:../../libDaisy/src/per/adc.h **** /** @addtogroup analog_digital_conversion
  14:../../libDaisy/src/per/adc.h ****     @{
  15:../../libDaisy/src/per/adc.h **** */
  16:../../libDaisy/src/per/adc.h **** 
  17:../../libDaisy/src/per/adc.h **** /* While there may not be many configuration options here,
  18:../../libDaisy/src/per/adc.h **** using a struct like this allows us to add more configuration
  19:../../libDaisy/src/per/adc.h **** later without breaking existing functionality.
  20:../../libDaisy/src/per/adc.h **** */
  21:../../libDaisy/src/per/adc.h **** 
  22:../../libDaisy/src/per/adc.h **** /** Configuration Structure for a given channel */
  23:../../libDaisy/src/per/adc.h **** struct AdcChannelConfig
  24:../../libDaisy/src/per/adc.h **** {
  25:../../libDaisy/src/per/adc.h ****     /** Which pin to use for multiplexing */
  26:../../libDaisy/src/per/adc.h ****     enum MuxPin
ARM GAS  C:\Users\seanw\AppData\Local\Temp\ccbivcrf.s 			page 17


  27:../../libDaisy/src/per/adc.h ****     {
  28:../../libDaisy/src/per/adc.h ****         MUX_SEL_0,    /**< & */
  29:../../libDaisy/src/per/adc.h ****         MUX_SEL_1,    /**< & */
  30:../../libDaisy/src/per/adc.h ****         MUX_SEL_2,    /**< & */
  31:../../libDaisy/src/per/adc.h ****         MUX_SEL_LAST, /**< & */
  32:../../libDaisy/src/per/adc.h ****     };
  33:../../libDaisy/src/per/adc.h **** 
  34:../../libDaisy/src/per/adc.h ****     /** Initializes a single ADC pin as an ADC. 
  35:../../libDaisy/src/per/adc.h ****     \param pin Pin to init.
  36:../../libDaisy/src/per/adc.h ****      */
  37:../../libDaisy/src/per/adc.h ****     void InitSingle(dsy_gpio_pin pin);
  38:../../libDaisy/src/per/adc.h **** 
  39:../../libDaisy/src/per/adc.h ****     /** 
  40:../../libDaisy/src/per/adc.h ****     Initializes a single ADC pin as a Multiplexed ADC.
  41:../../libDaisy/src/per/adc.h ****     Requires a CD405X Multiplexer connected to the pin.
  42:../../libDaisy/src/per/adc.h ****     You only need to supply the mux pins that are required,
  43:../../libDaisy/src/per/adc.h ****     e.g. a 4052 mux would only require mux_0 and mux_1.
  44:../../libDaisy/src/per/adc.h ****     Internal Callbacks handle the pin addressing.
  45:../../libDaisy/src/per/adc.h ****     \param mux_channels must be 1-8
  46:../../libDaisy/src/per/adc.h ****     \param mux_0 First mux pin
  47:../../libDaisy/src/per/adc.h ****     \param mux_1 Second mux pin
  48:../../libDaisy/src/per/adc.h ****     \param mux_2 Third mux pin
  49:../../libDaisy/src/per/adc.h ****     \param adc_pin &
  50:../../libDaisy/src/per/adc.h ****     */
  51:../../libDaisy/src/per/adc.h ****     void InitMux(dsy_gpio_pin adc_pin,
  52:../../libDaisy/src/per/adc.h ****                  size_t       mux_channels,
  53:../../libDaisy/src/per/adc.h ****                  dsy_gpio_pin mux_0,
  54:../../libDaisy/src/per/adc.h ****                  dsy_gpio_pin mux_1 = {DSY_GPIOX, 0},
  55:../../libDaisy/src/per/adc.h ****                  dsy_gpio_pin mux_2 = {DSY_GPIOX, 0});
  56:../../libDaisy/src/per/adc.h **** 
  57:../../libDaisy/src/per/adc.h ****     dsy_gpio pin_;                   /**< & */
  58:../../libDaisy/src/per/adc.h ****     dsy_gpio mux_pin_[MUX_SEL_LAST]; /**< & */
  59:../../libDaisy/src/per/adc.h ****     uint8_t  mux_channels_;          /**< & */
  60:../../libDaisy/src/per/adc.h **** };
  61:../../libDaisy/src/per/adc.h **** 
  62:../../libDaisy/src/per/adc.h **** /**
  63:../../libDaisy/src/per/adc.h ****    Handler for analog to digital conversion
  64:../../libDaisy/src/per/adc.h **** */
  65:../../libDaisy/src/per/adc.h **** class AdcHandle
  66:../../libDaisy/src/per/adc.h **** {
  67:../../libDaisy/src/per/adc.h ****   public:
  68:../../libDaisy/src/per/adc.h ****     /** Supported oversampling amounts */
  69:../../libDaisy/src/per/adc.h ****     enum OverSampling
  70:../../libDaisy/src/per/adc.h ****     {
  71:../../libDaisy/src/per/adc.h ****         OVS_NONE, /**< & */
  72:../../libDaisy/src/per/adc.h ****         OVS_4,    /**< & */
  73:../../libDaisy/src/per/adc.h ****         OVS_8,    /**< & */
  74:../../libDaisy/src/per/adc.h ****         OVS_16,   /**< & */
  75:../../libDaisy/src/per/adc.h ****         OVS_32,   /**< & */
  76:../../libDaisy/src/per/adc.h ****         OVS_64,   /**< & */
  77:../../libDaisy/src/per/adc.h ****         OVS_128,  /**< & */
  78:../../libDaisy/src/per/adc.h ****         OVS_256,  /**< & */
  79:../../libDaisy/src/per/adc.h ****         OVS_512,  /**< & */
  80:../../libDaisy/src/per/adc.h ****         OVS_1024, /**< & */
  81:../../libDaisy/src/per/adc.h ****         OVS_LAST, /**< & */
  82:../../libDaisy/src/per/adc.h ****     };
  83:../../libDaisy/src/per/adc.h **** 
ARM GAS  C:\Users\seanw\AppData\Local\Temp\ccbivcrf.s 			page 18


  84:../../libDaisy/src/per/adc.h ****     AdcHandle() {}
  85:../../libDaisy/src/per/adc.h ****     ~AdcHandle() {}
 241              		.loc 15 85 5 is_stmt 1 view .LVU44
 242              		.loc 15 85 5 is_stmt 0 view .LVU45
 243              	.LBE543:
 244              	.LBB544:
 245              	.LBI544:
 246              		.file 16 "../../libDaisy/src/hid/audio.h"
   1:../../libDaisy/src/hid/audio.h **** #ifndef DSY_AUDIO_H
   2:../../libDaisy/src/hid/audio.h **** #define DSY_AUDIO_H /**< & */
   3:../../libDaisy/src/hid/audio.h **** 
   4:../../libDaisy/src/hid/audio.h **** #include "per/sai.h"
   5:../../libDaisy/src/hid/audio.h **** 
   6:../../libDaisy/src/hid/audio.h **** namespace daisy
   7:../../libDaisy/src/hid/audio.h **** {
   8:../../libDaisy/src/hid/audio.h **** class AudioHandle
   9:../../libDaisy/src/hid/audio.h **** {
  10:../../libDaisy/src/hid/audio.h ****   public:
  11:../../libDaisy/src/hid/audio.h ****     /** Manually configurable details about the Audio Engine */
  12:../../libDaisy/src/hid/audio.h ****     /** TODO: Figure out how to get samplerate in here. */
  13:../../libDaisy/src/hid/audio.h ****     struct Config
  14:../../libDaisy/src/hid/audio.h ****     {
  15:../../libDaisy/src/hid/audio.h ****         size_t                        blocksize;
  16:../../libDaisy/src/hid/audio.h ****         SaiHandle::Config::SampleRate samplerate;
  17:../../libDaisy/src/hid/audio.h ****         float                         postgain;
  18:../../libDaisy/src/hid/audio.h ****     };
  19:../../libDaisy/src/hid/audio.h **** 
  20:../../libDaisy/src/hid/audio.h ****     enum class Result
  21:../../libDaisy/src/hid/audio.h ****     {
  22:../../libDaisy/src/hid/audio.h ****         OK,
  23:../../libDaisy/src/hid/audio.h ****         ERR,
  24:../../libDaisy/src/hid/audio.h ****     };
  25:../../libDaisy/src/hid/audio.h **** 
  26:../../libDaisy/src/hid/audio.h ****     /** Non-Interleaving input buffer
  27:../../libDaisy/src/hid/audio.h ****      * Buffer arranged by float[chn][sample] 
  28:../../libDaisy/src/hid/audio.h ****      * const so that the user can't modify the input
  29:../../libDaisy/src/hid/audio.h ****     */
  30:../../libDaisy/src/hid/audio.h ****     typedef const float* const* InputBuffer;
  31:../../libDaisy/src/hid/audio.h **** 
  32:../../libDaisy/src/hid/audio.h ****     /** Non-Interleaving output buffer
  33:../../libDaisy/src/hid/audio.h ****      * Arranged by float[chn][sample] 
  34:../../libDaisy/src/hid/audio.h ****     */
  35:../../libDaisy/src/hid/audio.h ****     typedef float** OutputBuffer;
  36:../../libDaisy/src/hid/audio.h **** 
  37:../../libDaisy/src/hid/audio.h ****     /** Type for a Non-Interleaving audio callback 
  38:../../libDaisy/src/hid/audio.h ****    * Non-Interleaving audio callbacks in daisy will be of this type
  39:../../libDaisy/src/hid/audio.h ****   */
  40:../../libDaisy/src/hid/audio.h ****     typedef void (*AudioCallback)(InputBuffer  in,
  41:../../libDaisy/src/hid/audio.h ****                                   OutputBuffer out,
  42:../../libDaisy/src/hid/audio.h ****                                   size_t       size);
  43:../../libDaisy/src/hid/audio.h **** 
  44:../../libDaisy/src/hid/audio.h ****     /** Interleaving Input buffer
  45:../../libDaisy/src/hid/audio.h ****      ** audio is prepared as { L0, R0, L1, R1, . . . LN, RN }]
  46:../../libDaisy/src/hid/audio.h ****      ** this is const, as the user shouldn't modify it
  47:../../libDaisy/src/hid/audio.h ****     */
  48:../../libDaisy/src/hid/audio.h ****     typedef const float* InterleavingInputBuffer;
  49:../../libDaisy/src/hid/audio.h **** 
ARM GAS  C:\Users\seanw\AppData\Local\Temp\ccbivcrf.s 			page 19


  50:../../libDaisy/src/hid/audio.h ****     /** Interleaving Output buffer 
  51:../../libDaisy/src/hid/audio.h ****      ** audio is prepared as { L0, R0, L1, R1, . . . LN, RN }
  52:../../libDaisy/src/hid/audio.h ****     */
  53:../../libDaisy/src/hid/audio.h ****     typedef float* InterleavingOutputBuffer;
  54:../../libDaisy/src/hid/audio.h **** 
  55:../../libDaisy/src/hid/audio.h ****     /** Interleaving Audio Callback 
  56:../../libDaisy/src/hid/audio.h ****    * Interleaving audio callbacks in daisy must be of this type
  57:../../libDaisy/src/hid/audio.h ****   */
  58:../../libDaisy/src/hid/audio.h ****     typedef void (*InterleavingAudioCallback)(InterleavingInputBuffer  in,
  59:../../libDaisy/src/hid/audio.h ****                                               InterleavingOutputBuffer out,
  60:../../libDaisy/src/hid/audio.h ****                                               size_t                   size);
  61:../../libDaisy/src/hid/audio.h **** 
  62:../../libDaisy/src/hid/audio.h ****     AudioHandle() : pimpl_(nullptr) {}
  63:../../libDaisy/src/hid/audio.h ****     ~AudioHandle() {}
 247              		.loc 16 63 5 is_stmt 1 view .LVU46
 248              		.loc 16 63 5 is_stmt 0 view .LVU47
 249              	.LBE544:
 250              	.LBE540:
 251              		.loc 6 36 18 view .LVU48
 252 0000 7047     		bx	lr
 253              		.cfi_endproc
 254              	.LFE4400:
 256              		.weak	_ZN5daisy8DaisyPodD1Ev
 257              		.thumb_set _ZN5daisy8DaisyPodD1Ev,_ZN5daisy8DaisyPodD2Ev
 258 0002 00BF     		.section	.text._ZN7daisysp9DelayLineIfLj120000EED2Ev,"axG",%progbits,_ZN7daisysp9DelayLineIfLj1200
 259              		.align	1
 260              		.p2align 2,,3
 261              		.weak	_ZN7daisysp9DelayLineIfLj120000EED2Ev
 262              		.syntax unified
 263              		.thumb
 264              		.thumb_func
 265              		.fpu fpv5-d16
 267              	_ZN7daisysp9DelayLineIfLj120000EED2Ev:
 268              	.LVL5:
 269              	.LFB4994:
 270              		.file 17 "../../DaisySP/Source/Utility/delayline.h"
   1:../../DaisySP/Source/Utility/delayline.h **** #pragma once
   2:../../DaisySP/Source/Utility/delayline.h **** #ifndef DSY_DELAY_H
   3:../../DaisySP/Source/Utility/delayline.h **** #define DSY_DELAY_H
   4:../../DaisySP/Source/Utility/delayline.h **** #include <stdlib.h>
   5:../../DaisySP/Source/Utility/delayline.h **** #include <stdint.h>
   6:../../DaisySP/Source/Utility/delayline.h **** namespace daisysp
   7:../../DaisySP/Source/Utility/delayline.h **** {
   8:../../DaisySP/Source/Utility/delayline.h **** /** Simple Delay line.
   9:../../DaisySP/Source/Utility/delayline.h **** November 2019
  10:../../DaisySP/Source/Utility/delayline.h **** 
  11:../../DaisySP/Source/Utility/delayline.h **** Converted to Template December 2019
  12:../../DaisySP/Source/Utility/delayline.h **** 
  13:../../DaisySP/Source/Utility/delayline.h **** declaration example: (1 second of floats)
  14:../../DaisySP/Source/Utility/delayline.h **** 
  15:../../DaisySP/Source/Utility/delayline.h **** DelayLine<float, SAMPLE_RATE> del;
  16:../../DaisySP/Source/Utility/delayline.h **** 
  17:../../DaisySP/Source/Utility/delayline.h **** By: shensley
  18:../../DaisySP/Source/Utility/delayline.h **** */
  19:../../DaisySP/Source/Utility/delayline.h **** template <typename T, size_t max_size>
  20:../../DaisySP/Source/Utility/delayline.h **** class DelayLine
  21:../../DaisySP/Source/Utility/delayline.h **** {
ARM GAS  C:\Users\seanw\AppData\Local\Temp\ccbivcrf.s 			page 20


  22:../../DaisySP/Source/Utility/delayline.h ****   public:
  23:../../DaisySP/Source/Utility/delayline.h ****     DelayLine() {}
  24:../../DaisySP/Source/Utility/delayline.h ****     ~DelayLine() {}
 271              		.loc 17 24 5 is_stmt 1 view -0
 272              		.cfi_startproc
 273              		@ args = 0, pretend = 0, frame = 0
 274              		@ frame_needed = 0, uses_anonymous_args = 0
 275              		@ link register save eliminated.
 276              		.loc 17 24 19 is_stmt 0 view .LVU50
 277 0000 7047     		bx	lr
 278              		.cfi_endproc
 279              	.LFE4994:
 281              		.weak	_ZN7daisysp9DelayLineIfLj120000EED1Ev
 282              		.thumb_set _ZN7daisysp9DelayLineIfLj120000EED1Ev,_ZN7daisysp9DelayLineIfLj120000EED2Ev
 283              		.section	.text._ZN7daisysp12PitchShifter16SetTranspositionERKf.isra.0,"ax",%progbits
 284              		.align	1
 285              		.p2align 2,,3
 286              		.syntax unified
 287              		.thumb
 288              		.thumb_func
 289              		.fpu fpv5-d16
 291              	_ZN7daisysp12PitchShifter16SetTranspositionERKf.isra.0:
 292              	.LVL6:
 293              	.LFB4997:
  61:../../DaisySP/Source/Effects/pitchshifter.h ****     /** Initialize pitch shifter
  62:../../DaisySP/Source/Effects/pitchshifter.h ****     */
  63:../../DaisySP/Source/Effects/pitchshifter.h ****     void Init(float sr)
  64:../../DaisySP/Source/Effects/pitchshifter.h ****     {
  65:../../DaisySP/Source/Effects/pitchshifter.h ****         force_recalc_ = false;
  66:../../DaisySP/Source/Effects/pitchshifter.h ****         sr_           = sr;
  67:../../DaisySP/Source/Effects/pitchshifter.h ****         mod_freq_     = 5.0f;
  68:../../DaisySP/Source/Effects/pitchshifter.h ****         SetSemitones();
  69:../../DaisySP/Source/Effects/pitchshifter.h ****         for(uint8_t i = 0; i < 2; i++)
  70:../../DaisySP/Source/Effects/pitchshifter.h ****         {
  71:../../DaisySP/Source/Effects/pitchshifter.h ****             gain_[i] = 0.0f;
  72:../../DaisySP/Source/Effects/pitchshifter.h ****             d_[i].Init();
  73:../../DaisySP/Source/Effects/pitchshifter.h ****             phs_[i].Init(sr, 50, i == 0 ? 0 : PI_F);
  74:../../DaisySP/Source/Effects/pitchshifter.h ****         }
  75:../../DaisySP/Source/Effects/pitchshifter.h ****         shift_up_ = true;
  76:../../DaisySP/Source/Effects/pitchshifter.h ****         del_size_ = SHIFT_BUFFER_SIZE;
  77:../../DaisySP/Source/Effects/pitchshifter.h ****         SetDelSize(del_size_);
  78:../../DaisySP/Source/Effects/pitchshifter.h ****         fun_ = 0.0f;
  79:../../DaisySP/Source/Effects/pitchshifter.h ****     }
  80:../../DaisySP/Source/Effects/pitchshifter.h **** 
  81:../../DaisySP/Source/Effects/pitchshifter.h ****     /** process pitch shifter
  82:../../DaisySP/Source/Effects/pitchshifter.h ****     */
  83:../../DaisySP/Source/Effects/pitchshifter.h ****     float Process(float &in)
  84:../../DaisySP/Source/Effects/pitchshifter.h ****     {
  85:../../DaisySP/Source/Effects/pitchshifter.h ****         float val, fade1, fade2;
  86:../../DaisySP/Source/Effects/pitchshifter.h ****         // First Process delay mod/crossfade
  87:../../DaisySP/Source/Effects/pitchshifter.h ****         fade1 = phs_[0].Process();
  88:../../DaisySP/Source/Effects/pitchshifter.h ****         fade2 = phs_[1].Process();
  89:../../DaisySP/Source/Effects/pitchshifter.h ****         if(prev_phs_a_ > fade1)
  90:../../DaisySP/Source/Effects/pitchshifter.h ****         {
  91:../../DaisySP/Source/Effects/pitchshifter.h ****             mod_a_amt_ = fun_ * ((float)(myrand() % 255) / 255.0f)
  92:../../DaisySP/Source/Effects/pitchshifter.h ****                          * (del_size_ * 0.5f);
  93:../../DaisySP/Source/Effects/pitchshifter.h ****             mod_coeff_[0]
ARM GAS  C:\Users\seanw\AppData\Local\Temp\ccbivcrf.s 			page 21


  94:../../DaisySP/Source/Effects/pitchshifter.h ****                 = 0.0002f + (((float)(myrand() % 255) / 255.0f) * 0.001f);
  95:../../DaisySP/Source/Effects/pitchshifter.h ****         }
  96:../../DaisySP/Source/Effects/pitchshifter.h ****         if(prev_phs_b_ > fade2)
  97:../../DaisySP/Source/Effects/pitchshifter.h ****         {
  98:../../DaisySP/Source/Effects/pitchshifter.h ****             mod_b_amt_ = fun_ * ((float)(myrand() % 255) / 255.0f)
  99:../../DaisySP/Source/Effects/pitchshifter.h ****                          * (del_size_ * 0.5f);
 100:../../DaisySP/Source/Effects/pitchshifter.h ****             mod_coeff_[1]
 101:../../DaisySP/Source/Effects/pitchshifter.h ****                 = 0.0002f + (((float)(myrand() % 255) / 255.0f) * 0.001f);
 102:../../DaisySP/Source/Effects/pitchshifter.h ****         }
 103:../../DaisySP/Source/Effects/pitchshifter.h ****         slewed_mod_[0] += mod_coeff_[0] * (mod_a_amt_ - slewed_mod_[0]);
 104:../../DaisySP/Source/Effects/pitchshifter.h ****         slewed_mod_[1] += mod_coeff_[1] * (mod_b_amt_ - slewed_mod_[1]);
 105:../../DaisySP/Source/Effects/pitchshifter.h ****         prev_phs_a_ = fade1;
 106:../../DaisySP/Source/Effects/pitchshifter.h ****         prev_phs_b_ = fade2;
 107:../../DaisySP/Source/Effects/pitchshifter.h ****         if(shift_up_)
 108:../../DaisySP/Source/Effects/pitchshifter.h ****         {
 109:../../DaisySP/Source/Effects/pitchshifter.h ****             fade1 = 1.0f - fade1;
 110:../../DaisySP/Source/Effects/pitchshifter.h ****             fade2 = 1.0f - fade2;
 111:../../DaisySP/Source/Effects/pitchshifter.h ****         }
 112:../../DaisySP/Source/Effects/pitchshifter.h ****         mod_[0] = fade1 * (del_size_ - 1);
 113:../../DaisySP/Source/Effects/pitchshifter.h ****         mod_[1] = fade2 * (del_size_ - 1);
 114:../../DaisySP/Source/Effects/pitchshifter.h **** #ifdef USE_ARM_DSP
 115:../../DaisySP/Source/Effects/pitchshifter.h ****         gain_[0] = arm_sin_f32(fade1 * (float)M_PI);
 116:../../DaisySP/Source/Effects/pitchshifter.h ****         gain_[1] = arm_sin_f32(fade2 * (float)M_PI);
 117:../../DaisySP/Source/Effects/pitchshifter.h **** #else
 118:../../DaisySP/Source/Effects/pitchshifter.h ****         gain_[0] = sinf(fade1 * PI_F);
 119:../../DaisySP/Source/Effects/pitchshifter.h ****         gain_[1] = sinf(fade2 * PI_F);
 120:../../DaisySP/Source/Effects/pitchshifter.h **** #endif
 121:../../DaisySP/Source/Effects/pitchshifter.h **** 
 122:../../DaisySP/Source/Effects/pitchshifter.h ****         // Handle Delay Writing
 123:../../DaisySP/Source/Effects/pitchshifter.h ****         d_[0].Write(in);
 124:../../DaisySP/Source/Effects/pitchshifter.h ****         d_[1].Write(in);
 125:../../DaisySP/Source/Effects/pitchshifter.h ****         // Modulate Delay Lines
 126:../../DaisySP/Source/Effects/pitchshifter.h ****         //mod_a_amt = mod_b_amt = 0.0f;
 127:../../DaisySP/Source/Effects/pitchshifter.h ****         d_[0].SetDelay(mod_[0] + mod_a_amt_);
 128:../../DaisySP/Source/Effects/pitchshifter.h ****         d_[1].SetDelay(mod_[1] + mod_b_amt_);
 129:../../DaisySP/Source/Effects/pitchshifter.h ****         d_[0].SetDelay(mod_[0] + slewed_mod_[0]);
 130:../../DaisySP/Source/Effects/pitchshifter.h ****         d_[1].SetDelay(mod_[1] + slewed_mod_[1]);
 131:../../DaisySP/Source/Effects/pitchshifter.h ****         val = 0.0f;
 132:../../DaisySP/Source/Effects/pitchshifter.h ****         val += (d_[0].Read() * gain_[0]);
 133:../../DaisySP/Source/Effects/pitchshifter.h ****         val += (d_[1].Read() * gain_[1]);
 134:../../DaisySP/Source/Effects/pitchshifter.h ****         return val;
 135:../../DaisySP/Source/Effects/pitchshifter.h ****     }
 136:../../DaisySP/Source/Effects/pitchshifter.h **** 
 137:../../DaisySP/Source/Effects/pitchshifter.h ****     /** sets transposition in semitones
 138:../../DaisySP/Source/Effects/pitchshifter.h ****     */
 139:../../DaisySP/Source/Effects/pitchshifter.h ****     void SetTransposition(const float &transpose)
 294              		.loc 3 139 10 is_stmt 1 view -0
 295              		.cfi_startproc
 296              		@ args = 0, pretend = 0, frame = 8
 297              		@ frame_needed = 0, uses_anonymous_args = 0
 140:../../DaisySP/Source/Effects/pitchshifter.h ****     {
 141:../../DaisySP/Source/Effects/pitchshifter.h ****         float   ratio;
 298              		.loc 3 141 9 view .LVU52
 142:../../DaisySP/Source/Effects/pitchshifter.h ****         uint8_t idx;
 299              		.loc 3 142 9 view .LVU53
 143:../../DaisySP/Source/Effects/pitchshifter.h ****         if(transpose_ != transpose || force_recalc_)
 300              		.loc 3 143 9 view .LVU54
ARM GAS  C:\Users\seanw\AppData\Local\Temp\ccbivcrf.s 			page 22


 139:../../DaisySP/Source/Effects/pitchshifter.h ****     {
 301              		.loc 3 139 10 is_stmt 0 view .LVU55
 302 0000 30B5     		push	{r4, r5, lr}
 303              		.cfi_def_cfa_offset 12
 304              		.cfi_offset 4, -12
 305              		.cfi_offset 5, -8
 306              		.cfi_offset 14, -4
 307              		.loc 3 143 12 view .LVU56
 308 0002 00F50034 		add	r4, r0, #131072
 139:../../DaisySP/Source/Effects/pitchshifter.h ****     {
 309              		.loc 3 139 10 view .LVU57
 310 0006 83B0     		sub	sp, sp, #12
 311              		.cfi_def_cfa_offset 24
 139:../../DaisySP/Source/Effects/pitchshifter.h ****     {
 312              		.loc 3 139 10 view .LVU58
 313 0008 0546     		mov	r5, r0
 314              		.loc 3 143 9 view .LVU59
 315 000a D4ED187A 		vldr.32	s15, [r4, #96]
 316 000e F4EE407A 		vcmp.f32	s15, s0
 317 0012 F1EE10FA 		vmrs	APSR_nzcv, FPSCR
 318 0016 03D1     		bne	.L9
 319              		.loc 3 143 36 view .LVU60
 320 0018 94F82430 		ldrb	r3, [r4, #36]	@ zero_extendqisi2
 321 001c 002B     		cmp	r3, #0
 322 001e 59D0     		beq	.L8
 323              	.L9:
 144:../../DaisySP/Source/Effects/pitchshifter.h ****         {
 145:../../DaisySP/Source/Effects/pitchshifter.h ****             transpose_ = transpose;
 324              		.loc 3 145 13 is_stmt 1 view .LVU61
 146:../../DaisySP/Source/Effects/pitchshifter.h ****             idx        = (uint8_t)fabsf(transpose);
 325              		.loc 3 146 40 is_stmt 0 view .LVU62
 326 0020 F0EEC06A 		vabs.f32	s13, s0
 147:../../DaisySP/Source/Effects/pitchshifter.h ****             ratio      = semitone_ratios_[idx % 12];
 327              		.loc 3 147 47 view .LVU63
 328 0024 2F4A     		ldr	r2, .L18
 148:../../DaisySP/Source/Effects/pitchshifter.h ****             ratio *= (uint8_t)(fabsf(transpose) / 12) + 1;
 329              		.loc 3 148 49 view .LVU64
 330 0026 F2EE085A 		vmov.f32	s11, #1.2e+1
 147:../../DaisySP/Source/Effects/pitchshifter.h ****             ratio      = semitone_ratios_[idx % 12];
 331              		.loc 3 147 24 view .LVU65
 332 002a 48F22201 		movw	r1, #32802
 149:../../DaisySP/Source/Effects/pitchshifter.h ****             if(transpose > 0.0f)
 150:../../DaisySP/Source/Effects/pitchshifter.h ****             {
 151:../../DaisySP/Source/Effects/pitchshifter.h ****                 shift_up_ = true;
 152:../../DaisySP/Source/Effects/pitchshifter.h ****             }
 153:../../DaisySP/Source/Effects/pitchshifter.h ****             else
 154:../../DaisySP/Source/Effects/pitchshifter.h ****             {
 155:../../DaisySP/Source/Effects/pitchshifter.h ****                 shift_up_ = false;
 156:../../DaisySP/Source/Effects/pitchshifter.h ****             }
 157:../../DaisySP/Source/Effects/pitchshifter.h ****             mod_freq_ = ((ratio - 1.0f) * sr_) / del_size_;
 333              		.loc 3 157 33 view .LVU66
 334 002e BFEE007A 		vmov.f32	s14, #-1.0e+0
 335              		.loc 3 157 41 view .LVU67
 336 0032 94ED0A6A 		vldr.32	s12, [r4, #40]
 149:../../DaisySP/Source/Effects/pitchshifter.h ****             if(transpose > 0.0f)
 337              		.loc 3 149 13 view .LVU68
 338 0036 B5EEC00A 		vcmpe.f32	s0, #0
ARM GAS  C:\Users\seanw\AppData\Local\Temp\ccbivcrf.s 			page 23


 145:../../DaisySP/Source/Effects/pitchshifter.h ****             idx        = (uint8_t)fabsf(transpose);
 339              		.loc 3 145 24 view .LVU69
 340 003a 84ED180A 		vstr.32	s0, [r4, #96]
 148:../../DaisySP/Source/Effects/pitchshifter.h ****             ratio *= (uint8_t)(fabsf(transpose) / 12) + 1;
 341              		.loc 3 148 49 view .LVU70
 342 003e C6EEA57A 		vdiv.f32	s15, s13, s11
 146:../../DaisySP/Source/Effects/pitchshifter.h ****             ratio      = semitone_ratios_[idx % 12];
 343              		.loc 3 146 13 is_stmt 1 view .LVU71
 344              	.LVL7:
 147:../../DaisySP/Source/Effects/pitchshifter.h ****             ratio *= (uint8_t)(fabsf(transpose) / 12) + 1;
 345              		.loc 3 147 13 view .LVU72
 158:../../DaisySP/Source/Effects/pitchshifter.h ****             if(mod_freq_ < 0.0f)
 346              		.loc 3 158 13 is_stmt 0 view .LVU73
 347 0042 9FED295A 		vldr.32	s10, .L18+4
 146:../../DaisySP/Source/Effects/pitchshifter.h ****             ratio      = semitone_ratios_[idx % 12];
 348              		.loc 3 146 24 view .LVU74
 349 0046 FCEEE66A 		vcvt.u32.f32	s13, s13
 350              	.LVL8:
 149:../../DaisySP/Source/Effects/pitchshifter.h ****             {
 351              		.loc 3 149 13 view .LVU75
 352 004a F1EE10FA 		vmrs	APSR_nzcv, FPSCR
 146:../../DaisySP/Source/Effects/pitchshifter.h ****             ratio      = semitone_ratios_[idx % 12];
 353              		.loc 3 146 24 view .LVU76
 354 004e CDED016A 		vstr.32	s13, [sp, #4]	@ int
 147:../../DaisySP/Source/Effects/pitchshifter.h ****             ratio *= (uint8_t)(fabsf(transpose) / 12) + 1;
 355              		.loc 3 147 47 view .LVU77
 356 0052 9DF80430 		ldrb	r3, [sp, #4]	@ zero_extendqisi2
 157:../../DaisySP/Source/Effects/pitchshifter.h ****             if(mod_freq_ < 0.0f)
 357              		.loc 3 157 48 view .LVU78
 358 0056 D4ED086A 		vldr.32	s13, [r4, #32]	@ int
 147:../../DaisySP/Source/Effects/pitchshifter.h ****             ratio *= (uint8_t)(fabsf(transpose) / 12) + 1;
 359              		.loc 3 147 47 view .LVU79
 360 005a A2FB0302 		umull	r0, r2, r2, r3
 361              	.LVL9:
 157:../../DaisySP/Source/Effects/pitchshifter.h ****             if(mod_freq_ < 0.0f)
 362              		.loc 3 157 48 view .LVU80
 363 005e F8EE666A 		vcvt.f32.u32	s13, s13
 147:../../DaisySP/Source/Effects/pitchshifter.h ****             ratio *= (uint8_t)(fabsf(transpose) / 12) + 1;
 364              		.loc 3 147 47 view .LVU81
 365 0062 4FEAD202 		lsr	r2, r2, #3
 366 0066 02EB4202 		add	r2, r2, r2, lsl #1
 148:../../DaisySP/Source/Effects/pitchshifter.h ****             if(transpose > 0.0f)
 367              		.loc 3 148 22 view .LVU82
 368 006a FCEEE77A 		vcvt.u32.f32	s15, s15
 147:../../DaisySP/Source/Effects/pitchshifter.h ****             ratio *= (uint8_t)(fabsf(transpose) / 12) + 1;
 369              		.loc 3 147 47 view .LVU83
 370 006e A3EB8203 		sub	r3, r3, r2, lsl #2
 149:../../DaisySP/Source/Effects/pitchshifter.h ****             {
 371              		.loc 3 149 13 view .LVU84
 372 0072 CCBF     		ite	gt
 373 0074 0122     		movgt	r2, #1
 374 0076 0022     		movle	r2, #0
 147:../../DaisySP/Source/Effects/pitchshifter.h ****             ratio *= (uint8_t)(fabsf(transpose) / 12) + 1;
 375              		.loc 3 147 24 view .LVU85
 376 0078 51FA83F3 		uxtab	r3, r1, r3
 148:../../DaisySP/Source/Effects/pitchshifter.h ****             if(transpose > 0.0f)
 377              		.loc 3 148 22 view .LVU86
ARM GAS  C:\Users\seanw\AppData\Local\Temp\ccbivcrf.s 			page 24


 378 007c CDED017A 		vstr.32	s15, [sp, #4]	@ int
 147:../../DaisySP/Source/Effects/pitchshifter.h ****             ratio *= (uint8_t)(fabsf(transpose) / 12) + 1;
 379              		.loc 3 147 24 view .LVU87
 380 0080 05EB8303 		add	r3, r5, r3, lsl #2
 381 0084 D3ED005A 		vldr.32	s11, [r3]
 382              	.LVL10:
 148:../../DaisySP/Source/Effects/pitchshifter.h ****             if(transpose > 0.0f)
 383              		.loc 3 148 13 is_stmt 1 view .LVU88
 149:../../DaisySP/Source/Effects/pitchshifter.h ****             {
 384              		.loc 3 149 13 view .LVU89
 148:../../DaisySP/Source/Effects/pitchshifter.h ****             if(transpose > 0.0f)
 385              		.loc 3 148 22 is_stmt 0 view .LVU90
 386 0088 9DF80430 		ldrb	r3, [sp, #4]	@ zero_extendqisi2
 149:../../DaisySP/Source/Effects/pitchshifter.h ****             {
 387              		.loc 3 149 13 view .LVU91
 388 008c 84F82C20 		strb	r2, [r4, #44]
 157:../../DaisySP/Source/Effects/pitchshifter.h ****             if(mod_freq_ < 0.0f)
 389              		.loc 3 157 13 is_stmt 1 view .LVU92
 148:../../DaisySP/Source/Effects/pitchshifter.h ****             if(transpose > 0.0f)
 390              		.loc 3 148 55 is_stmt 0 view .LVU93
 391 0090 0133     		adds	r3, r3, #1
 148:../../DaisySP/Source/Effects/pitchshifter.h ****             if(transpose > 0.0f)
 392              		.loc 3 148 19 view .LVU94
 393 0092 07EE903A 		vmov	s15, r3	@ int
 394 0096 F8EEE77A 		vcvt.f32.s32	s15, s15
 157:../../DaisySP/Source/Effects/pitchshifter.h ****             if(mod_freq_ < 0.0f)
 395              		.loc 3 157 33 view .LVU95
 396 009a A5EEA77A 		vfma.f32	s14, s11, s15
 157:../../DaisySP/Source/Effects/pitchshifter.h ****             if(mod_freq_ < 0.0f)
 397              		.loc 3 157 41 view .LVU96
 398 009e 67EE067A 		vmul.f32	s15, s14, s12
 157:../../DaisySP/Source/Effects/pitchshifter.h ****             if(mod_freq_ < 0.0f)
 399              		.loc 3 157 48 view .LVU97
 400 00a2 87EEA60A 		vdiv.f32	s0, s15, s13
 401              		.loc 3 158 13 is_stmt 1 view .LVU98
 402 00a6 B4EEC50A 		vcmpe.f32	s0, s10
 403 00aa F1EE10FA 		vmrs	APSR_nzcv, FPSCR
 404 00ae 13D4     		bmi	.L11
 157:../../DaisySP/Source/Effects/pitchshifter.h ****             if(mod_freq_ < 0.0f)
 405              		.loc 3 157 23 is_stmt 0 view .LVU99
 406 00b0 84ED070A 		vstr.32	s0, [r4, #28]
 407              	.L12:
 159:../../DaisySP/Source/Effects/pitchshifter.h ****             {
 160:../../DaisySP/Source/Effects/pitchshifter.h ****                 mod_freq_ = 0.0f;
 161:../../DaisySP/Source/Effects/pitchshifter.h ****             }
 162:../../DaisySP/Source/Effects/pitchshifter.h ****             phs_[0].SetFreq(mod_freq_);
 408              		.loc 3 162 13 is_stmt 1 view .LVU100
 409              		.loc 3 162 28 is_stmt 0 view .LVU101
 410 00b4 0D48     		ldr	r0, .L18+8
 411 00b6 2844     		add	r0, r0, r5
 412 00b8 FFF7FEFF 		bl	_ZN7daisysp6Phasor7SetFreqEf
 413              	.LVL11:
 163:../../DaisySP/Source/Effects/pitchshifter.h ****             phs_[1].SetFreq(mod_freq_);
 414              		.loc 3 163 13 is_stmt 1 view .LVU102
 415              		.loc 3 163 28 is_stmt 0 view .LVU103
 416 00bc 0C48     		ldr	r0, .L18+12
 417 00be 94ED070A 		vldr.32	s0, [r4, #28]
ARM GAS  C:\Users\seanw\AppData\Local\Temp\ccbivcrf.s 			page 25


 418 00c2 2844     		add	r0, r0, r5
 419 00c4 FFF7FEFF 		bl	_ZN7daisysp6Phasor7SetFreqEf
 420              	.LVL12:
 164:../../DaisySP/Source/Effects/pitchshifter.h ****             if(force_recalc_)
 421              		.loc 3 164 13 is_stmt 1 view .LVU104
 422 00c8 94F82430 		ldrb	r3, [r4, #36]	@ zero_extendqisi2
 423 00cc 13B1     		cbz	r3, .L8
 165:../../DaisySP/Source/Effects/pitchshifter.h ****             {
 166:../../DaisySP/Source/Effects/pitchshifter.h ****                 force_recalc_ = false;
 424              		.loc 3 166 17 view .LVU105
 425              		.loc 3 166 31 is_stmt 0 view .LVU106
 426 00ce 0023     		movs	r3, #0
 427 00d0 84F82430 		strb	r3, [r4, #36]
 428              	.L8:
 167:../../DaisySP/Source/Effects/pitchshifter.h ****             }
 168:../../DaisySP/Source/Effects/pitchshifter.h ****         }
 169:../../DaisySP/Source/Effects/pitchshifter.h ****     }
 429              		.loc 3 169 5 view .LVU107
 430 00d4 03B0     		add	sp, sp, #12
 431              		.cfi_remember_state
 432              		.cfi_def_cfa_offset 12
 433              		@ sp needed
 434 00d6 30BD     		pop	{r4, r5, pc}
 435              	.LVL13:
 436              	.L11:
 437              		.cfi_restore_state
 160:../../DaisySP/Source/Effects/pitchshifter.h ****             }
 438              		.loc 3 160 17 is_stmt 1 view .LVU108
 439 00d8 B0EE450A 		vmov.f32	s0, s10
 160:../../DaisySP/Source/Effects/pitchshifter.h ****             }
 440              		.loc 3 160 27 is_stmt 0 view .LVU109
 441 00dc 84ED075A 		vstr.32	s10, [r4, #28]
 442 00e0 E8E7     		b	.L12
 443              	.L19:
 444 00e2 00BF     		.align	2
 445              	.L18:
 446 00e4 ABAAAAAA 		.word	-1431655765
 447 00e8 00000000 		.word	0
 448 00ec 30000200 		.word	131120
 449 00f0 40000200 		.word	131136
 450              		.cfi_endproc
 451              	.LFE4997:
 453              		.section	.text._ZN7daisysp12PitchShifter7ProcessERf,"axG",%progbits,_ZN7daisysp12PitchShifter7Proc
 454              		.align	1
 455              		.p2align 2,,3
 456              		.weak	_ZN7daisysp12PitchShifter7ProcessERf
 457              		.syntax unified
 458              		.thumb
 459              		.thumb_func
 460              		.fpu fpv5-d16
 462              	_ZN7daisysp12PitchShifter7ProcessERf:
 463              	.LVL14:
 464              	.LFB3058:
  83:../../DaisySP/Source/Effects/pitchshifter.h ****     {
 465              		.loc 3 83 11 is_stmt 1 view -0
 466              		.cfi_startproc
 467              		@ args = 0, pretend = 0, frame = 0
ARM GAS  C:\Users\seanw\AppData\Local\Temp\ccbivcrf.s 			page 26


 468              		@ frame_needed = 0, uses_anonymous_args = 0
  85:../../DaisySP/Source/Effects/pitchshifter.h ****         // First Process delay mod/crossfade
 469              		.loc 3 85 9 view .LVU111
  87:../../DaisySP/Source/Effects/pitchshifter.h ****         fade2 = phs_[1].Process();
 470              		.loc 3 87 9 view .LVU112
  83:../../DaisySP/Source/Effects/pitchshifter.h ****     {
 471              		.loc 3 83 11 is_stmt 0 view .LVU113
 472 0000 F8B5     		push	{r3, r4, r5, r6, r7, lr}
 473              		.cfi_def_cfa_offset 24
 474              		.cfi_offset 3, -24
 475              		.cfi_offset 4, -20
 476              		.cfi_offset 5, -16
 477              		.cfi_offset 6, -12
 478              		.cfi_offset 7, -8
 479              		.cfi_offset 14, -4
 480 0002 0546     		mov	r5, r0
  87:../../DaisySP/Source/Effects/pitchshifter.h ****         fade2 = phs_[1].Process();
 481              		.loc 3 87 32 view .LVU114
 482 0004 A748     		ldr	r0, .L30
 483              	.LVL15:
  83:../../DaisySP/Source/Effects/pitchshifter.h ****     {
 484              		.loc 3 83 11 view .LVU115
 485 0006 0E46     		mov	r6, r1
  87:../../DaisySP/Source/Effects/pitchshifter.h ****         fade2 = phs_[1].Process();
 486              		.loc 3 87 32 view .LVU116
 487 0008 2844     		add	r0, r0, r5
  89:../../DaisySP/Source/Effects/pitchshifter.h ****         {
 488              		.loc 3 89 12 view .LVU117
 489 000a 05F50034 		add	r4, r5, #131072
  83:../../DaisySP/Source/Effects/pitchshifter.h ****     {
 490              		.loc 3 83 11 view .LVU118
 491 000e 2DED088B 		vpush.64	{d8, d9, d10, d11}
 492              		.cfi_def_cfa_offset 56
 493              		.cfi_offset 80, -56
 494              		.cfi_offset 81, -52
 495              		.cfi_offset 82, -48
 496              		.cfi_offset 83, -44
 497              		.cfi_offset 84, -40
 498              		.cfi_offset 85, -36
 499              		.cfi_offset 86, -32
 500              		.cfi_offset 87, -28
  87:../../DaisySP/Source/Effects/pitchshifter.h ****         fade2 = phs_[1].Process();
 501              		.loc 3 87 32 view .LVU119
 502 0012 FFF7FEFF 		bl	_ZN7daisysp6Phasor7ProcessEv
 503              	.LVL16:
  88:../../DaisySP/Source/Effects/pitchshifter.h ****         if(prev_phs_a_ > fade1)
 504              		.loc 3 88 32 view .LVU120
 505 0016 A448     		ldr	r0, .L30+4
  87:../../DaisySP/Source/Effects/pitchshifter.h ****         fade2 = phs_[1].Process();
 506              		.loc 3 87 32 view .LVU121
 507 0018 F0EE409A 		vmov.f32	s19, s0
 508              	.LVL17:
  88:../../DaisySP/Source/Effects/pitchshifter.h ****         if(prev_phs_a_ > fade1)
 509              		.loc 3 88 9 is_stmt 1 view .LVU122
  88:../../DaisySP/Source/Effects/pitchshifter.h ****         if(prev_phs_a_ > fade1)
 510              		.loc 3 88 32 is_stmt 0 view .LVU123
 511 001c 2844     		add	r0, r0, r5
ARM GAS  C:\Users\seanw\AppData\Local\Temp\ccbivcrf.s 			page 27


 512 001e FFF7FEFF 		bl	_ZN7daisysp6Phasor7ProcessEv
 513              	.LVL18:
  89:../../DaisySP/Source/Effects/pitchshifter.h ****         {
 514              		.loc 3 89 9 view .LVU124
 515 0022 D4ED1C7A 		vldr.32	s15, [r4, #112]
  88:../../DaisySP/Source/Effects/pitchshifter.h ****         if(prev_phs_a_ > fade1)
 516              		.loc 3 88 32 view .LVU125
 517 0026 F0EE40AA 		vmov.f32	s21, s0
 518              	.LVL19:
  89:../../DaisySP/Source/Effects/pitchshifter.h ****         {
 519              		.loc 3 89 9 is_stmt 1 view .LVU126
 520 002a F4EEE97A 		vcmpe.f32	s15, s19
 521 002e F1EE10FA 		vmrs	APSR_nzcv, FPSCR
 522 0032 00F3F580 		bgt	.L21
  92:../../DaisySP/Source/Effects/pitchshifter.h ****             mod_coeff_[0]
 523              		.loc 3 92 29 is_stmt 0 view .LVU127
 524 0036 236A     		ldr	r3, [r4, #32]
 103:../../DaisySP/Source/Effects/pitchshifter.h ****         slewed_mod_[1] += mod_coeff_[1] * (mod_b_amt_ - slewed_mod_[1]);
 525              		.loc 3 103 39 view .LVU128
 526 0038 D4ED205A 		vldr.32	s11, [r4, #128]
 103:../../DaisySP/Source/Effects/pitchshifter.h ****         slewed_mod_[1] += mod_coeff_[1] * (mod_b_amt_ - slewed_mod_[1]);
 527              		.loc 3 103 44 view .LVU129
 528 003c 94ED1A7A 		vldr.32	s14, [r4, #104]
 529              	.L22:
  96:../../DaisySP/Source/Effects/pitchshifter.h ****         {
 530              		.loc 3 96 9 is_stmt 1 view .LVU130
 531 0040 D4ED1D7A 		vldr.32	s15, [r4, #116]
 532 0044 F4EEEA7A 		vcmpe.f32	s15, s21
 533 0048 F1EE10FA 		vmrs	APSR_nzcv, FPSCR
 534 004c 00F3A580 		bgt	.L23
 104:../../DaisySP/Source/Effects/pitchshifter.h ****         prev_phs_a_ = fade1;
 535              		.loc 3 104 39 is_stmt 0 view .LVU131
 536 0050 D4ED216A 		vldr.32	s13, [r4, #132]
 104:../../DaisySP/Source/Effects/pitchshifter.h ****         prev_phs_a_ = fade1;
 537              		.loc 3 104 44 view .LVU132
 538 0054 D4ED1B7A 		vldr.32	s15, [r4, #108]
 539              	.L24:
 103:../../DaisySP/Source/Effects/pitchshifter.h ****         slewed_mod_[1] += mod_coeff_[1] * (mod_b_amt_ - slewed_mod_[1]);
 540              		.loc 3 103 9 is_stmt 1 view .LVU133
 103:../../DaisySP/Source/Effects/pitchshifter.h ****         slewed_mod_[1] += mod_coeff_[1] * (mod_b_amt_ - slewed_mod_[1]);
 541              		.loc 3 103 24 is_stmt 0 view .LVU134
 542 0058 D4ED1E8A 		vldr.32	s17, [r4, #120]
 104:../../DaisySP/Source/Effects/pitchshifter.h ****         prev_phs_a_ = fade1;
 543              		.loc 3 104 24 view .LVU135
 544 005c 94ED1F8A 		vldr.32	s16, [r4, #124]
 103:../../DaisySP/Source/Effects/pitchshifter.h ****         slewed_mod_[1] += mod_coeff_[1] * (mod_b_amt_ - slewed_mod_[1]);
 545              		.loc 3 103 55 view .LVU136
 546 0060 37EE687A 		vsub.f32	s14, s14, s17
 107:../../DaisySP/Source/Effects/pitchshifter.h ****         {
 547              		.loc 3 107 9 view .LVU137
 548 0064 94F82C20 		ldrb	r2, [r4, #44]	@ zero_extendqisi2
 104:../../DaisySP/Source/Effects/pitchshifter.h ****         prev_phs_a_ = fade1;
 549              		.loc 3 104 55 view .LVU138
 550 0068 77EEC87A 		vsub.f32	s15, s15, s16
 105:../../DaisySP/Source/Effects/pitchshifter.h ****         prev_phs_b_ = fade2;
 551              		.loc 3 105 21 view .LVU139
 552 006c C4ED1C9A 		vstr.32	s19, [r4, #112]
ARM GAS  C:\Users\seanw\AppData\Local\Temp\ccbivcrf.s 			page 28


 106:../../DaisySP/Source/Effects/pitchshifter.h ****         if(shift_up_)
 553              		.loc 3 106 21 view .LVU140
 554 0070 C4ED1DAA 		vstr.32	s21, [r4, #116]
 103:../../DaisySP/Source/Effects/pitchshifter.h ****         slewed_mod_[1] += mod_coeff_[1] * (mod_b_amt_ - slewed_mod_[1]);
 555              		.loc 3 103 24 view .LVU141
 556 0074 E7EE258A 		vfma.f32	s17, s14, s11
 104:../../DaisySP/Source/Effects/pitchshifter.h ****         prev_phs_a_ = fade1;
 557              		.loc 3 104 24 view .LVU142
 558 0078 A7EEA68A 		vfma.f32	s16, s15, s13
 103:../../DaisySP/Source/Effects/pitchshifter.h ****         slewed_mod_[1] += mod_coeff_[1] * (mod_b_amt_ - slewed_mod_[1]);
 559              		.loc 3 103 24 view .LVU143
 560 007c C4ED1E8A 		vstr.32	s17, [r4, #120]
 104:../../DaisySP/Source/Effects/pitchshifter.h ****         prev_phs_a_ = fade1;
 561              		.loc 3 104 9 is_stmt 1 view .LVU144
 104:../../DaisySP/Source/Effects/pitchshifter.h ****         prev_phs_a_ = fade1;
 562              		.loc 3 104 24 is_stmt 0 view .LVU145
 563 0080 84ED1F8A 		vstr.32	s16, [r4, #124]
 105:../../DaisySP/Source/Effects/pitchshifter.h ****         prev_phs_b_ = fade2;
 564              		.loc 3 105 9 is_stmt 1 view .LVU146
 106:../../DaisySP/Source/Effects/pitchshifter.h ****         if(shift_up_)
 565              		.loc 3 106 9 view .LVU147
 107:../../DaisySP/Source/Effects/pitchshifter.h ****         {
 566              		.loc 3 107 9 view .LVU148
 567 0084 2AB1     		cbz	r2, .L25
 109:../../DaisySP/Source/Effects/pitchshifter.h ****             fade2 = 1.0f - fade2;
 568              		.loc 3 109 13 view .LVU149
 109:../../DaisySP/Source/Effects/pitchshifter.h ****             fade2 = 1.0f - fade2;
 569              		.loc 3 109 19 is_stmt 0 view .LVU150
 570 0086 F7EE007A 		vmov.f32	s15, #1.0e+0
 571 008a 77EEE99A 		vsub.f32	s19, s15, s19
 572              	.LVL20:
 110:../../DaisySP/Source/Effects/pitchshifter.h ****         }
 573              		.loc 3 110 13 is_stmt 1 view .LVU151
 110:../../DaisySP/Source/Effects/pitchshifter.h ****         }
 574              		.loc 3 110 19 is_stmt 0 view .LVU152
 575 008e 77EEEAAA 		vsub.f32	s21, s15, s21
 576              	.LVL21:
 577              	.L25:
 112:../../DaisySP/Source/Effects/pitchshifter.h ****         mod_[1] = fade2 * (del_size_ - 1);
 578              		.loc 3 112 9 is_stmt 1 view .LVU153
 112:../../DaisySP/Source/Effects/pitchshifter.h ****         mod_[1] = fade2 * (del_size_ - 1);
 579              		.loc 3 112 38 is_stmt 0 view .LVU154
 580 0092 013B     		subs	r3, r3, #1
 118:../../DaisySP/Source/Effects/pitchshifter.h ****         gain_[1] = sinf(fade2 * PI_F);
 581              		.loc 3 118 24 view .LVU155
 582 0094 9FED85BA 		vldr.32	s22, .L30+8
 112:../../DaisySP/Source/Effects/pitchshifter.h ****         mod_[1] = fade2 * (del_size_ - 1);
 583              		.loc 3 112 38 view .LVU156
 584 0098 09EE103A 		vmov	s18, r3	@ int
 118:../../DaisySP/Source/Effects/pitchshifter.h ****         gain_[1] = sinf(fade2 * PI_F);
 585              		.loc 3 118 24 view .LVU157
 586 009c 29EE8B0A 		vmul.f32	s0, s19, s22
 112:../../DaisySP/Source/Effects/pitchshifter.h ****         mod_[1] = fade2 * (del_size_ - 1);
 587              		.loc 3 112 25 view .LVU158
 588 00a0 B8EE499A 		vcvt.f32.u32	s18, s18
 589 00a4 69EE299A 		vmul.f32	s19, s18, s19
 590              	.LVL22:
ARM GAS  C:\Users\seanw\AppData\Local\Temp\ccbivcrf.s 			page 29


 113:../../DaisySP/Source/Effects/pitchshifter.h **** #ifdef USE_ARM_DSP
 591              		.loc 3 113 25 view .LVU159
 592 00a8 29EE2A9A 		vmul.f32	s18, s18, s21
 112:../../DaisySP/Source/Effects/pitchshifter.h ****         mod_[1] = fade2 * (del_size_ - 1);
 593              		.loc 3 112 17 view .LVU160
 594 00ac C4ED169A 		vstr.32	s19, [r4, #88]
 113:../../DaisySP/Source/Effects/pitchshifter.h **** #ifdef USE_ARM_DSP
 595              		.loc 3 113 9 is_stmt 1 view .LVU161
 129:../../DaisySP/Source/Effects/pitchshifter.h ****         d_[1].SetDelay(mod_[1] + slewed_mod_[1]);
 596              		.loc 3 129 23 is_stmt 0 view .LVU162
 597 00b0 78EEA98A 		vadd.f32	s17, s17, s19
 113:../../DaisySP/Source/Effects/pitchshifter.h **** #ifdef USE_ARM_DSP
 598              		.loc 3 113 17 view .LVU163
 599 00b4 84ED179A 		vstr.32	s18, [r4, #92]
 118:../../DaisySP/Source/Effects/pitchshifter.h ****         gain_[1] = sinf(fade2 * PI_F);
 600              		.loc 3 118 9 is_stmt 1 view .LVU164
 130:../../DaisySP/Source/Effects/pitchshifter.h ****         val = 0.0f;
 601              		.loc 3 130 23 is_stmt 0 view .LVU165
 602 00b8 38EE098A 		vadd.f32	s16, s16, s18
 118:../../DaisySP/Source/Effects/pitchshifter.h ****         gain_[1] = sinf(fade2 * PI_F);
 603              		.loc 3 118 24 view .LVU166
 604 00bc FFF7FEFF 		bl	sinf
 605              	.LVL23:
 606 00c0 B0EE40AA 		vmov.f32	s20, s0
 119:../../DaisySP/Source/Effects/pitchshifter.h **** #endif
 607              		.loc 3 119 24 view .LVU167
 608 00c4 2AEE8B0A 		vmul.f32	s0, s21, s22
 118:../../DaisySP/Source/Effects/pitchshifter.h ****         gain_[1] = sinf(fade2 * PI_F);
 609              		.loc 3 118 18 view .LVU168
 610 00c8 84ED14AA 		vstr.32	s20, [r4, #80]
 119:../../DaisySP/Source/Effects/pitchshifter.h **** #endif
 611              		.loc 3 119 9 is_stmt 1 view .LVU169
 119:../../DaisySP/Source/Effects/pitchshifter.h **** #endif
 612              		.loc 3 119 24 is_stmt 0 view .LVU170
 613 00cc FFF7FEFF 		bl	sinf
 614              	.LVL24:
 615              	.LBB573:
 616              	.LBB574:
  25:../../DaisySP/Source/Utility/delayline.h ****     /** initializes the delay line by clearing the values within, and setting delay to 1 sample.
  26:../../DaisySP/Source/Utility/delayline.h ****     */
  27:../../DaisySP/Source/Utility/delayline.h ****     void Init() { Reset(); }
  28:../../DaisySP/Source/Utility/delayline.h ****     /** clears buffer, sets write ptr to 0, and delay to 1 sample.
  29:../../DaisySP/Source/Utility/delayline.h ****     */
  30:../../DaisySP/Source/Utility/delayline.h ****     void Reset()
  31:../../DaisySP/Source/Utility/delayline.h ****     {
  32:../../DaisySP/Source/Utility/delayline.h ****         for(size_t i = 0; i < max_size; i++)
  33:../../DaisySP/Source/Utility/delayline.h ****         {
  34:../../DaisySP/Source/Utility/delayline.h ****             line_[i] = T(0);
  35:../../DaisySP/Source/Utility/delayline.h ****         }
  36:../../DaisySP/Source/Utility/delayline.h ****         write_ptr_ = 0;
  37:../../DaisySP/Source/Utility/delayline.h ****         delay_     = 1;
  38:../../DaisySP/Source/Utility/delayline.h ****     }
  39:../../DaisySP/Source/Utility/delayline.h **** 
  40:../../DaisySP/Source/Utility/delayline.h ****     /** sets the delay time in samples
  41:../../DaisySP/Source/Utility/delayline.h ****         If a float is passed in, a fractional component will be calculated for interpolating the de
  42:../../DaisySP/Source/Utility/delayline.h ****     */
  43:../../DaisySP/Source/Utility/delayline.h ****     inline void SetDelay(size_t delay)
ARM GAS  C:\Users\seanw\AppData\Local\Temp\ccbivcrf.s 			page 30


  44:../../DaisySP/Source/Utility/delayline.h ****     {
  45:../../DaisySP/Source/Utility/delayline.h ****         frac_  = 0.0f;
  46:../../DaisySP/Source/Utility/delayline.h ****         delay_ = delay < max_size ? delay : max_size - 1;
  47:../../DaisySP/Source/Utility/delayline.h ****     }
  48:../../DaisySP/Source/Utility/delayline.h **** 
  49:../../DaisySP/Source/Utility/delayline.h ****     /** sets the delay time in samples
  50:../../DaisySP/Source/Utility/delayline.h ****         If a float is passed in, a fractional component will be calculated for interpolating the de
  51:../../DaisySP/Source/Utility/delayline.h ****     */
  52:../../DaisySP/Source/Utility/delayline.h ****     inline void SetDelay(float delay)
  53:../../DaisySP/Source/Utility/delayline.h ****     {
  54:../../DaisySP/Source/Utility/delayline.h ****         int32_t int_delay = static_cast<int32_t>(delay);
 617              		.loc 17 54 17 view .LVU171
 618 00d0 BDEEE87A 		vcvt.s32.f32	s14, s17
 619              	.LBE574:
 620              	.LBE573:
 621              	.LBB580:
 622              	.LBB581:
  55:../../DaisySP/Source/Utility/delayline.h ****         frac_             = delay - static_cast<float>(int_delay);
  56:../../DaisySP/Source/Utility/delayline.h ****         delay_ = static_cast<size_t>(int_delay) < max_size ? int_delay
  57:../../DaisySP/Source/Utility/delayline.h ****                                                            : max_size - 1;
  58:../../DaisySP/Source/Utility/delayline.h ****     }
  59:../../DaisySP/Source/Utility/delayline.h **** 
  60:../../DaisySP/Source/Utility/delayline.h ****     /** writes the sample of type T to the delay line, and advances the write ptr
  61:../../DaisySP/Source/Utility/delayline.h ****     */
  62:../../DaisySP/Source/Utility/delayline.h ****     inline void Write(const T sample)
  63:../../DaisySP/Source/Utility/delayline.h ****     {
  64:../../DaisySP/Source/Utility/delayline.h ****         line_[write_ptr_] = sample;
 623              		.loc 17 64 15 view .LVU172
 624 00d4 6A68     		ldr	r2, [r5, #4]
  65:../../DaisySP/Source/Utility/delayline.h ****         write_ptr_        = (write_ptr_ - 1 + max_size) % max_size;
 625              		.loc 17 65 45 view .LVU173
 626 00d6 43F6FF73 		movw	r3, #16383
 627              	.LBE581:
 628              	.LBE580:
 629              	.LBB586:
 630              	.LBB587:
  54:../../DaisySP/Source/Utility/delayline.h ****         frac_             = delay - static_cast<float>(int_delay);
 631              		.loc 17 54 17 view .LVU174
 632 00da FDEEC87A 		vcvt.s32.f32	s15, s16
 633              	.LBE587:
 634              	.LBE586:
 119:../../DaisySP/Source/Effects/pitchshifter.h **** #endif
 635              		.loc 3 119 18 view .LVU175
 636 00de 84ED150A 		vstr.32	s0, [r4, #84]
 123:../../DaisySP/Source/Effects/pitchshifter.h ****         d_[1].Write(in);
 637              		.loc 3 123 9 is_stmt 1 view .LVU176
 638              	.LBB595:
 639              	.LBB582:
  64:../../DaisySP/Source/Utility/delayline.h ****         write_ptr_        = (write_ptr_ - 1 + max_size) % max_size;
 640              		.loc 17 64 27 is_stmt 0 view .LVU177
 641 00e2 05EB8201 		add	r1, r5, r2, lsl #2
 642              	.LBE582:
 643              	.LBE595:
 123:../../DaisySP/Source/Effects/pitchshifter.h ****         d_[1].Write(in);
 644              		.loc 3 123 20 view .LVU178
 645 00e6 D6F800C0 		ldr	ip, [r6]	@ float
 646              	.LVL25:
ARM GAS  C:\Users\seanw\AppData\Local\Temp\ccbivcrf.s 			page 31


 647              	.LBB596:
 648              	.LBI580:
  62:../../DaisySP/Source/Utility/delayline.h ****     {
 649              		.loc 17 62 17 is_stmt 1 view .LVU179
 650              	.LBE596:
 651              	.LBB597:
 652              	.LBB575:
  56:../../DaisySP/Source/Utility/delayline.h ****                                                            : max_size - 1;
 653              		.loc 17 56 60 is_stmt 0 view .LVU180
 654 00ea 17EE104A 		vmov	r4, s14	@ int
 655              	.LBE575:
 656              	.LBE597:
 657              	.LBB598:
 658              	.LBB583:
 659              		.loc 17 65 45 view .LVU181
 660 00ee 1A44     		add	r2, r2, r3
  64:../../DaisySP/Source/Utility/delayline.h ****         write_ptr_        = (write_ptr_ - 1 + max_size) % max_size;
 661              		.loc 17 64 27 view .LVU182
 662 00f0 C1F80CC0 		str	ip, [r1, #12]	@ float
 663              	.LBE583:
 664              	.LBE598:
 665              	.LBB599:
 666              	.LBB588:
  56:../../DaisySP/Source/Utility/delayline.h ****                                                            : max_size - 1;
 667              		.loc 17 56 60 view .LVU183
 668 00f4 17EE900A 		vmov	r0, s15	@ int
 669              	.LBE588:
 670              	.LBE599:
 671              	.LBB600:
 672              	.LBB601:
  64:../../DaisySP/Source/Utility/delayline.h ****         write_ptr_        = (write_ptr_ - 1 + max_size) % max_size;
 673              		.loc 17 64 15 view .LVU184
 674 00f8 05F58031 		add	r1, r5, #65536
 675              	.LBE601:
 676              	.LBE600:
 677              	.LBB606:
 678              	.LBB576:
  56:../../DaisySP/Source/Utility/delayline.h ****                                                            : max_size - 1;
 679              		.loc 17 56 60 view .LVU185
 680 00fc 9C42     		cmp	r4, r3
 681              	.LBE576:
 682              	.LBE606:
 683              	.LBB607:
 684              	.LBB584:
 685              		.loc 17 65 57 view .LVU186
 686 00fe C2F30D02 		ubfx	r2, r2, #0, #14
 687              	.LBE584:
 688              	.LBE607:
 689              	.LBB608:
 690              	.LBB577:
  55:../../DaisySP/Source/Utility/delayline.h ****         delay_ = static_cast<size_t>(int_delay) < max_size ? int_delay
 691              		.loc 17 55 37 view .LVU187
 692 0102 F8EEC75A 		vcvt.f32.s32	s11, s14
  56:../../DaisySP/Source/Utility/delayline.h ****                                                            : max_size - 1;
 693              		.loc 17 56 60 view .LVU188
 694 0106 28BF     		it	cs
 695 0108 1C46     		movcs	r4, r3
ARM GAS  C:\Users\seanw\AppData\Local\Temp\ccbivcrf.s 			page 32


 696              	.LBE577:
 697              	.LBE608:
 698              	.LBB609:
 699              	.LBB589:
 700 010a 9842     		cmp	r0, r3
 701              	.LBE589:
 702              	.LBE609:
 703              	.LBB610:
 704              	.LBB585:
 705              		.loc 17 65 27 view .LVU189
 706 010c 6A60     		str	r2, [r5, #4]
 707              	.LVL26:
 708              		.loc 17 65 27 view .LVU190
 709              	.LBE585:
 710              	.LBE610:
 124:../../DaisySP/Source/Effects/pitchshifter.h ****         // Modulate Delay Lines
 711              		.loc 3 124 9 is_stmt 1 view .LVU191
 712              	.LBB611:
 713              	.LBI600:
  62:../../DaisySP/Source/Utility/delayline.h ****     {
 714              		.loc 17 62 17 view .LVU192
 715              	.LBE611:
 716              	.LBB612:
 717              	.LBB590:
  55:../../DaisySP/Source/Utility/delayline.h ****         delay_ = static_cast<size_t>(int_delay) < max_size ? int_delay
 718              		.loc 17 55 37 is_stmt 0 view .LVU193
 719 010e B8EEE76A 		vcvt.f32.s32	s12, s15
 720              	.LBE590:
 721              	.LBE612:
 722              	.LBB613:
 723              	.LBB602:
  64:../../DaisySP/Source/Utility/delayline.h ****         write_ptr_        = (write_ptr_ - 1 + max_size) % max_size;
 724              		.loc 17 64 15 view .LVU194
 725 0112 0E69     		ldr	r6, [r1, #16]
 726              	.LVL27:
  64:../../DaisySP/Source/Utility/delayline.h ****         write_ptr_        = (write_ptr_ - 1 + max_size) % max_size;
 727              		.loc 17 64 15 view .LVU195
 728              	.LBE602:
 729              	.LBE613:
 730              	.LBB614:
 731              	.LBB591:
  56:../../DaisySP/Source/Utility/delayline.h ****                                                            : max_size - 1;
 732              		.loc 17 56 60 view .LVU196
 733 0114 28BF     		it	cs
 734 0116 1846     		movcs	r0, r3
 735              	.LBE591:
 736              	.LBE614:
 737              	.LBB615:
 738              	.LBB578:
  55:../../DaisySP/Source/Utility/delayline.h ****         delay_ = static_cast<size_t>(int_delay) < max_size ? int_delay
 739              		.loc 17 55 35 view .LVU197
 740 0118 78EEE58A 		vsub.f32	s17, s17, s11
 741              	.LBE578:
 742              	.LBE615:
 743              	.LBB616:
 744              	.LBB617:
  66:../../DaisySP/Source/Utility/delayline.h ****     }
ARM GAS  C:\Users\seanw\AppData\Local\Temp\ccbivcrf.s 			page 33


  67:../../DaisySP/Source/Utility/delayline.h **** 
  68:../../DaisySP/Source/Utility/delayline.h ****     /** returns the next sample of type T in the delay line, interpolated if necessary.
  69:../../DaisySP/Source/Utility/delayline.h ****     */
  70:../../DaisySP/Source/Utility/delayline.h ****     inline const T Read() const
  71:../../DaisySP/Source/Utility/delayline.h ****     {
  72:../../DaisySP/Source/Utility/delayline.h ****         T a = line_[(write_ptr_ + delay_) % max_size];
 745              		.loc 17 72 33 view .LVU198
 746 011c 2244     		add	r2, r2, r4
 747              	.LBE617:
 748              	.LBE616:
 749              	.LBB624:
 750              	.LBB603:
  65:../../DaisySP/Source/Utility/delayline.h ****     }
 751              		.loc 17 65 45 view .LVU199
 752 011e 3344     		add	r3, r3, r6
  64:../../DaisySP/Source/Utility/delayline.h ****         write_ptr_        = (write_ptr_ - 1 + max_size) % max_size;
 753              		.loc 17 64 27 view .LVU200
 754 0120 01EB8606 		add	r6, r1, r6, lsl #2
 755              	.LBE603:
 756              	.LBE624:
 757              	.LBB625:
 758              	.LBB592:
  55:../../DaisySP/Source/Utility/delayline.h ****         delay_ = static_cast<size_t>(int_delay) < max_size ? int_delay
 759              		.loc 17 55 35 view .LVU201
 760 0124 38EE468A 		vsub.f32	s16, s16, s12
 761              	.LBE592:
 762              	.LBE625:
 763              	.LBB626:
 764              	.LBB604:
  65:../../DaisySP/Source/Utility/delayline.h ****     }
 765              		.loc 17 65 57 view .LVU202
 766 0128 C3F30D03 		ubfx	r3, r3, #0, #14
  64:../../DaisySP/Source/Utility/delayline.h ****         write_ptr_        = (write_ptr_ - 1 + max_size) % max_size;
 767              		.loc 17 64 27 view .LVU203
 768 012c C6F818C0 		str	ip, [r6, #24]	@ float
 769              	.LBE604:
 770              	.LBE626:
 119:../../DaisySP/Source/Effects/pitchshifter.h **** #endif
 771              		.loc 3 119 24 view .LVU204
 772 0130 F0EE406A 		vmov.f32	s13, s0
 132:../../DaisySP/Source/Effects/pitchshifter.h ****         val += (d_[1].Read() * gain_[1]);
 773              		.loc 3 132 13 view .LVU205
 774 0134 9FED5E0A 		vldr.32	s0, .L30+12
 775              	.LBB627:
 776              	.LBB605:
  65:../../DaisySP/Source/Utility/delayline.h ****     }
 777              		.loc 17 65 27 view .LVU206
 778 0138 0B61     		str	r3, [r1, #16]
 779              	.LVL28:
  65:../../DaisySP/Source/Utility/delayline.h ****     }
 780              		.loc 17 65 27 view .LVU207
 781              	.LBE605:
 782              	.LBE627:
 127:../../DaisySP/Source/Effects/pitchshifter.h ****         d_[1].SetDelay(mod_[1] + mod_b_amt_);
 783              		.loc 3 127 9 is_stmt 1 view .LVU208
 128:../../DaisySP/Source/Effects/pitchshifter.h ****         d_[0].SetDelay(mod_[0] + slewed_mod_[0]);
 784              		.loc 3 128 9 view .LVU209
ARM GAS  C:\Users\seanw\AppData\Local\Temp\ccbivcrf.s 			page 34


 129:../../DaisySP/Source/Effects/pitchshifter.h ****         d_[1].SetDelay(mod_[1] + slewed_mod_[1]);
 785              		.loc 3 129 9 view .LVU210
 786              	.LBB628:
 787              	.LBI573:
  52:../../DaisySP/Source/Utility/delayline.h ****     {
 788              		.loc 17 52 17 view .LVU211
  52:../../DaisySP/Source/Utility/delayline.h ****     {
 789              		.loc 17 52 17 is_stmt 0 view .LVU212
 790              	.LBE628:
 791              	.LBB629:
 792              	.LBB630:
 793              		.loc 17 72 33 view .LVU213
 794 013a 0344     		add	r3, r3, r0
 795              	.LBE630:
 796              	.LBE629:
 797              	.LBB636:
 798              	.LBB579:
  55:../../DaisySP/Source/Utility/delayline.h ****         delay_ = static_cast<size_t>(int_delay) < max_size ? int_delay
 799              		.loc 17 55 27 view .LVU214
 800 013c C5ED008A 		vstr.32	s17, [r5]
  56:../../DaisySP/Source/Utility/delayline.h ****                                                            : max_size - 1;
 801              		.loc 17 56 16 view .LVU215
 802 0140 AC60     		str	r4, [r5, #8]
 803              	.LVL29:
  56:../../DaisySP/Source/Utility/delayline.h ****                                                            : max_size - 1;
 804              		.loc 17 56 16 view .LVU216
 805              	.LBE579:
 806              	.LBE636:
 130:../../DaisySP/Source/Effects/pitchshifter.h ****         val = 0.0f;
 807              		.loc 3 130 9 is_stmt 1 view .LVU217
 808              	.LBB637:
 809              	.LBI586:
  52:../../DaisySP/Source/Utility/delayline.h ****     {
 810              		.loc 17 52 17 view .LVU218
 811              	.LBB593:
  56:../../DaisySP/Source/Utility/delayline.h ****                                                            : max_size - 1;
 812              		.loc 17 56 16 is_stmt 0 view .LVU219
 813 0142 4861     		str	r0, [r1, #20]
 814              	.LVL30:
  56:../../DaisySP/Source/Utility/delayline.h ****                                                            : max_size - 1;
 815              		.loc 17 56 16 view .LVU220
 816              	.LBE593:
 817              	.LBE637:
 131:../../DaisySP/Source/Effects/pitchshifter.h ****         val += (d_[0].Read() * gain_[0]);
 818              		.loc 3 131 9 is_stmt 1 view .LVU221
 132:../../DaisySP/Source/Effects/pitchshifter.h ****         val += (d_[1].Read() * gain_[1]);
 819              		.loc 3 132 9 view .LVU222
 820              	.LBB638:
 821              	.LBI616:
  70:../../DaisySP/Source/Utility/delayline.h ****     {
 822              		.loc 17 70 20 view .LVU223
 823              	.LBB618:
 824              		.loc 17 72 43 is_stmt 0 view .LVU224
 825 0144 C2F30D00 		ubfx	r0, r2, #0, #14
  73:../../DaisySP/Source/Utility/delayline.h ****         T b = line_[(write_ptr_ + delay_ + 1) % max_size];
 826              		.loc 17 73 42 view .LVU225
 827 0148 0132     		adds	r2, r2, #1
ARM GAS  C:\Users\seanw\AppData\Local\Temp\ccbivcrf.s 			page 35


 828              	.LBE618:
 829              	.LBE638:
 830              	.LBB639:
 831              	.LBB594:
  55:../../DaisySP/Source/Utility/delayline.h ****         delay_ = static_cast<size_t>(int_delay) < max_size ? int_delay
 832              		.loc 17 55 27 view .LVU226
 833 014a 81ED038A 		vstr.32	s16, [r1, #12]
 834              	.LBE594:
 835              	.LBE639:
 836              	.LBB640:
 837              	.LBB619:
  72:../../DaisySP/Source/Utility/delayline.h ****         T b = line_[(write_ptr_ + delay_ + 1) % max_size];
 838              		.loc 17 72 11 view .LVU227
 839 014e 05EB8000 		add	r0, r5, r0, lsl #2
 840              		.loc 17 73 47 view .LVU228
 841 0152 C2F30D02 		ubfx	r2, r2, #0, #14
  72:../../DaisySP/Source/Utility/delayline.h ****         T b = line_[(write_ptr_ + delay_ + 1) % max_size];
 842              		.loc 17 72 11 view .LVU229
 843 0156 90ED037A 		vldr.32	s14, [r0, #12]
 844              	.LVL31:
  72:../../DaisySP/Source/Utility/delayline.h ****         T b = line_[(write_ptr_ + delay_ + 1) % max_size];
 845              		.loc 17 72 11 view .LVU230
 846              	.LBE619:
 847              	.LBE640:
 848              	.LBB641:
 849              	.LBB631:
 850              		.loc 17 73 42 view .LVU231
 851 015a 581C     		adds	r0, r3, #1
 852              	.LBE631:
 853              	.LBE641:
 854              	.LBB642:
 855              	.LBB620:
 856              		.loc 17 73 11 view .LVU232
 857 015c 05EB8202 		add	r2, r5, r2, lsl #2
 858              	.LBE620:
 859              	.LBE642:
 860              	.LBB643:
 861              	.LBB632:
  72:../../DaisySP/Source/Utility/delayline.h ****         T b = line_[(write_ptr_ + delay_ + 1) % max_size];
 862              		.loc 17 72 43 view .LVU233
 863 0160 C3F30D03 		ubfx	r3, r3, #0, #14
 864              	.LBE632:
 865              	.LBE643:
 866              	.LBB644:
 867              	.LBB621:
  74:../../DaisySP/Source/Utility/delayline.h ****         return a + (b - a) * frac_;
 868              		.loc 17 74 23 view .LVU234
 869 0164 92ED036A 		vldr.32	s12, [r2, #12]
 870              	.LBE621:
 871              	.LBE644:
 872              	.LBB645:
 873              	.LBB633:
  73:../../DaisySP/Source/Utility/delayline.h ****         return a + (b - a) * frac_;
 874              		.loc 17 73 47 view .LVU235
 875 0168 C0F30D02 		ubfx	r2, r0, #0, #14
  72:../../DaisySP/Source/Utility/delayline.h ****         T b = line_[(write_ptr_ + delay_ + 1) % max_size];
 876              		.loc 17 72 11 view .LVU236
ARM GAS  C:\Users\seanw\AppData\Local\Temp\ccbivcrf.s 			page 36


 877 016c 01EB8303 		add	r3, r1, r3, lsl #2
 878              	.LBE633:
 879              	.LBE645:
 880              	.LBB646:
 881              	.LBB622:
 882              		.loc 17 74 23 view .LVU237
 883 0170 36EE476A 		vsub.f32	s12, s12, s14
 884              	.LBE622:
 885              	.LBE646:
 886              	.LBB647:
 887              	.LBB634:
  73:../../DaisySP/Source/Utility/delayline.h ****         return a + (b - a) * frac_;
 888              		.loc 17 73 11 view .LVU238
 889 0174 01EB8202 		add	r2, r1, r2, lsl #2
  72:../../DaisySP/Source/Utility/delayline.h ****         T b = line_[(write_ptr_ + delay_ + 1) % max_size];
 890              		.loc 17 72 11 view .LVU239
 891 0178 D3ED067A 		vldr.32	s15, [r3, #24]
 892              	.LBE634:
 893              	.LBE647:
 894              	.LBB648:
 895              	.LBB623:
 896              		.loc 17 74 30 view .LVU240
 897 017c A8EE867A 		vfma.f32	s14, s17, s12
 898              	.LVL32:
 899              		.loc 17 74 30 view .LVU241
 900              	.LBE623:
 901              	.LBE648:
 902              	.LBB649:
 903              	.LBB635:
 904              		.loc 17 74 23 view .LVU242
 905 0180 92ED066A 		vldr.32	s12, [r2, #24]
 906 0184 36EE676A 		vsub.f32	s12, s12, s15
 907              		.loc 17 74 30 view .LVU243
 908 0188 E8EE067A 		vfma.f32	s15, s16, s12
 909              	.LBE635:
 910              	.LBE649:
 132:../../DaisySP/Source/Effects/pitchshifter.h ****         val += (d_[1].Read() * gain_[1]);
 911              		.loc 3 132 13 view .LVU244
 912 018c AAEE070A 		vfma.f32	s0, s20, s14
 913              	.LVL33:
 133:../../DaisySP/Source/Effects/pitchshifter.h ****         return val;
 914              		.loc 3 133 9 is_stmt 1 view .LVU245
 915              	.LBB650:
 916              	.LBI629:
  70:../../DaisySP/Source/Utility/delayline.h ****     {
 917              		.loc 17 70 20 view .LVU246
  70:../../DaisySP/Source/Utility/delayline.h ****     {
 918              		.loc 17 70 20 is_stmt 0 view .LVU247
 919              	.LBE650:
 134:../../DaisySP/Source/Effects/pitchshifter.h ****     }
 920              		.loc 3 134 9 is_stmt 1 view .LVU248
 135:../../DaisySP/Source/Effects/pitchshifter.h **** 
 921              		.loc 3 135 5 is_stmt 0 view .LVU249
 922 0190 BDEC088B 		vldm	sp!, {d8-d11}
 923              		.cfi_remember_state
 924              		.cfi_restore 86
 925              		.cfi_restore 87
ARM GAS  C:\Users\seanw\AppData\Local\Temp\ccbivcrf.s 			page 37


 926              		.cfi_restore 84
 927              		.cfi_restore 85
 928              		.cfi_restore 82
 929              		.cfi_restore 83
 930              		.cfi_restore 80
 931              		.cfi_restore 81
 932              		.cfi_def_cfa_offset 24
 933 0194 A6EEA70A 		vfma.f32	s0, s13, s15
 934              	.LVL34:
 135:../../DaisySP/Source/Effects/pitchshifter.h **** 
 935              		.loc 3 135 5 view .LVU250
 936 0198 F8BD     		pop	{r3, r4, r5, r6, r7, pc}
 937              	.LVL35:
 938              	.L23:
 939              		.cfi_restore_state
  98:../../DaisySP/Source/Effects/pitchshifter.h ****                          * (del_size_ * 0.5f);
 940              		.loc 3 98 13 is_stmt 1 view .LVU251
 941              	.LBB651:
 942              	.LBI651:
  31:../../DaisySP/Source/Effects/pitchshifter.h **** {
 943              		.loc 3 31 17 view .LVU252
 944              	.LBB652:
  33:../../DaisySP/Source/Effects/pitchshifter.h ****     seed                 = hash_xs32(seed);
 945              		.loc 3 33 5 view .LVU253
  34:../../DaisySP/Source/Effects/pitchshifter.h ****     return seed;
 946              		.loc 3 34 5 view .LVU254
  34:../../DaisySP/Source/Effects/pitchshifter.h ****     return seed;
 947              		.loc 3 34 37 is_stmt 0 view .LVU255
 948 019a 464F     		ldr	r7, .L30+16
 949              	.LBE652:
 950              	.LBE651:
  98:../../DaisySP/Source/Effects/pitchshifter.h ****                          * (del_size_ * 0.5f);
 951              		.loc 3 98 51 view .LVU256
 952 019c 4649     		ldr	r1, .L30+20
 953              	.LBB665:
 954              	.LBB661:
  34:../../DaisySP/Source/Effects/pitchshifter.h ****     return seed;
 955              		.loc 3 34 37 view .LVU257
 956 019e 3A68     		ldr	r2, [r7]
 957              	.LVL36:
 958              	.LBB653:
 959              	.LBI653:
  23:../../DaisySP/Source/Effects/pitchshifter.h **** {
 960              		.loc 3 23 24 is_stmt 1 view .LVU258
 961              	.LBB654:
  25:../../DaisySP/Source/Effects/pitchshifter.h ****     x ^= x >> 17;
 962              		.loc 3 25 5 view .LVU259
 963              	.LBE654:
 964              	.LBE653:
 965              	.LBE661:
 966              	.LBE665:
  98:../../DaisySP/Source/Effects/pitchshifter.h ****                          * (del_size_ * 0.5f);
 967              		.loc 3 98 58 is_stmt 0 view .LVU260
 968 01a0 9FED465A 		vldr.32	s10, .L30+24
 969              	.LBB666:
 970              	.LBB662:
 971              	.LBB658:
ARM GAS  C:\Users\seanw\AppData\Local\Temp\ccbivcrf.s 			page 38


 972              	.LBB655:
  25:../../DaisySP/Source/Effects/pitchshifter.h ****     x ^= x >> 17;
 973              		.loc 3 25 7 view .LVU261
 974 01a4 82EA4232 		eor	r2, r2, r2, lsl #13
 975              	.LVL37:
  26:../../DaisySP/Source/Effects/pitchshifter.h ****     x ^= x << 5;
 976              		.loc 3 26 5 is_stmt 1 view .LVU262
 977              	.LBE655:
 978              	.LBE658:
 979              	.LBE662:
 980              	.LBE666:
  98:../../DaisySP/Source/Effects/pitchshifter.h ****                          * (del_size_ * 0.5f);
 981              		.loc 3 98 31 is_stmt 0 view .LVU263
 982 01a8 D4ED193A 		vldr.32	s7, [r4, #100]
 101:../../DaisySP/Source/Effects/pitchshifter.h ****         }
 983              		.loc 3 101 27 view .LVU264
 984 01ac 9FED446A 		vldr.32	s12, .L30+28
 985              	.LBB667:
 986              	.LBB663:
 987              	.LBB659:
 988              	.LBB656:
  26:../../DaisySP/Source/Effects/pitchshifter.h ****     x ^= x << 5;
 989              		.loc 3 26 7 view .LVU265
 990 01b0 82EA5242 		eor	r2, r2, r2, lsr #17
 991              	.LVL38:
  27:../../DaisySP/Source/Effects/pitchshifter.h ****     return x;
 992              		.loc 3 27 5 is_stmt 1 view .LVU266
 993              	.LBE656:
 994              	.LBE659:
 995              	.LBE663:
 996              	.LBE667:
 101:../../DaisySP/Source/Effects/pitchshifter.h ****         }
 997              		.loc 3 101 27 is_stmt 0 view .LVU267
 998 01b4 DFED434A 		vldr.32	s9, .L30+32
 999              	.LBB668:
 1000              	.LBB664:
 1001              	.LBB660:
 1002              	.LBB657:
  27:../../DaisySP/Source/Effects/pitchshifter.h ****     return x;
 1003              		.loc 3 27 7 view .LVU268
 1004 01b8 82EA4212 		eor	r2, r2, r2, lsl #5
 1005              	.LVL39:
  28:../../DaisySP/Source/Effects/pitchshifter.h **** }
 1006              		.loc 3 28 5 is_stmt 1 view .LVU269
  28:../../DaisySP/Source/Effects/pitchshifter.h **** }
 1007              		.loc 3 28 5 is_stmt 0 view .LVU270
 1008              	.LBE657:
 1009              	.LBE660:
  35:../../DaisySP/Source/Effects/pitchshifter.h **** }
 1010              		.loc 3 35 5 is_stmt 1 view .LVU271
 1011              	.LBE664:
 1012              	.LBE668:
 1013              	.LBB669:
 1014              	.LBB670:
 1015              	.LBB671:
 1016              	.LBB672:
  25:../../DaisySP/Source/Effects/pitchshifter.h ****     x ^= x >> 17;
ARM GAS  C:\Users\seanw\AppData\Local\Temp\ccbivcrf.s 			page 39


 1017              		.loc 3 25 7 is_stmt 0 view .LVU272
 1018 01bc 82EA4230 		eor	r0, r2, r2, lsl #13
  26:../../DaisySP/Source/Effects/pitchshifter.h ****     x ^= x << 5;
 1019              		.loc 3 26 7 view .LVU273
 1020 01c0 80EA5040 		eor	r0, r0, r0, lsr #17
  27:../../DaisySP/Source/Effects/pitchshifter.h ****     return x;
 1021              		.loc 3 27 7 view .LVU274
 1022 01c4 80EA4010 		eor	r0, r0, r0, lsl #5
 1023              	.LBE672:
 1024              	.LBE671:
  34:../../DaisySP/Source/Effects/pitchshifter.h ****     return seed;
 1025              		.loc 3 34 26 view .LVU275
 1026 01c8 3860     		str	r0, [r7]
 1027              	.LBE670:
 1028              	.LBE669:
  98:../../DaisySP/Source/Effects/pitchshifter.h ****                          * (del_size_ * 0.5f);
 1029              		.loc 3 98 51 view .LVU276
 1030 01ca A1FB027C 		umull	r7, ip, r1, r2
 101:../../DaisySP/Source/Effects/pitchshifter.h ****         }
 1031              		.loc 3 101 48 view .LVU277
 1032 01ce A1FB0071 		umull	r7, r1, r1, r0
  98:../../DaisySP/Source/Effects/pitchshifter.h ****                          * (del_size_ * 0.5f);
 1033              		.loc 3 98 51 view .LVU278
 1034 01d2 4FEADC1C 		lsr	ip, ip, #7
 101:../../DaisySP/Source/Effects/pitchshifter.h ****         }
 1035              		.loc 3 101 48 view .LVU279
 1036 01d6 C909     		lsrs	r1, r1, #7
  98:../../DaisySP/Source/Effects/pitchshifter.h ****                          * (del_size_ * 0.5f);
 1037              		.loc 3 98 51 view .LVU280
 1038 01d8 CCEB0C2C 		rsb	ip, ip, ip, lsl #8
 101:../../DaisySP/Source/Effects/pitchshifter.h ****         }
 1039              		.loc 3 101 48 view .LVU281
 1040 01dc C1EB0121 		rsb	r1, r1, r1, lsl #8
  98:../../DaisySP/Source/Effects/pitchshifter.h ****                          * (del_size_ * 0.5f);
 1041              		.loc 3 98 51 view .LVU282
 1042 01e0 A2EB0C02 		sub	r2, r2, ip
 101:../../DaisySP/Source/Effects/pitchshifter.h ****         }
 1043              		.loc 3 101 48 view .LVU283
 1044 01e4 411A     		subs	r1, r0, r1
  98:../../DaisySP/Source/Effects/pitchshifter.h ****                          * (del_size_ * 0.5f);
 1045              		.loc 3 98 34 view .LVU284
 1046 01e6 07EE902A 		vmov	s15, r2	@ int
 1047 01ea F8EEE76A 		vcvt.f32.s32	s13, s15
  98:../../DaisySP/Source/Effects/pitchshifter.h ****                          * (del_size_ * 0.5f);
 1048              		.loc 3 98 58 view .LVU285
 1049 01ee C6EE857A 		vdiv.f32	s15, s13, s10
 101:../../DaisySP/Source/Effects/pitchshifter.h ****         }
 1050              		.loc 3 101 31 view .LVU286
 1051 01f2 06EE901A 		vmov	s13, r1	@ int
 1052 01f6 F8EEE66A 		vcvt.f32.s32	s13, s13
 101:../../DaisySP/Source/Effects/pitchshifter.h ****         }
 1053              		.loc 3 101 55 view .LVU287
 1054 01fa 86EE854A 		vdiv.f32	s8, s13, s10
  99:../../DaisySP/Source/Effects/pitchshifter.h ****             mod_coeff_[1]
 1055              		.loc 3 99 26 view .LVU288
 1056 01fe 06EE903A 		vmov	s13, r3	@ int
 1057 0202 FBEEEF6A 		vcvt.f32.u32	s13, s13, #1
ARM GAS  C:\Users\seanw\AppData\Local\Temp\ccbivcrf.s 			page 40


  98:../../DaisySP/Source/Effects/pitchshifter.h ****                          * (del_size_ * 0.5f);
 1058              		.loc 3 98 31 view .LVU289
 1059 0206 67EEA37A 		vmul.f32	s15, s15, s7
  99:../../DaisySP/Source/Effects/pitchshifter.h ****             mod_coeff_[1]
 1060              		.loc 3 99 26 view .LVU290
 1061 020a 67EEA67A 		vmul.f32	s15, s15, s13
 101:../../DaisySP/Source/Effects/pitchshifter.h ****         }
 1062              		.loc 3 101 27 view .LVU291
 1063 020e F0EE466A 		vmov.f32	s13, s12
  98:../../DaisySP/Source/Effects/pitchshifter.h ****                          * (del_size_ * 0.5f);
 1064              		.loc 3 98 24 view .LVU292
 1065 0212 C4ED1B7A 		vstr.32	s15, [r4, #108]
 100:../../DaisySP/Source/Effects/pitchshifter.h ****                 = 0.0002f + (((float)(myrand() % 255) / 255.0f) * 0.001f);
 1066              		.loc 3 100 13 is_stmt 1 view .LVU293
 1067              	.LBB676:
 1068              	.LBI669:
  31:../../DaisySP/Source/Effects/pitchshifter.h **** {
 1069              		.loc 3 31 17 view .LVU294
 1070              	.LBB675:
  33:../../DaisySP/Source/Effects/pitchshifter.h ****     seed                 = hash_xs32(seed);
 1071              		.loc 3 33 5 view .LVU295
  34:../../DaisySP/Source/Effects/pitchshifter.h ****     return seed;
 1072              		.loc 3 34 5 view .LVU296
 1073              	.LVL40:
 1074              	.LBB674:
 1075              	.LBI671:
  23:../../DaisySP/Source/Effects/pitchshifter.h **** {
 1076              		.loc 3 23 24 view .LVU297
 1077              	.LBB673:
  25:../../DaisySP/Source/Effects/pitchshifter.h ****     x ^= x >> 17;
 1078              		.loc 3 25 5 view .LVU298
  26:../../DaisySP/Source/Effects/pitchshifter.h ****     x ^= x << 5;
 1079              		.loc 3 26 5 view .LVU299
  27:../../DaisySP/Source/Effects/pitchshifter.h ****     return x;
 1080              		.loc 3 27 5 view .LVU300
  28:../../DaisySP/Source/Effects/pitchshifter.h **** }
 1081              		.loc 3 28 5 view .LVU301
  28:../../DaisySP/Source/Effects/pitchshifter.h **** }
 1082              		.loc 3 28 5 is_stmt 0 view .LVU302
 1083              	.LBE673:
 1084              	.LBE674:
  35:../../DaisySP/Source/Effects/pitchshifter.h **** }
 1085              		.loc 3 35 5 is_stmt 1 view .LVU303
 1086              	.LBE675:
 1087              	.LBE676:
 101:../../DaisySP/Source/Effects/pitchshifter.h ****         }
 1088              		.loc 3 101 27 is_stmt 0 view .LVU304
 1089 0216 E4EE246A 		vfma.f32	s13, s8, s9
 101:../../DaisySP/Source/Effects/pitchshifter.h ****         }
 1090              		.loc 3 101 17 view .LVU305
 1091 021a C4ED216A 		vstr.32	s13, [r4, #132]
 1092 021e 1BE7     		b	.L24
 1093              	.L21:
  91:../../DaisySP/Source/Effects/pitchshifter.h ****                          * (del_size_ * 0.5f);
 1094              		.loc 3 91 13 is_stmt 1 view .LVU306
 1095              	.LBB677:
 1096              	.LBI677:
ARM GAS  C:\Users\seanw\AppData\Local\Temp\ccbivcrf.s 			page 41


  31:../../DaisySP/Source/Effects/pitchshifter.h **** {
 1097              		.loc 3 31 17 view .LVU307
 1098              	.LBB678:
  33:../../DaisySP/Source/Effects/pitchshifter.h ****     seed                 = hash_xs32(seed);
 1099              		.loc 3 33 5 view .LVU308
  34:../../DaisySP/Source/Effects/pitchshifter.h ****     return seed;
 1100              		.loc 3 34 5 view .LVU309
  34:../../DaisySP/Source/Effects/pitchshifter.h ****     return seed;
 1101              		.loc 3 34 37 is_stmt 0 view .LVU310
 1102 0220 244F     		ldr	r7, .L30+16
 1103              	.LBE678:
 1104              	.LBE677:
  91:../../DaisySP/Source/Effects/pitchshifter.h ****                          * (del_size_ * 0.5f);
 1105              		.loc 3 91 51 view .LVU311
 1106 0222 2548     		ldr	r0, .L30+20
 1107              	.LBB691:
 1108              	.LBB687:
  34:../../DaisySP/Source/Effects/pitchshifter.h ****     return seed;
 1109              		.loc 3 34 37 view .LVU312
 1110 0224 3A68     		ldr	r2, [r7]
 1111              	.LVL41:
 1112              	.LBB679:
 1113              	.LBI679:
  23:../../DaisySP/Source/Effects/pitchshifter.h **** {
 1114              		.loc 3 23 24 is_stmt 1 view .LVU313
 1115              	.LBB680:
  25:../../DaisySP/Source/Effects/pitchshifter.h ****     x ^= x >> 17;
 1116              		.loc 3 25 5 view .LVU314
 1117              	.LBE680:
 1118              	.LBE679:
 1119              	.LBE687:
 1120              	.LBE691:
  91:../../DaisySP/Source/Effects/pitchshifter.h ****                          * (del_size_ * 0.5f);
 1121              		.loc 3 91 58 is_stmt 0 view .LVU315
 1122 0226 DFED256A 		vldr.32	s13, .L30+24
 1123              	.LBB692:
 1124              	.LBB688:
 1125              	.LBB684:
 1126              	.LBB681:
  25:../../DaisySP/Source/Effects/pitchshifter.h ****     x ^= x >> 17;
 1127              		.loc 3 25 7 view .LVU316
 1128 022a 82EA4232 		eor	r2, r2, r2, lsl #13
 1129              	.LVL42:
  26:../../DaisySP/Source/Effects/pitchshifter.h ****     x ^= x << 5;
 1130              		.loc 3 26 5 is_stmt 1 view .LVU317
 1131              	.LBE681:
 1132              	.LBE684:
 1133              	.LBE688:
 1134              	.LBE692:
  92:../../DaisySP/Source/Effects/pitchshifter.h ****             mod_coeff_[0]
 1135              		.loc 3 92 29 is_stmt 0 view .LVU318
 1136 022e 236A     		ldr	r3, [r4, #32]
  91:../../DaisySP/Source/Effects/pitchshifter.h ****                          * (del_size_ * 0.5f);
 1137              		.loc 3 91 31 view .LVU319
 1138 0230 94ED194A 		vldr.32	s8, [r4, #100]
 1139              	.LBB693:
 1140              	.LBB689:
ARM GAS  C:\Users\seanw\AppData\Local\Temp\ccbivcrf.s 			page 42


 1141              	.LBB685:
 1142              	.LBB682:
  26:../../DaisySP/Source/Effects/pitchshifter.h ****     x ^= x << 5;
 1143              		.loc 3 26 7 view .LVU320
 1144 0234 82EA5242 		eor	r2, r2, r2, lsr #17
 1145              	.LVL43:
  27:../../DaisySP/Source/Effects/pitchshifter.h ****     return x;
 1146              		.loc 3 27 5 is_stmt 1 view .LVU321
 1147              	.LBE682:
 1148              	.LBE685:
 1149              	.LBE689:
 1150              	.LBE693:
  94:../../DaisySP/Source/Effects/pitchshifter.h ****         }
 1151              		.loc 3 94 27 is_stmt 0 view .LVU322
 1152 0238 9FED226A 		vldr.32	s12, .L30+32
 1153 023c DFED205A 		vldr.32	s11, .L30+28
  92:../../DaisySP/Source/Effects/pitchshifter.h ****             mod_coeff_[0]
 1154              		.loc 3 92 39 view .LVU323
 1155 0240 04EE903A 		vmov	s9, r3	@ int
 1156              	.LBB694:
 1157              	.LBB690:
 1158              	.LBB686:
 1159              	.LBB683:
  27:../../DaisySP/Source/Effects/pitchshifter.h ****     return x;
 1160              		.loc 3 27 7 view .LVU324
 1161 0244 82EA4212 		eor	r2, r2, r2, lsl #5
 1162              	.LVL44:
  28:../../DaisySP/Source/Effects/pitchshifter.h **** }
 1163              		.loc 3 28 5 is_stmt 1 view .LVU325
  28:../../DaisySP/Source/Effects/pitchshifter.h **** }
 1164              		.loc 3 28 5 is_stmt 0 view .LVU326
 1165              	.LBE683:
 1166              	.LBE686:
  35:../../DaisySP/Source/Effects/pitchshifter.h **** }
 1167              		.loc 3 35 5 is_stmt 1 view .LVU327
 1168              	.LBE690:
 1169              	.LBE694:
  92:../../DaisySP/Source/Effects/pitchshifter.h ****             mod_coeff_[0]
 1170              		.loc 3 92 39 is_stmt 0 view .LVU328
 1171 0248 FBEEEF4A 		vcvt.f32.u32	s9, s9, #1
 1172              	.LBB695:
 1173              	.LBB696:
 1174              	.LBB697:
 1175              	.LBB698:
  25:../../DaisySP/Source/Effects/pitchshifter.h ****     x ^= x >> 17;
 1176              		.loc 3 25 7 view .LVU329
 1177 024c 82EA4231 		eor	r1, r2, r2, lsl #13
  26:../../DaisySP/Source/Effects/pitchshifter.h ****     x ^= x << 5;
 1178              		.loc 3 26 7 view .LVU330
 1179 0250 81EA5141 		eor	r1, r1, r1, lsr #17
  27:../../DaisySP/Source/Effects/pitchshifter.h ****     return x;
 1180              		.loc 3 27 7 view .LVU331
 1181 0254 81EA4111 		eor	r1, r1, r1, lsl #5
 1182              	.LBE698:
 1183              	.LBE697:
  34:../../DaisySP/Source/Effects/pitchshifter.h ****     return seed;
 1184              		.loc 3 34 26 view .LVU332
ARM GAS  C:\Users\seanw\AppData\Local\Temp\ccbivcrf.s 			page 43


 1185 0258 3960     		str	r1, [r7]
 1186              	.LBE696:
 1187              	.LBE695:
  91:../../DaisySP/Source/Effects/pitchshifter.h ****                          * (del_size_ * 0.5f);
 1188              		.loc 3 91 51 view .LVU333
 1189 025a A0FB027C 		umull	r7, ip, r0, r2
  94:../../DaisySP/Source/Effects/pitchshifter.h ****         }
 1190              		.loc 3 94 48 view .LVU334
 1191 025e A0FB0170 		umull	r7, r0, r0, r1
  91:../../DaisySP/Source/Effects/pitchshifter.h ****                          * (del_size_ * 0.5f);
 1192              		.loc 3 91 51 view .LVU335
 1193 0262 4FEADC1C 		lsr	ip, ip, #7
  94:../../DaisySP/Source/Effects/pitchshifter.h ****         }
 1194              		.loc 3 94 48 view .LVU336
 1195 0266 C009     		lsrs	r0, r0, #7
  91:../../DaisySP/Source/Effects/pitchshifter.h ****                          * (del_size_ * 0.5f);
 1196              		.loc 3 91 51 view .LVU337
 1197 0268 CCEB0C2C 		rsb	ip, ip, ip, lsl #8
  94:../../DaisySP/Source/Effects/pitchshifter.h ****         }
 1198              		.loc 3 94 48 view .LVU338
 1199 026c C0EB0020 		rsb	r0, r0, r0, lsl #8
  91:../../DaisySP/Source/Effects/pitchshifter.h ****                          * (del_size_ * 0.5f);
 1200              		.loc 3 91 51 view .LVU339
 1201 0270 A2EB0C02 		sub	r2, r2, ip
  94:../../DaisySP/Source/Effects/pitchshifter.h ****         }
 1202              		.loc 3 94 48 view .LVU340
 1203 0274 081A     		subs	r0, r1, r0
  91:../../DaisySP/Source/Effects/pitchshifter.h ****                          * (del_size_ * 0.5f);
 1204              		.loc 3 91 34 view .LVU341
 1205 0276 07EE902A 		vmov	s15, r2	@ int
 1206 027a F8EEE77A 		vcvt.f32.s32	s15, s15
  91:../../DaisySP/Source/Effects/pitchshifter.h ****                          * (del_size_ * 0.5f);
 1207              		.loc 3 91 58 view .LVU342
 1208 027e 87EEA67A 		vdiv.f32	s14, s15, s13
  94:../../DaisySP/Source/Effects/pitchshifter.h ****         }
 1209              		.loc 3 94 31 view .LVU343
 1210 0282 07EE900A 		vmov	s15, r0	@ int
 1211 0286 F8EEE77A 		vcvt.f32.s32	s15, s15
  94:../../DaisySP/Source/Effects/pitchshifter.h ****         }
 1212              		.loc 3 94 55 view .LVU344
 1213 028a 87EEA65A 		vdiv.f32	s10, s15, s13
  91:../../DaisySP/Source/Effects/pitchshifter.h ****                          * (del_size_ * 0.5f);
 1214              		.loc 3 91 31 view .LVU345
 1215 028e 27EE047A 		vmul.f32	s14, s14, s8
  92:../../DaisySP/Source/Effects/pitchshifter.h ****             mod_coeff_[0]
 1216              		.loc 3 92 26 view .LVU346
 1217 0292 27EE247A 		vmul.f32	s14, s14, s9
  91:../../DaisySP/Source/Effects/pitchshifter.h ****                          * (del_size_ * 0.5f);
 1218              		.loc 3 91 24 view .LVU347
 1219 0296 84ED1A7A 		vstr.32	s14, [r4, #104]
  93:../../DaisySP/Source/Effects/pitchshifter.h ****                 = 0.0002f + (((float)(myrand() % 255) / 255.0f) * 0.001f);
 1220              		.loc 3 93 13 is_stmt 1 view .LVU348
 1221              	.LBB702:
 1222              	.LBI695:
  31:../../DaisySP/Source/Effects/pitchshifter.h **** {
 1223              		.loc 3 31 17 view .LVU349
 1224              	.LBB701:
ARM GAS  C:\Users\seanw\AppData\Local\Temp\ccbivcrf.s 			page 44


  33:../../DaisySP/Source/Effects/pitchshifter.h ****     seed                 = hash_xs32(seed);
 1225              		.loc 3 33 5 view .LVU350
  34:../../DaisySP/Source/Effects/pitchshifter.h ****     return seed;
 1226              		.loc 3 34 5 view .LVU351
 1227              	.LVL45:
 1228              	.LBB700:
 1229              	.LBI697:
  23:../../DaisySP/Source/Effects/pitchshifter.h **** {
 1230              		.loc 3 23 24 view .LVU352
 1231              	.LBB699:
  25:../../DaisySP/Source/Effects/pitchshifter.h ****     x ^= x >> 17;
 1232              		.loc 3 25 5 view .LVU353
  26:../../DaisySP/Source/Effects/pitchshifter.h ****     x ^= x << 5;
 1233              		.loc 3 26 5 view .LVU354
  27:../../DaisySP/Source/Effects/pitchshifter.h ****     return x;
 1234              		.loc 3 27 5 view .LVU355
  28:../../DaisySP/Source/Effects/pitchshifter.h **** }
 1235              		.loc 3 28 5 view .LVU356
  28:../../DaisySP/Source/Effects/pitchshifter.h **** }
 1236              		.loc 3 28 5 is_stmt 0 view .LVU357
 1237              	.LBE699:
 1238              	.LBE700:
  35:../../DaisySP/Source/Effects/pitchshifter.h **** }
 1239              		.loc 3 35 5 is_stmt 1 view .LVU358
 1240              	.LBE701:
 1241              	.LBE702:
  94:../../DaisySP/Source/Effects/pitchshifter.h ****         }
 1242              		.loc 3 94 27 is_stmt 0 view .LVU359
 1243 029a E5EE065A 		vfma.f32	s11, s10, s12
  94:../../DaisySP/Source/Effects/pitchshifter.h ****         }
 1244              		.loc 3 94 17 view .LVU360
 1245 029e C4ED205A 		vstr.32	s11, [r4, #128]
 1246 02a2 CDE6     		b	.L22
 1247              	.L31:
 1248              		.align	2
 1249              	.L30:
 1250 02a4 30000200 		.word	131120
 1251 02a8 40000200 		.word	131136
 1252 02ac DB0F4940 		.word	1078530011
 1253 02b0 00000000 		.word	0
 1254 02b4 00000000 		.word	_ZZN7daisysp6myrandEvE4seed
 1255 02b8 81808080 		.word	-2139062143
 1256 02bc 00007F43 		.word	1132396544
 1257 02c0 17B75139 		.word	961656599
 1258 02c4 6F12833A 		.word	981668463
 1259              		.cfi_endproc
 1260              	.LFE3058:
 1262              		.section	.text.startup.main,"ax",%progbits
 1263              		.align	1
 1264              		.p2align 2,,3
 1265              		.global	main
 1266              		.syntax unified
 1267              		.thumb
 1268              		.thumb_func
 1269              		.fpu fpv5-d16
 1271              	main:
 1272              	.LFB4404:
ARM GAS  C:\Users\seanw\AppData\Local\Temp\ccbivcrf.s 			page 45


 1273              		.file 18 "MultiEffect.cpp"
   1:MultiEffect.cpp **** #include "daisysp.h"
   2:MultiEffect.cpp **** #include "daisy_pod.h"
   3:MultiEffect.cpp **** 
   4:MultiEffect.cpp **** // Set max delay time to 0.75 of samplerate.
   5:MultiEffect.cpp **** #define MAX_DELAY static_cast<size_t>(48000 * 2.5f)
   6:MultiEffect.cpp **** #define CHRDEL 0
   7:MultiEffect.cpp **** #define DEL 1
   8:MultiEffect.cpp **** #define COR 2
   9:MultiEffect.cpp **** #define PHR 3
  10:MultiEffect.cpp **** #define OCT 4
  11:MultiEffect.cpp **** 
  12:MultiEffect.cpp **** 
  13:MultiEffect.cpp **** using namespace daisysp;
  14:MultiEffect.cpp **** using namespace daisy;
  15:MultiEffect.cpp **** 
  16:MultiEffect.cpp **** static DaisyPod pod;
  17:MultiEffect.cpp **** 
  18:MultiEffect.cpp **** /// declare effects used 
  19:MultiEffect.cpp **** static Chorus                                    crs;
  20:MultiEffect.cpp **** static Chorus                                    crs2;
  21:MultiEffect.cpp **** static Chorus                                    crs3;
  22:MultiEffect.cpp **** static Chorus                                    crs4;
  23:MultiEffect.cpp **** static PitchShifter                              pst;
  24:MultiEffect.cpp **** 
  25:MultiEffect.cpp **** static Phaser                                    psr;
  26:MultiEffect.cpp **** static Phaser                                    psr2;
  27:MultiEffect.cpp **** static DelayLine<float, MAX_DELAY> DSY_SDRAM_BSS dell;
  28:MultiEffect.cpp **** static DelayLine<float, MAX_DELAY> DSY_SDRAM_BSS delr;
  29:MultiEffect.cpp **** static DelayLine<float, MAX_DELAY> DSY_SDRAM_BSS dell2;
  30:MultiEffect.cpp **** static DelayLine<float, MAX_DELAY> DSY_SDRAM_BSS delr2;
  31:MultiEffect.cpp **** 
  32:MultiEffect.cpp **** static Parameter deltime;
  33:MultiEffect.cpp **** int   mode = CHRDEL;
  34:MultiEffect.cpp **** int   numstages;
  35:MultiEffect.cpp **** uint32_t octDelSize;
  36:MultiEffect.cpp **** 
  37:MultiEffect.cpp **** float currentDelay, feedback, delayTarget, freq, freqtarget, lfotarget, lfo;
  38:MultiEffect.cpp **** 
  39:MultiEffect.cpp **** 
  40:MultiEffect.cpp **** float  drywet;
  41:MultiEffect.cpp **** 
  42:MultiEffect.cpp **** 
  43:MultiEffect.cpp **** //Helper functions
  44:MultiEffect.cpp **** void Controls();
  45:MultiEffect.cpp **** 
  46:MultiEffect.cpp **** void GetReverbSample(float &outl, float &outr, float inl, float inr);
  47:MultiEffect.cpp **** 
  48:MultiEffect.cpp **** void GetDelaySample(float &outl, float &outr, float inl, float inr);
  49:MultiEffect.cpp **** 
  50:MultiEffect.cpp **** void GetChorusSample(float &outl, float &outr, float inl, float inr);
  51:MultiEffect.cpp **** 
  52:MultiEffect.cpp **** void GetPhaserSample(float &outl, float &outr, float inl, float inr);
  53:MultiEffect.cpp **** 
  54:MultiEffect.cpp **** void GetOctaveSample(float &outl, float &outr, float inl, float inr);
  55:MultiEffect.cpp **** 
  56:MultiEffect.cpp **** 
ARM GAS  C:\Users\seanw\AppData\Local\Temp\ccbivcrf.s 			page 46


  57:MultiEffect.cpp **** void AudioCallback(AudioHandle::InterleavingInputBuffer  in,
  58:MultiEffect.cpp ****                    AudioHandle::InterleavingOutputBuffer out,
  59:MultiEffect.cpp ****                    size_t                                size)
  60:MultiEffect.cpp **** {
  61:MultiEffect.cpp ****     float outl, outr, inl, inr;
  62:MultiEffect.cpp **** 
  63:MultiEffect.cpp ****     Controls();
  64:MultiEffect.cpp **** 
  65:MultiEffect.cpp ****     //audio
  66:MultiEffect.cpp ****     for(size_t i = 0; i < size; i += 2)
  67:MultiEffect.cpp ****     {
  68:MultiEffect.cpp ****         inl = in[i];
  69:MultiEffect.cpp ****         inr = in[i + 1];
  70:MultiEffect.cpp **** 
  71:MultiEffect.cpp ****         switch(mode)
  72:MultiEffect.cpp ****         {
  73:MultiEffect.cpp ****             case CHRDEL: GetReverbSample(outl, outr, inl, inr); break;
  74:MultiEffect.cpp ****             case DEL: GetDelaySample(outl, outr, inl, inr); break;
  75:MultiEffect.cpp ****             case COR: GetChorusSample(outl, outr, inl, inr); break;
  76:MultiEffect.cpp ****             case PHR: GetPhaserSample(outl, outr, inl, inr); break;
  77:MultiEffect.cpp ****             case OCT: GetOctaveSample(outl, outr, inl, inr); break;
  78:MultiEffect.cpp ****             default: outl = outr = 0;
  79:MultiEffect.cpp ****         }
  80:MultiEffect.cpp **** 
  81:MultiEffect.cpp ****         // left out
  82:MultiEffect.cpp ****         out[i] = outl;
  83:MultiEffect.cpp **** 
  84:MultiEffect.cpp ****         // right out
  85:MultiEffect.cpp ****         out[i + 1] = outr;
  86:MultiEffect.cpp ****     }
  87:MultiEffect.cpp **** }
  88:MultiEffect.cpp **** int main(void)
  89:MultiEffect.cpp **** {
 1274              		.loc 18 89 1 is_stmt 1 view -0
 1275              		.cfi_startproc
 1276              		@ args = 0, pretend = 0, frame = 40
 1277              		@ frame_needed = 0, uses_anonymous_args = 0
  90:MultiEffect.cpp ****     // initialize pod hardware and oscillator daisysp module
  91:MultiEffect.cpp ****     float sample_rate;
 1278              		.loc 18 91 5 view .LVU362
  92:MultiEffect.cpp **** 
  93:MultiEffect.cpp ****     //Inits and sample rate
  94:MultiEffect.cpp ****     pod.Init();
 1279              		.loc 18 94 5 view .LVU363
  89:MultiEffect.cpp ****     // initialize pod hardware and oscillator daisysp module
 1280              		.loc 18 89 1 is_stmt 0 view .LVU364
 1281 0000 2DE9F04F 		push	{r4, r5, r6, r7, r8, r9, r10, fp, lr}
 1282              		.cfi_def_cfa_offset 36
 1283              		.cfi_offset 4, -36
 1284              		.cfi_offset 5, -32
 1285              		.cfi_offset 6, -28
 1286              		.cfi_offset 7, -24
 1287              		.cfi_offset 8, -20
 1288              		.cfi_offset 9, -16
 1289              		.cfi_offset 10, -12
 1290              		.cfi_offset 11, -8
 1291              		.cfi_offset 14, -4
ARM GAS  C:\Users\seanw\AppData\Local\Temp\ccbivcrf.s 			page 47


 1292              		.loc 18 94 13 view .LVU365
 1293 0004 0021     		movs	r1, #0
 1294              	.LBB750:
 1295              	.LBB751:
 1296              	.LBB752:
  36:../../DaisySP/Source/Utility/delayline.h ****         delay_     = 1;
 1297              		.loc 17 36 20 view .LVU366
 1298 0006 0024     		movs	r4, #0
 1299              	.LBE752:
 1300              	.LBE751:
 1301              	.LBE750:
 1302              		.loc 18 94 13 view .LVU367
 1303 0008 DB48     		ldr	r0, .L46+8
 1304              	.LBB765:
 1305              	.LBB760:
 1306              	.LBB755:
  37:../../DaisySP/Source/Utility/delayline.h ****     }
 1307              		.loc 17 37 20 view .LVU368
 1308 000a 0125     		movs	r5, #1
 1309              	.LBE755:
 1310              	.LBE760:
 1311              	.LBE765:
 1312              	.LBB766:
 1313              	.LBB767:
 1314              	.LBB768:
  36:../../DaisySP/Source/Utility/delayline.h ****         delay_     = 1;
 1315              		.loc 17 36 20 view .LVU369
 1316 000c DFF80894 		ldr	r9, .L46+168
 1317              	.LBE768:
 1318              	.LBE767:
 1319              	.LBE766:
 1320              	.LBB777:
 1321              	.LBB778:
 1322              	.LBB779:
 1323 0010 DFF80884 		ldr	r8, .L46+172
 1324              	.LBE779:
 1325              	.LBE778:
 1326              	.LBE777:
 1327              	.LBB788:
 1328              	.LBB761:
 1329              	.LBB756:
 1330 0014 DFF808A4 		ldr	r10, .L46+176
 1331              	.LBE756:
 1332              	.LBE761:
 1333              	.LBE788:
 1334              	.LBB789:
 1335              	.LBB790:
 1336              	.LBB791:
 1337 0018 D84F     		ldr	r7, .L46+12
 1338              	.LBE791:
 1339              	.LBE790:
 1340              	.LBE789:
 1341              	.LBB802:
 1342              	.LBB803:
  65:../../DaisySP/Source/Effects/pitchshifter.h ****         sr_           = sr;
 1343              		.loc 3 65 23 view .LVU370
 1344 001a D94E     		ldr	r6, .L46+16
ARM GAS  C:\Users\seanw\AppData\Local\Temp\ccbivcrf.s 			page 48


 1345              	.LBE803:
 1346              	.LBE802:
  89:MultiEffect.cpp ****     // initialize pod hardware and oscillator daisysp module
 1347              		.loc 18 89 1 view .LVU371
 1348 001c 2DED048B 		vpush.64	{d8, d9}
 1349              		.cfi_def_cfa_offset 52
 1350              		.cfi_offset 80, -52
 1351              		.cfi_offset 81, -48
 1352              		.cfi_offset 82, -44
 1353              		.cfi_offset 83, -40
 1354 0020 8BB0     		sub	sp, sp, #44
 1355              		.cfi_def_cfa_offset 96
 1356              		.loc 18 94 13 view .LVU372
 1357 0022 FFF7FEFF 		bl	_ZN5daisy8DaisyPod4InitEb
 1358              	.LVL46:
  95:MultiEffect.cpp ****     sample_rate = pod.AudioSampleRate();
 1359              		.loc 18 95 5 is_stmt 1 view .LVU373
 1360              		.loc 18 95 38 is_stmt 0 view .LVU374
 1361 0026 D448     		ldr	r0, .L46+8
 1362 0028 FFF7FEFF 		bl	_ZN5daisy8DaisyPod15AudioSampleRateEv
 1363              	.LVL47:
 1364              	.LBB865:
 1365              	.LBB762:
 1366              	.LBB757:
 1367              	.LBB753:
  34:../../DaisySP/Source/Utility/delayline.h ****         }
 1368              		.loc 17 34 22 view .LVU375
 1369 002c D54A     		ldr	r2, .L46+20
 1370 002e 2146     		mov	r1, r4
 1371 0030 D548     		ldr	r0, .L46+24
 1372              	.LBE753:
 1373              	.LBE757:
 1374              	.LBE762:
 1375              	.LBE865:
 1376              		.loc 18 95 38 view .LVU376
 1377 0032 F0EE408A 		vmov.f32	s17, s0
 1378              	.LVL48:
  96:MultiEffect.cpp ****     // start effect processing
  97:MultiEffect.cpp **** 
  98:MultiEffect.cpp ****     dell.Init();
 1379              		.loc 18 98 5 is_stmt 1 view .LVU377
 1380              	.LBB866:
 1381              	.LBI750:
  27:../../DaisySP/Source/Utility/delayline.h ****     /** clears buffer, sets write ptr to 0, and delay to 1 sample.
 1382              		.loc 17 27 10 view .LVU378
 1383              	.LBB763:
 1384              	.LBI751:
  30:../../DaisySP/Source/Utility/delayline.h ****     {
 1385              		.loc 17 30 10 view .LVU379
 1386              	.LBB758:
 1387              	.LBB754:
  32:../../DaisySP/Source/Utility/delayline.h ****         {
 1388              		.loc 17 32 29 view .LVU380
  34:../../DaisySP/Source/Utility/delayline.h ****         }
 1389              		.loc 17 34 22 is_stmt 0 view .LVU381
 1390 0036 FFF7FEFF 		bl	memset
 1391              	.LVL49:
ARM GAS  C:\Users\seanw\AppData\Local\Temp\ccbivcrf.s 			page 49


  34:../../DaisySP/Source/Utility/delayline.h ****         }
 1392              		.loc 17 34 22 view .LVU382
 1393              	.LBE754:
 1394              	.LBE758:
 1395              	.LBE763:
 1396              	.LBE866:
 1397              	.LBB867:
 1398              	.LBB774:
 1399              	.LBB771:
 1400              	.LBB769:
 1401 003a D24A     		ldr	r2, .L46+20
 1402 003c 2146     		mov	r1, r4
 1403 003e 09F10C00 		add	r0, r9, #12
 1404              	.LBE769:
 1405              	.LBE771:
 1406              	.LBE774:
 1407              	.LBE867:
 1408              	.LBB868:
 1409              	.LBB764:
 1410              	.LBB759:
  37:../../DaisySP/Source/Utility/delayline.h ****     }
 1411              		.loc 17 37 20 view .LVU383
 1412 0042 CAE90145 		strd	r4, r5, [r10, #4]
 1413              	.LVL50:
  37:../../DaisySP/Source/Utility/delayline.h ****     }
 1414              		.loc 17 37 20 view .LVU384
 1415              	.LBE759:
 1416              	.LBE764:
 1417              	.LBE868:
 1418              	.LBB869:
 1419              	.LBB775:
 1420              	.LBB772:
 1421              	.LBB770:
  32:../../DaisySP/Source/Utility/delayline.h ****         {
 1422              		.loc 17 32 29 is_stmt 1 view .LVU385
  34:../../DaisySP/Source/Utility/delayline.h ****         }
 1423              		.loc 17 34 22 is_stmt 0 view .LVU386
 1424 0046 FFF7FEFF 		bl	memset
 1425              	.LVL51:
  34:../../DaisySP/Source/Utility/delayline.h ****         }
 1426              		.loc 17 34 22 view .LVU387
 1427              	.LBE770:
 1428              	.LBE772:
 1429              	.LBE775:
 1430              	.LBE869:
 1431              	.LBB870:
 1432              	.LBB785:
 1433              	.LBB782:
 1434              	.LBB780:
 1435 004a CE4A     		ldr	r2, .L46+20
 1436 004c 2146     		mov	r1, r4
 1437 004e 08F10C00 		add	r0, r8, #12
 1438              	.LBE780:
 1439              	.LBE782:
 1440              	.LBE785:
 1441              	.LBE870:
 1442              	.LBB871:
ARM GAS  C:\Users\seanw\AppData\Local\Temp\ccbivcrf.s 			page 50


 1443              	.LBB776:
 1444              	.LBB773:
  37:../../DaisySP/Source/Utility/delayline.h ****     }
 1445              		.loc 17 37 20 view .LVU388
 1446 0052 C9E90145 		strd	r4, r5, [r9, #4]
 1447              	.LVL52:
  37:../../DaisySP/Source/Utility/delayline.h ****     }
 1448              		.loc 17 37 20 view .LVU389
 1449              	.LBE773:
 1450              	.LBE776:
 1451              	.LBE871:
 1452              	.LBB872:
 1453              	.LBB786:
 1454              	.LBB783:
 1455              	.LBB781:
  32:../../DaisySP/Source/Utility/delayline.h ****         {
 1456              		.loc 17 32 29 is_stmt 1 view .LVU390
  34:../../DaisySP/Source/Utility/delayline.h ****         }
 1457              		.loc 17 34 22 is_stmt 0 view .LVU391
 1458 0056 FFF7FEFF 		bl	memset
 1459              	.LVL53:
  34:../../DaisySP/Source/Utility/delayline.h ****         }
 1460              		.loc 17 34 22 view .LVU392
 1461              	.LBE781:
 1462              	.LBE783:
 1463              	.LBE786:
 1464              	.LBE872:
 1465              	.LBB873:
 1466              	.LBB798:
 1467              	.LBB794:
 1468              	.LBB792:
 1469 005a CA4A     		ldr	r2, .L46+20
 1470 005c 2146     		mov	r1, r4
 1471 005e 07F10C00 		add	r0, r7, #12
 1472              	.LBE792:
 1473              	.LBE794:
 1474              	.LBE798:
 1475              	.LBE873:
 1476              	.LBB874:
 1477              	.LBB787:
 1478              	.LBB784:
  37:../../DaisySP/Source/Utility/delayline.h ****     }
 1479              		.loc 17 37 20 view .LVU393
 1480 0062 C8E90145 		strd	r4, r5, [r8, #4]
 1481              	.LVL54:
  37:../../DaisySP/Source/Utility/delayline.h ****     }
 1482              		.loc 17 37 20 view .LVU394
 1483              	.LBE784:
 1484              	.LBE787:
 1485              	.LBE874:
 1486              	.LBB875:
 1487              	.LBB799:
 1488              	.LBB795:
 1489              	.LBB793:
  32:../../DaisySP/Source/Utility/delayline.h ****         {
 1490              		.loc 17 32 29 is_stmt 1 view .LVU395
  34:../../DaisySP/Source/Utility/delayline.h ****         }
ARM GAS  C:\Users\seanw\AppData\Local\Temp\ccbivcrf.s 			page 51


 1491              		.loc 17 34 22 is_stmt 0 view .LVU396
 1492 0066 FFF7FEFF 		bl	memset
 1493              	.LVL55:
  34:../../DaisySP/Source/Utility/delayline.h ****         }
 1494              		.loc 17 34 22 view .LVU397
 1495              	.LBE793:
 1496              	.LBE795:
 1497              	.LBE799:
 1498              	.LBE875:
  99:MultiEffect.cpp ****     delr.Init();
 100:MultiEffect.cpp ****     dell2.Init();
 101:MultiEffect.cpp ****     delr2.Init();
 102:MultiEffect.cpp ****     crs.Init(sample_rate);
 1499              		.loc 18 102 13 view .LVU398
 1500 006a B0EE680A 		vmov.f32	s0, s17
 1501 006e C748     		ldr	r0, .L46+28
 1502              	.LBB876:
 1503              	.LBB800:
 1504              	.LBB796:
  37:../../DaisySP/Source/Utility/delayline.h ****     }
 1505              		.loc 17 37 20 view .LVU399
 1506 0070 BD60     		str	r5, [r7, #8]
 1507              	.LBE796:
 1508              	.LBE800:
 1509              	.LBE876:
 1510              		.loc 18 102 5 is_stmt 1 view .LVU400
 1511 0072 06F18805 		add	r5, r6, #136
 1512              	.LBB877:
 1513              	.LBB801:
 1514              	.LBB797:
  36:../../DaisySP/Source/Utility/delayline.h ****         delay_     = 1;
 1515              		.loc 17 36 20 is_stmt 0 view .LVU401
 1516 0076 7C60     		str	r4, [r7, #4]
 1517              	.LBE797:
 1518              	.LBE801:
 1519              	.LBE877:
 1520              		.loc 18 102 13 view .LVU402
 1521 0078 FFF7FEFF 		bl	_ZN7daisysp6Chorus4InitEf
 1522              	.LVL56:
 103:MultiEffect.cpp ****     crs2.Init(sample_rate);
 1523              		.loc 18 103 5 is_stmt 1 view .LVU403
 1524              		.loc 18 103 14 is_stmt 0 view .LVU404
 1525 007c B0EE680A 		vmov.f32	s0, s17
 1526 0080 C348     		ldr	r0, .L46+32
 1527 0082 FFF7FEFF 		bl	_ZN7daisysp6Chorus4InitEf
 1528              	.LVL57:
 104:MultiEffect.cpp ****     crs3.Init(sample_rate);
 1529              		.loc 18 104 5 is_stmt 1 view .LVU405
 1530              		.loc 18 104 14 is_stmt 0 view .LVU406
 1531 0086 B0EE680A 		vmov.f32	s0, s17
 1532 008a C248     		ldr	r0, .L46+36
 1533 008c FFF7FEFF 		bl	_ZN7daisysp6Chorus4InitEf
 1534              	.LVL58:
 105:MultiEffect.cpp ****     crs4.Init(sample_rate);
 1535              		.loc 18 105 5 is_stmt 1 view .LVU407
 1536              		.loc 18 105 14 is_stmt 0 view .LVU408
 1537 0090 B0EE680A 		vmov.f32	s0, s17
ARM GAS  C:\Users\seanw\AppData\Local\Temp\ccbivcrf.s 			page 52


 1538 0094 C048     		ldr	r0, .L46+40
 1539 0096 FFF7FEFF 		bl	_ZN7daisysp6Chorus4InitEf
 1540              	.LVL59:
 106:MultiEffect.cpp ****     psr.Init(sample_rate);
 1541              		.loc 18 106 5 is_stmt 1 view .LVU409
 1542              		.loc 18 106 13 is_stmt 0 view .LVU410
 1543 009a B0EE680A 		vmov.f32	s0, s17
 1544 009e BF48     		ldr	r0, .L46+44
 1545 00a0 FFF7FEFF 		bl	_ZN7daisysp6Phaser4InitEf
 1546              	.LVL60:
 107:MultiEffect.cpp ****     psr2.Init(sample_rate);
 1547              		.loc 18 107 5 is_stmt 1 view .LVU411
 1548              		.loc 18 107 14 is_stmt 0 view .LVU412
 1549 00a4 B0EE680A 		vmov.f32	s0, s17
 1550 00a8 BD48     		ldr	r0, .L46+48
 1551 00aa FFF7FEFF 		bl	_ZN7daisysp6Phaser4InitEf
 1552              	.LVL61:
 108:MultiEffect.cpp ****     pst.Init(sample_rate);
 1553              		.loc 18 108 5 is_stmt 1 view .LVU413
 1554              	.LBB878:
 1555              	.LBI802:
  63:../../DaisySP/Source/Effects/pitchshifter.h ****     {
 1556              		.loc 3 63 10 view .LVU414
 1557              	.LBB862:
  65:../../DaisySP/Source/Effects/pitchshifter.h ****         sr_           = sr;
 1558              		.loc 3 65 9 view .LVU415
  67:../../DaisySP/Source/Effects/pitchshifter.h ****         SetSemitones();
 1559              		.loc 3 67 23 is_stmt 0 view .LVU416
 1560 00ae BD4B     		ldr	r3, .L46+52
  65:../../DaisySP/Source/Effects/pitchshifter.h ****         sr_           = sr;
 1561              		.loc 3 65 23 view .LVU417
 1562 00b0 86F82440 		strb	r4, [r6, #36]
  66:../../DaisySP/Source/Effects/pitchshifter.h ****         mod_freq_     = 5.0f;
 1563              		.loc 3 66 9 is_stmt 1 view .LVU418
  67:../../DaisySP/Source/Effects/pitchshifter.h ****         SetSemitones();
 1564              		.loc 3 67 23 is_stmt 0 view .LVU419
 1565 00b4 F361     		str	r3, [r6, #28]	@ float
  66:../../DaisySP/Source/Effects/pitchshifter.h ****         mod_freq_     = 5.0f;
 1566              		.loc 3 66 23 view .LVU420
 1567 00b6 C6ED0A8A 		vstr.32	s17, [r6, #40]
  67:../../DaisySP/Source/Effects/pitchshifter.h ****         SetSemitones();
 1568              		.loc 3 67 9 is_stmt 1 view .LVU421
  68:../../DaisySP/Source/Effects/pitchshifter.h ****         for(uint8_t i = 0; i < 2; i++)
 1569              		.loc 3 68 9 view .LVU422
 1570              	.LVL62:
 1571              	.LBB804:
 1572              	.LBI804:
 170:../../DaisySP/Source/Effects/pitchshifter.h **** 
 171:../../DaisySP/Source/Effects/pitchshifter.h ****     /** sets delay size changing the timbre of the pitchshifting 
 172:../../DaisySP/Source/Effects/pitchshifter.h ****     */
 173:../../DaisySP/Source/Effects/pitchshifter.h ****     void SetDelSize(uint32_t size)
 174:../../DaisySP/Source/Effects/pitchshifter.h ****     {
 175:../../DaisySP/Source/Effects/pitchshifter.h ****         del_size_     = size < SHIFT_BUFFER_SIZE ? size : SHIFT_BUFFER_SIZE;
 176:../../DaisySP/Source/Effects/pitchshifter.h ****         force_recalc_ = true;
 177:../../DaisySP/Source/Effects/pitchshifter.h ****         SetTransposition(transpose_);
 178:../../DaisySP/Source/Effects/pitchshifter.h ****     }
 179:../../DaisySP/Source/Effects/pitchshifter.h **** 
ARM GAS  C:\Users\seanw\AppData\Local\Temp\ccbivcrf.s 			page 53


 180:../../DaisySP/Source/Effects/pitchshifter.h ****     /** sets an amount of internal random modulation, kind of sounds like tape-flutter
 181:../../DaisySP/Source/Effects/pitchshifter.h ****     */
 182:../../DaisySP/Source/Effects/pitchshifter.h ****     inline void SetFun(float f) { fun_ = f; }
 183:../../DaisySP/Source/Effects/pitchshifter.h **** 
 184:../../DaisySP/Source/Effects/pitchshifter.h ****   private:
 185:../../DaisySP/Source/Effects/pitchshifter.h ****     inline void SetSemitones()
 1573              		.loc 3 185 17 view .LVU423
 1574              	.LBB805:
 186:../../DaisySP/Source/Effects/pitchshifter.h ****     {
 187:../../DaisySP/Source/Effects/pitchshifter.h ****         for(size_t i = 0; i < 12; i++)
 1575              		.loc 3 187 29 view .LVU424
 1576              	.L33:
 188:../../DaisySP/Source/Effects/pitchshifter.h ****         {
 189:../../DaisySP/Source/Effects/pitchshifter.h ****             semitone_ratios_[i] = powf(2.0f, (float)i / 12);
 1577              		.loc 3 189 13 view .LVU425
 1578              		.loc 3 189 46 is_stmt 0 view .LVU426
 1579 00ba 07EE904A 		vmov	s15, r4	@ int
 1580              		.loc 3 189 39 view .LVU427
 1581 00be B2EE088A 		vmov.f32	s16, #1.2e+1
 187:../../DaisySP/Source/Effects/pitchshifter.h ****         {
 1582              		.loc 3 187 9 view .LVU428
 1583 00c2 0134     		adds	r4, r4, #1
 1584              	.LVL63:
 1585              		.loc 3 189 39 view .LVU429
 1586 00c4 B0EE000A 		vmov.f32	s0, #2.0e+0
 1587              		.loc 3 189 46 view .LVU430
 1588 00c8 F8EEE70A 		vcvt.f32.s32	s1, s15
 1589              		.loc 3 189 39 view .LVU431
 1590 00cc C0EE880A 		vdiv.f32	s1, s1, s16
 1591 00d0 FFF7FEFF 		bl	powf
 1592              	.LVL64:
 187:../../DaisySP/Source/Effects/pitchshifter.h ****         {
 1593              		.loc 3 187 29 view .LVU432
 1594 00d4 0C2C     		cmp	r4, #12
 1595              		.loc 3 189 33 view .LVU433
 1596 00d6 A5EC010A 		vstmia.32	r5!, {s0}
 187:../../DaisySP/Source/Effects/pitchshifter.h ****         {
 1597              		.loc 3 187 9 is_stmt 1 view .LVU434
 1598              	.LVL65:
 187:../../DaisySP/Source/Effects/pitchshifter.h ****         {
 1599              		.loc 3 187 29 view .LVU435
 1600 00da EED1     		bne	.L33
 1601              	.LVL66:
 187:../../DaisySP/Source/Effects/pitchshifter.h ****         {
 1602              		.loc 3 187 29 is_stmt 0 view .LVU436
 1603              	.LBE805:
 1604              	.LBE804:
 1605              	.LBB806:
  69:../../DaisySP/Source/Effects/pitchshifter.h ****         {
 1606              		.loc 3 69 30 is_stmt 1 view .LVU437
  71:../../DaisySP/Source/Effects/pitchshifter.h ****             d_[i].Init();
 1607              		.loc 3 71 13 view .LVU438
 1608              	.LBB807:
 1609              	.LBB808:
 1610              	.LBB809:
 1611              	.LBB810:
  34:../../DaisySP/Source/Utility/delayline.h ****         }
ARM GAS  C:\Users\seanw\AppData\Local\Temp\ccbivcrf.s 			page 54


 1612              		.loc 17 34 22 is_stmt 0 view .LVU439
 1613 00dc 0021     		movs	r1, #0
 1614              	.LBE810:
 1615              	.LBE809:
 1616              	.LBE808:
 1617              	.LBE807:
  71:../../DaisySP/Source/Effects/pitchshifter.h ****             d_[i].Init();
 1618              		.loc 3 71 22 view .LVU440
 1619 00de B24D     		ldr	r5, .L46+56
 1620              	.LBB829:
 1621              	.LBB822:
 1622              	.LBB815:
  37:../../DaisySP/Source/Utility/delayline.h ****     }
 1623              		.loc 17 37 20 view .LVU441
 1624 00e0 4FF0010B 		mov	fp, #1
 1625              	.LBE815:
 1626              	.LBE822:
 1627              	.LBE829:
  71:../../DaisySP/Source/Effects/pitchshifter.h ****             d_[i].Init();
 1628              		.loc 3 71 22 view .LVU442
 1629 00e4 9FEDB19A 		vldr.32	s18, .L46+60
 1630              	.LBB830:
 1631              	.LBB823:
 1632              	.LBB816:
  36:../../DaisySP/Source/Utility/delayline.h ****         delay_     = 1;
 1633              		.loc 17 36 20 view .LVU443
 1634 00e8 0C46     		mov	r4, r1
 1635              	.LBB811:
  34:../../DaisySP/Source/Utility/delayline.h ****         }
 1636              		.loc 17 34 22 view .LVU444
 1637 00ea 4FF48032 		mov	r2, #65536
 1638 00ee 05F10C00 		add	r0, r5, #12
 1639              	.LBE811:
 1640              	.LBE816:
 1641              	.LBE823:
 1642              	.LBE830:
  71:../../DaisySP/Source/Effects/pitchshifter.h ****             d_[i].Init();
 1643              		.loc 3 71 22 view .LVU445
 1644 00f2 86ED149A 		vstr.32	s18, [r6, #80]
  72:../../DaisySP/Source/Effects/pitchshifter.h ****             phs_[i].Init(sr, 50, i == 0 ? 0 : PI_F);
 1645              		.loc 3 72 13 is_stmt 1 view .LVU446
 1646              	.LVL67:
 1647              	.LBB831:
 1648              	.LBI807:
  27:../../DaisySP/Source/Utility/delayline.h ****     /** clears buffer, sets write ptr to 0, and delay to 1 sample.
 1649              		.loc 17 27 10 view .LVU447
 1650              	.LBB824:
 1651              	.LBI808:
  30:../../DaisySP/Source/Utility/delayline.h ****     {
 1652              		.loc 17 30 10 view .LVU448
 1653              	.LBB817:
 1654              	.LBB812:
  32:../../DaisySP/Source/Utility/delayline.h ****         {
 1655              		.loc 17 32 29 view .LVU449
  34:../../DaisySP/Source/Utility/delayline.h ****         }
 1656              		.loc 17 34 22 is_stmt 0 view .LVU450
 1657 00f6 FFF7FEFF 		bl	memset
ARM GAS  C:\Users\seanw\AppData\Local\Temp\ccbivcrf.s 			page 55


 1658              	.LVL68:
  34:../../DaisySP/Source/Utility/delayline.h ****         }
 1659              		.loc 17 34 22 view .LVU451
 1660              	.LBE812:
 1661              	.LBE817:
 1662              	.LBE824:
 1663              	.LBE831:
 1664              	.LBB832:
 1665              	.LBB833:
 1666              		.file 19 "../../DaisySP/Source/Control/phasor.h"
   1:../../DaisySP/Source/Control/phasor.h **** #pragma once
   2:../../DaisySP/Source/Control/phasor.h **** #ifndef DSY_PHASOR_H
   3:../../DaisySP/Source/Control/phasor.h **** #define DSY_PHASOR_H
   4:../../DaisySP/Source/Control/phasor.h **** #ifdef __cplusplus
   5:../../DaisySP/Source/Control/phasor.h **** 
   6:../../DaisySP/Source/Control/phasor.h **** namespace daisysp
   7:../../DaisySP/Source/Control/phasor.h **** {
   8:../../DaisySP/Source/Control/phasor.h **** /** Generates a normalized signal moving from 0-1 at the specified frequency.
   9:../../DaisySP/Source/Control/phasor.h **** 
  10:../../DaisySP/Source/Control/phasor.h **** \todo Selecting which channels should be initialized/included in the sequence conversion.
  11:../../DaisySP/Source/Control/phasor.h **** \todo Setup a similar start function for an external mux, but that seems outside the scope of this 
  12:../../DaisySP/Source/Control/phasor.h **** 
  13:../../DaisySP/Source/Control/phasor.h **** */
  14:../../DaisySP/Source/Control/phasor.h **** class Phasor
  15:../../DaisySP/Source/Control/phasor.h **** {
  16:../../DaisySP/Source/Control/phasor.h ****   public:
  17:../../DaisySP/Source/Control/phasor.h ****     Phasor() {}
  18:../../DaisySP/Source/Control/phasor.h ****     ~Phasor() {}
  19:../../DaisySP/Source/Control/phasor.h ****     /** Initializes the Phasor module
  20:../../DaisySP/Source/Control/phasor.h ****     sample rate, and freq are in Hz
  21:../../DaisySP/Source/Control/phasor.h ****     initial phase is in radians
  22:../../DaisySP/Source/Control/phasor.h ****     Additional Init functions have defaults when arg is not specified:
  23:../../DaisySP/Source/Control/phasor.h ****     - phs = 0.0f
  24:../../DaisySP/Source/Control/phasor.h ****     - freq = 1.0f
  25:../../DaisySP/Source/Control/phasor.h ****     */
  26:../../DaisySP/Source/Control/phasor.h ****     inline void Init(float sample_rate, float freq, float initial_phase)
  27:../../DaisySP/Source/Control/phasor.h ****     {
  28:../../DaisySP/Source/Control/phasor.h ****         sample_rate_ = sample_rate;
  29:../../DaisySP/Source/Control/phasor.h ****         phs_         = initial_phase;
  30:../../DaisySP/Source/Control/phasor.h ****         SetFreq(freq);
 1667              		.loc 19 30 16 view .LVU452
 1668 00fa 9FEDAD0A 		vldr.32	s0, .L46+64
 1669 00fe AD48     		ldr	r0, .L46+68
  28:../../DaisySP/Source/Control/phasor.h ****         phs_         = initial_phase;
 1670              		.loc 19 28 22 view .LVU453
 1671 0100 C6ED0D8A 		vstr.32	s17, [r6, #52]
  29:../../DaisySP/Source/Control/phasor.h ****         SetFreq(freq);
 1672              		.loc 19 29 22 view .LVU454
 1673 0104 86ED0F9A 		vstr.32	s18, [r6, #60]
 1674              	.LBE833:
 1675              	.LBE832:
 1676              	.LBB837:
 1677              	.LBB825:
 1678              	.LBB818:
  37:../../DaisySP/Source/Utility/delayline.h ****     }
 1679              		.loc 17 37 20 view .LVU455
 1680 0108 C5E9014B 		strd	r4, fp, [r5, #4]
ARM GAS  C:\Users\seanw\AppData\Local\Temp\ccbivcrf.s 			page 56


 1681              	.LVL69:
  37:../../DaisySP/Source/Utility/delayline.h ****     }
 1682              		.loc 17 37 20 view .LVU456
 1683              	.LBE818:
 1684              	.LBE825:
 1685              	.LBE837:
  73:../../DaisySP/Source/Effects/pitchshifter.h ****         }
 1686              		.loc 3 73 13 is_stmt 1 view .LVU457
 1687              	.LBB838:
 1688              	.LBI832:
  26:../../DaisySP/Source/Control/phasor.h ****     {
 1689              		.loc 19 26 17 view .LVU458
 1690              	.LBB834:
  28:../../DaisySP/Source/Control/phasor.h ****         phs_         = initial_phase;
 1691              		.loc 19 28 9 view .LVU459
  29:../../DaisySP/Source/Control/phasor.h ****         SetFreq(freq);
 1692              		.loc 19 29 9 view .LVU460
 1693              		.loc 19 30 9 view .LVU461
 1694              		.loc 19 30 16 is_stmt 0 view .LVU462
 1695 010c FFF7FEFF 		bl	_ZN7daisysp6Phasor7SetFreqEf
 1696              	.LVL70:
 1697              		.loc 19 30 16 view .LVU463
 1698              	.LBE834:
 1699              	.LBE838:
  69:../../DaisySP/Source/Effects/pitchshifter.h ****         {
 1700              		.loc 3 69 9 is_stmt 1 view .LVU464
  69:../../DaisySP/Source/Effects/pitchshifter.h ****         {
 1701              		.loc 3 69 30 view .LVU465
  71:../../DaisySP/Source/Effects/pitchshifter.h ****             d_[i].Init();
 1702              		.loc 3 71 13 view .LVU466
 1703              	.LBB839:
 1704              	.LBB826:
 1705              	.LBB819:
 1706              	.LBB813:
  34:../../DaisySP/Source/Utility/delayline.h ****         }
 1707              		.loc 17 34 22 is_stmt 0 view .LVU467
 1708 0110 4FF48032 		mov	r2, #65536
 1709 0114 2146     		mov	r1, r4
 1710 0116 A848     		ldr	r0, .L46+72
 1711              	.LBE813:
 1712              	.LBE819:
 1713              	.LBE826:
 1714              	.LBE839:
  71:../../DaisySP/Source/Effects/pitchshifter.h ****             d_[i].Init();
 1715              		.loc 3 71 22 view .LVU468
 1716 0118 86ED159A 		vstr.32	s18, [r6, #84]
  72:../../DaisySP/Source/Effects/pitchshifter.h ****             phs_[i].Init(sr, 50, i == 0 ? 0 : PI_F);
 1717              		.loc 3 72 13 is_stmt 1 view .LVU469
 1718              	.LVL71:
 1719              	.LBB840:
  27:../../DaisySP/Source/Utility/delayline.h ****     /** clears buffer, sets write ptr to 0, and delay to 1 sample.
 1720              		.loc 17 27 10 view .LVU470
 1721              	.LBB827:
  30:../../DaisySP/Source/Utility/delayline.h ****     {
 1722              		.loc 17 30 10 view .LVU471
 1723              	.LBB820:
 1724              	.LBB814:
ARM GAS  C:\Users\seanw\AppData\Local\Temp\ccbivcrf.s 			page 57


  32:../../DaisySP/Source/Utility/delayline.h ****         {
 1725              		.loc 17 32 29 view .LVU472
  34:../../DaisySP/Source/Utility/delayline.h ****         }
 1726              		.loc 17 34 22 is_stmt 0 view .LVU473
 1727 011c FFF7FEFF 		bl	memset
 1728              	.LVL72:
  34:../../DaisySP/Source/Utility/delayline.h ****         }
 1729              		.loc 17 34 22 view .LVU474
 1730              	.LBE814:
  36:../../DaisySP/Source/Utility/delayline.h ****         delay_     = 1;
 1731              		.loc 17 36 20 view .LVU475
 1732 0120 05F58033 		add	r3, r5, #65536
 1733              	.LBE820:
 1734              	.LBE827:
 1735              	.LBE840:
 1736              	.LBB841:
 1737              	.LBB835:
 1738              		.loc 19 30 16 view .LVU476
 1739 0124 9FEDA20A 		vldr.32	s0, .L46+64
 1740 0128 A448     		ldr	r0, .L46+76
  28:../../DaisySP/Source/Control/phasor.h ****         phs_         = initial_phase;
 1741              		.loc 19 28 22 view .LVU477
 1742 012a C6ED118A 		vstr.32	s17, [r6, #68]
 1743              	.LBE835:
 1744              	.LBE841:
 1745              	.LBB842:
 1746              	.LBB828:
 1747              	.LBB821:
  37:../../DaisySP/Source/Utility/delayline.h ****     }
 1748              		.loc 17 37 20 view .LVU478
 1749 012e C3E9044B 		strd	r4, fp, [r3, #16]
 1750              	.LVL73:
  37:../../DaisySP/Source/Utility/delayline.h ****     }
 1751              		.loc 17 37 20 view .LVU479
 1752              	.LBE821:
 1753              	.LBE828:
 1754              	.LBE842:
  73:../../DaisySP/Source/Effects/pitchshifter.h ****         }
 1755              		.loc 3 73 13 is_stmt 1 view .LVU480
 1756              	.LBB843:
  26:../../DaisySP/Source/Control/phasor.h ****     {
 1757              		.loc 19 26 17 view .LVU481
 1758              	.LBB836:
  28:../../DaisySP/Source/Control/phasor.h ****         phs_         = initial_phase;
 1759              		.loc 19 28 9 view .LVU482
  29:../../DaisySP/Source/Control/phasor.h ****         SetFreq(freq);
 1760              		.loc 19 29 9 view .LVU483
  29:../../DaisySP/Source/Control/phasor.h ****         SetFreq(freq);
 1761              		.loc 19 29 22 is_stmt 0 view .LVU484
 1762 0132 A34B     		ldr	r3, .L46+80
 1763 0134 F364     		str	r3, [r6, #76]	@ float
 1764              		.loc 19 30 9 is_stmt 1 view .LVU485
 1765              		.loc 19 30 16 is_stmt 0 view .LVU486
 1766 0136 FFF7FEFF 		bl	_ZN7daisysp6Phasor7SetFreqEf
 1767              	.LVL74:
 1768              		.loc 19 30 16 view .LVU487
 1769              	.LBE836:
ARM GAS  C:\Users\seanw\AppData\Local\Temp\ccbivcrf.s 			page 58


 1770              	.LBE843:
  69:../../DaisySP/Source/Effects/pitchshifter.h ****         {
 1771              		.loc 3 69 9 is_stmt 1 view .LVU488
  69:../../DaisySP/Source/Effects/pitchshifter.h ****         {
 1772              		.loc 3 69 30 view .LVU489
 1773              	.LBE806:
  75:../../DaisySP/Source/Effects/pitchshifter.h ****         del_size_ = SHIFT_BUFFER_SIZE;
 1774              		.loc 3 75 9 view .LVU490
 1775 013a 96ED187A 		vldr.32	s14, [r6, #96]
 1776              	.LBB844:
 1777              	.LBB845:
 1778              	.LBB846:
 1779              	.LBB847:
 147:../../DaisySP/Source/Effects/pitchshifter.h ****             ratio *= (uint8_t)(fabsf(transpose) / 12) + 1;
 1780              		.loc 3 147 47 is_stmt 0 view .LVU491
 1781 013e A14A     		ldr	r2, .L46+84
 146:../../DaisySP/Source/Effects/pitchshifter.h ****             ratio      = semitone_ratios_[idx % 12];
 1782              		.loc 3 146 40 view .LVU492
 1783 0140 F0EEC77A 		vabs.f32	s15, s14
 1784              	.LBE847:
 1785              	.LBE846:
 1786              	.LBE845:
 1787              	.LBE844:
  75:../../DaisySP/Source/Effects/pitchshifter.h ****         del_size_ = SHIFT_BUFFER_SIZE;
 1788              		.loc 3 75 19 view .LVU493
 1789 0144 86F82CB0 		strb	fp, [r6, #44]
  76:../../DaisySP/Source/Effects/pitchshifter.h ****         SetDelSize(del_size_);
 1790              		.loc 3 76 9 is_stmt 1 view .LVU494
 1791              	.LBB859:
 1792              	.LBB856:
 1793              	.LBB852:
 1794              	.LBB848:
 149:../../DaisySP/Source/Effects/pitchshifter.h ****             {
 1795              		.loc 3 149 13 is_stmt 0 view .LVU495
 1796 0148 B4EEC97A 		vcmpe.f32	s14, s18
 1797              	.LBE848:
 1798              	.LBE852:
 176:../../DaisySP/Source/Effects/pitchshifter.h ****         SetTransposition(transpose_);
 1799              		.loc 3 176 23 view .LVU496
 1800 014c 86F824B0 		strb	fp, [r6, #36]
 1801              	.LBB853:
 1802              	.LBB849:
 148:../../DaisySP/Source/Effects/pitchshifter.h ****             if(transpose > 0.0f)
 1803              		.loc 3 148 49 view .LVU497
 1804 0150 C7EE886A 		vdiv.f32	s13, s15, s16
 146:../../DaisySP/Source/Effects/pitchshifter.h ****             ratio      = semitone_ratios_[idx % 12];
 1805              		.loc 3 146 24 view .LVU498
 1806 0154 FCEEE77A 		vcvt.u32.f32	s15, s15
 149:../../DaisySP/Source/Effects/pitchshifter.h ****             {
 1807              		.loc 3 149 13 view .LVU499
 1808 0158 F1EE10FA 		vmrs	APSR_nzcv, FPSCR
 146:../../DaisySP/Source/Effects/pitchshifter.h ****             ratio      = semitone_ratios_[idx % 12];
 1809              		.loc 3 146 24 view .LVU500
 1810 015c CDED007A 		vstr.32	s15, [sp]	@ int
 147:../../DaisySP/Source/Effects/pitchshifter.h ****             ratio *= (uint8_t)(fabsf(transpose) / 12) + 1;
 1811              		.loc 3 147 47 view .LVU501
 1812 0160 9DF80030 		ldrb	r3, [sp]	@ zero_extendqisi2
ARM GAS  C:\Users\seanw\AppData\Local\Temp\ccbivcrf.s 			page 59


 1813 0164 A2FB0312 		umull	r1, r2, r2, r3
 1814 0168 4FEAD202 		lsr	r2, r2, #3
 1815 016c 02EB4202 		add	r2, r2, r2, lsl #1
 148:../../DaisySP/Source/Effects/pitchshifter.h ****             if(transpose > 0.0f)
 1816              		.loc 3 148 22 view .LVU502
 1817 0170 FCEEE67A 		vcvt.u32.f32	s15, s13
 147:../../DaisySP/Source/Effects/pitchshifter.h ****             ratio *= (uint8_t)(fabsf(transpose) / 12) + 1;
 1818              		.loc 3 147 47 view .LVU503
 1819 0174 A3EB8203 		sub	r3, r3, r2, lsl #2
 147:../../DaisySP/Source/Effects/pitchshifter.h ****             ratio *= (uint8_t)(fabsf(transpose) / 12) + 1;
 1820              		.loc 3 147 24 view .LVU504
 1821 0178 48F22202 		movw	r2, #32802
 1822 017c 52FA83F3 		uxtab	r3, r2, r3
 148:../../DaisySP/Source/Effects/pitchshifter.h ****             if(transpose > 0.0f)
 1823              		.loc 3 148 22 view .LVU505
 1824 0180 CDED017A 		vstr.32	s15, [sp, #4]	@ int
 147:../../DaisySP/Source/Effects/pitchshifter.h ****             ratio *= (uint8_t)(fabsf(transpose) / 12) + 1;
 1825              		.loc 3 147 24 view .LVU506
 1826 0184 05EB8303 		add	r3, r5, r3, lsl #2
 1827 0188 D3ED006A 		vldr.32	s13, [r3]
 148:../../DaisySP/Source/Effects/pitchshifter.h ****             if(transpose > 0.0f)
 1828              		.loc 3 148 22 view .LVU507
 1829 018c 9DF80430 		ldrb	r3, [sp, #4]	@ zero_extendqisi2
 148:../../DaisySP/Source/Effects/pitchshifter.h ****             if(transpose > 0.0f)
 1830              		.loc 3 148 55 view .LVU508
 1831 0190 5B44     		add	r3, r3, fp
 148:../../DaisySP/Source/Effects/pitchshifter.h ****             if(transpose > 0.0f)
 1832              		.loc 3 148 19 view .LVU509
 1833 0192 07EE903A 		vmov	s15, r3	@ int
 1834              	.LBE849:
 1835              	.LBE853:
 1836              	.LBE856:
 1837              	.LBE859:
  76:../../DaisySP/Source/Effects/pitchshifter.h ****         SetDelSize(del_size_);
 1838              		.loc 3 76 19 view .LVU510
 1839 0196 4FF48043 		mov	r3, #16384
 1840              	.LBB860:
 1841              	.LBB857:
 1842              	.LBB854:
 1843              	.LBB850:
 148:../../DaisySP/Source/Effects/pitchshifter.h ****             if(transpose > 0.0f)
 1844              		.loc 3 148 19 view .LVU511
 1845 019a F8EEE77A 		vcvt.f32.s32	s15, s15
 1846              	.LBE850:
 1847              	.LBE854:
 1848              	.LBE857:
 1849              	.LBE860:
  76:../../DaisySP/Source/Effects/pitchshifter.h ****         SetDelSize(del_size_);
 1850              		.loc 3 76 19 view .LVU512
 1851 019e 3362     		str	r3, [r6, #32]
  77:../../DaisySP/Source/Effects/pitchshifter.h ****         fun_ = 0.0f;
 1852              		.loc 3 77 9 is_stmt 1 view .LVU513
 1853              	.LVL75:
 1854              	.LBB861:
 1855              	.LBI844:
 173:../../DaisySP/Source/Effects/pitchshifter.h ****     {
 1856              		.loc 3 173 10 view .LVU514
ARM GAS  C:\Users\seanw\AppData\Local\Temp\ccbivcrf.s 			page 60


 1857              	.LBB858:
 175:../../DaisySP/Source/Effects/pitchshifter.h ****         force_recalc_ = true;
 1858              		.loc 3 175 9 view .LVU515
 176:../../DaisySP/Source/Effects/pitchshifter.h ****         SetTransposition(transpose_);
 1859              		.loc 3 176 9 view .LVU516
 177:../../DaisySP/Source/Effects/pitchshifter.h ****     }
 1860              		.loc 3 177 9 view .LVU517
 1861              	.LBB855:
 1862              	.LBI846:
 139:../../DaisySP/Source/Effects/pitchshifter.h ****     {
 1863              		.loc 3 139 10 view .LVU518
 1864              	.LBB851:
 141:../../DaisySP/Source/Effects/pitchshifter.h ****         uint8_t idx;
 1865              		.loc 3 141 9 view .LVU519
 142:../../DaisySP/Source/Effects/pitchshifter.h ****         if(transpose_ != transpose || force_recalc_)
 1866              		.loc 3 142 9 view .LVU520
 143:../../DaisySP/Source/Effects/pitchshifter.h ****         {
 1867              		.loc 3 143 9 view .LVU521
 145:../../DaisySP/Source/Effects/pitchshifter.h ****             idx        = (uint8_t)fabsf(transpose);
 1868              		.loc 3 145 13 view .LVU522
 146:../../DaisySP/Source/Effects/pitchshifter.h ****             ratio      = semitone_ratios_[idx % 12];
 1869              		.loc 3 146 13 view .LVU523
 147:../../DaisySP/Source/Effects/pitchshifter.h ****             ratio *= (uint8_t)(fabsf(transpose) / 12) + 1;
 1870              		.loc 3 147 13 view .LVU524
 148:../../DaisySP/Source/Effects/pitchshifter.h ****             if(transpose > 0.0f)
 1871              		.loc 3 148 13 view .LVU525
 148:../../DaisySP/Source/Effects/pitchshifter.h ****             if(transpose > 0.0f)
 1872              		.loc 3 148 19 is_stmt 0 view .LVU526
 1873 01a0 67EEA67A 		vmul.f32	s15, s15, s13
 1874              	.LVL76:
 149:../../DaisySP/Source/Effects/pitchshifter.h ****             {
 1875              		.loc 3 149 13 is_stmt 1 view .LVU527
 1876 01a4 01DC     		bgt	.L34
 155:../../DaisySP/Source/Effects/pitchshifter.h ****             }
 1877              		.loc 3 155 17 view .LVU528
 155:../../DaisySP/Source/Effects/pitchshifter.h ****             }
 1878              		.loc 3 155 27 is_stmt 0 view .LVU529
 1879 01a6 86F82C40 		strb	r4, [r6, #44]
 1880              	.L34:
 157:../../DaisySP/Source/Effects/pitchshifter.h ****             if(mod_freq_ < 0.0f)
 1881              		.loc 3 157 13 is_stmt 1 view .LVU530
 157:../../DaisySP/Source/Effects/pitchshifter.h ****             if(mod_freq_ < 0.0f)
 1882              		.loc 3 157 33 is_stmt 0 view .LVU531
 1883 01aa B7EE006A 		vmov.f32	s12, #1.0e+0
 157:../../DaisySP/Source/Effects/pitchshifter.h ****             if(mod_freq_ < 0.0f)
 1884              		.loc 3 157 41 view .LVU532
 1885 01ae D6ED0A6A 		vldr.32	s13, [r6, #40]
 157:../../DaisySP/Source/Effects/pitchshifter.h ****             if(mod_freq_ < 0.0f)
 1886              		.loc 3 157 48 view .LVU533
 1887 01b2 9FED857A 		vldr.32	s14, .L46+88
 1888              	.LVL77:
 158:../../DaisySP/Source/Effects/pitchshifter.h ****             {
 1889              		.loc 3 158 13 view .LVU534
 1890 01b6 0023     		movs	r3, #0
 162:../../DaisySP/Source/Effects/pitchshifter.h ****             phs_[1].SetFreq(mod_freq_);
 1891              		.loc 3 162 28 view .LVU535
 1892 01b8 7E48     		ldr	r0, .L46+68
ARM GAS  C:\Users\seanw\AppData\Local\Temp\ccbivcrf.s 			page 61


 157:../../DaisySP/Source/Effects/pitchshifter.h ****             if(mod_freq_ < 0.0f)
 1893              		.loc 3 157 33 view .LVU536
 1894 01ba 77EEC67A 		vsub.f32	s15, s15, s12
 1895              	.LVL78:
 157:../../DaisySP/Source/Effects/pitchshifter.h ****             if(mod_freq_ < 0.0f)
 1896              		.loc 3 157 41 view .LVU537
 1897 01be 67EEA67A 		vmul.f32	s15, s15, s13
 157:../../DaisySP/Source/Effects/pitchshifter.h ****             if(mod_freq_ < 0.0f)
 1898              		.loc 3 157 48 view .LVU538
 1899 01c2 67EE877A 		vmul.f32	s15, s15, s14
 158:../../DaisySP/Source/Effects/pitchshifter.h ****             {
 1900              		.loc 3 158 13 is_stmt 1 view .LVU539
 1901 01c6 F5EEC07A 		vcmpe.f32	s15, #0
 1902 01ca F1EE10FA 		vmrs	APSR_nzcv, FPSCR
 160:../../DaisySP/Source/Effects/pitchshifter.h ****             }
 1903              		.loc 3 160 27 is_stmt 0 view .LVU540
 1904 01ce 4CBF     		ite	mi
 1905 01d0 F361     		strmi	r3, [r6, #28]	@ float
 157:../../DaisySP/Source/Effects/pitchshifter.h ****             if(mod_freq_ < 0.0f)
 1906              		.loc 3 157 23 view .LVU541
 1907 01d2 C6ED077A 		vstrpl.32	s15, [r6, #28]
 160:../../DaisySP/Source/Effects/pitchshifter.h ****             }
 1908              		.loc 3 160 17 is_stmt 1 view .LVU542
 162:../../DaisySP/Source/Effects/pitchshifter.h ****             phs_[1].SetFreq(mod_freq_);
 1909              		.loc 3 162 13 view .LVU543
 162:../../DaisySP/Source/Effects/pitchshifter.h ****             phs_[1].SetFreq(mod_freq_);
 1910              		.loc 3 162 28 is_stmt 0 view .LVU544
 1911 01d6 96ED070A 		vldr.32	s0, [r6, #28]
 1912 01da FFF7FEFF 		bl	_ZN7daisysp6Phasor7SetFreqEf
 1913              	.LVL79:
 163:../../DaisySP/Source/Effects/pitchshifter.h ****             if(force_recalc_)
 1914              		.loc 3 163 13 is_stmt 1 view .LVU545
 163:../../DaisySP/Source/Effects/pitchshifter.h ****             if(force_recalc_)
 1915              		.loc 3 163 28 is_stmt 0 view .LVU546
 1916 01de 96ED070A 		vldr.32	s0, [r6, #28]
 1917 01e2 7648     		ldr	r0, .L46+76
 1918 01e4 FFF7FEFF 		bl	_ZN7daisysp6Phasor7SetFreqEf
 1919              	.LVL80:
 164:../../DaisySP/Source/Effects/pitchshifter.h ****             {
 1920              		.loc 3 164 13 is_stmt 1 view .LVU547
 1921 01e8 96F82430 		ldrb	r3, [r6, #36]	@ zero_extendqisi2
 1922 01ec 13B1     		cbz	r3, .L39
 166:../../DaisySP/Source/Effects/pitchshifter.h ****             }
 1923              		.loc 3 166 17 view .LVU548
 166:../../DaisySP/Source/Effects/pitchshifter.h ****             }
 1924              		.loc 3 166 31 is_stmt 0 view .LVU549
 1925 01ee 0023     		movs	r3, #0
 1926 01f0 86F82430 		strb	r3, [r6, #36]
 1927              	.L39:
 1928              	.LVL81:
 166:../../DaisySP/Source/Effects/pitchshifter.h ****             }
 1929              		.loc 3 166 31 view .LVU550
 1930              	.LBE851:
 1931              	.LBE855:
 1932              	.LBE858:
 1933              	.LBE861:
  78:../../DaisySP/Source/Effects/pitchshifter.h ****     }
ARM GAS  C:\Users\seanw\AppData\Local\Temp\ccbivcrf.s 			page 62


 1934              		.loc 3 78 9 is_stmt 1 view .LVU551
 1935              	.LBE862:
 1936              	.LBE878:
 109:MultiEffect.cpp **** 
 110:MultiEffect.cpp **** 
 111:MultiEffect.cpp ****     //set parameters
 112:MultiEffect.cpp ****     deltime.Init(pod.knob1, sample_rate * .05, MAX_DELAY, deltime.LOGARITHMIC);
 1937              		.loc 18 112 29 is_stmt 0 view .LVU552
 1938 01f4 B7EEE87A 		vcvt.f64.f32	d7, s17
 1939              		.loc 18 112 22 view .LVU553
 1940 01f8 744C     		ldr	r4, .L46+92
 1941 01fa 02AD     		add	r5, sp, #8
 1942              	.LBB879:
 1943              	.LBB863:
  78:../../DaisySP/Source/Effects/pitchshifter.h ****     }
 1944              		.loc 3 78 14 view .LVU554
 1945 01fc 9FED6B8A 		vldr.32	s16, .L46+60
 1946              	.LBE863:
 1947              	.LBE879:
 1948              		.loc 18 112 17 view .LVU555
 1949 0200 DFED730A 		vldr.32	s1, .L46+96
 1950              	.LBB880:
 1951              	.LBB864:
  78:../../DaisySP/Source/Effects/pitchshifter.h ****     }
 1952              		.loc 3 78 14 view .LVU556
 1953 0204 86ED198A 		vstr.32	s16, [r6, #100]
 1954              	.LVL82:
  78:../../DaisySP/Source/Effects/pitchshifter.h ****     }
 1955              		.loc 3 78 14 view .LVU557
 1956              	.LBE864:
 1957              	.LBE880:
 1958              		.loc 18 112 5 is_stmt 1 view .LVU558
 113:MultiEffect.cpp **** 
 114:MultiEffect.cpp **** 
 115:MultiEffect.cpp **** 
 116:MultiEffect.cpp ****     //delay parameters
 117:MultiEffect.cpp ****     currentDelay = delayTarget = sample_rate * 0.75f;
 118:MultiEffect.cpp ****     dell.SetDelay(currentDelay);
 119:MultiEffect.cpp ****     delr.SetDelay(currentDelay);
 120:MultiEffect.cpp ****     dell2.SetDelay(currentDelay+500);
 121:MultiEffect.cpp ****     delr2.SetDelay(currentDelay+1000);
 122:MultiEffect.cpp **** 
 123:MultiEffect.cpp **** 
 124:MultiEffect.cpp **** 
 125:MultiEffect.cpp ****     //chorus parameters
 126:MultiEffect.cpp ****     crs.SetFeedback(.1f);
 127:MultiEffect.cpp ****     crs.SetDelay(.7f);
 128:MultiEffect.cpp ****     crs2.SetFeedback(.1f);
 129:MultiEffect.cpp ****     crs2.SetDelay(.82f);
 130:MultiEffect.cpp ****     crs3.SetFeedback(.1f);
 131:MultiEffect.cpp ****     crs3.SetDelay(.9f);
 132:MultiEffect.cpp ****     crs4.SetFeedback(.1f);
 133:MultiEffect.cpp ****     crs4.SetDelay(.97f);
 134:MultiEffect.cpp **** 
 135:MultiEffect.cpp ****     // phaser parameters
 136:MultiEffect.cpp ****     numstages = 4;
 1959              		.loc 18 136 15 is_stmt 0 view .LVU559
ARM GAS  C:\Users\seanw\AppData\Local\Temp\ccbivcrf.s 			page 63


 1960 0208 DFF818B2 		ldr	fp, .L46+180
 112:MultiEffect.cpp **** 
 1961              		.loc 18 112 41 view .LVU560
 1962 020c 9FED586B 		vldr.64	d6, .L46
 112:MultiEffect.cpp **** 
 1963              		.loc 18 112 22 view .LVU561
 1964 0210 0FCC     		ldmia	r4!, {r0, r1, r2, r3}
 112:MultiEffect.cpp **** 
 1965              		.loc 18 112 41 view .LVU562
 1966 0212 27EE067B 		vmul.f64	d7, d7, d6
 112:MultiEffect.cpp **** 
 1967              		.loc 18 112 22 view .LVU563
 1968 0216 0FC5     		stmia	r5!, {r0, r1, r2, r3}
 1969 0218 94E80F00 		ldm	r4, {r0, r1, r2, r3}
 112:MultiEffect.cpp **** 
 1970              		.loc 18 112 17 view .LVU564
 1971 021c B7EEC70B 		vcvt.f32.f64	s0, d7
 112:MultiEffect.cpp **** 
 1972              		.loc 18 112 22 view .LVU565
 1973 0220 85E80F00 		stm	r5, {r0, r1, r2, r3}
 112:MultiEffect.cpp **** 
 1974              		.loc 18 112 17 view .LVU566
 1975 0224 0222     		movs	r2, #2
 1976 0226 02A9     		add	r1, sp, #8
 1977 0228 6A48     		ldr	r0, .L46+100
 1978 022a FFF7FEFF 		bl	_ZN5daisy9Parameter4InitENS_13AnalogControlEffNS0_5CurveE
 1979              	.LVL83:
 1980              	.LBB881:
 1981              	.LBI881:
 1982              		.loc 5 23 5 is_stmt 1 view .LVU567
 1983              		.loc 5 23 5 is_stmt 0 view .LVU568
 1984              	.LBE881:
 117:MultiEffect.cpp ****     dell.SetDelay(currentDelay);
 1985              		.loc 18 117 5 is_stmt 1 view .LVU569
 117:MultiEffect.cpp ****     dell.SetDelay(currentDelay);
 1986              		.loc 18 117 46 is_stmt 0 view .LVU570
 1987 022e F6EE087A 		vmov.f32	s15, #7.5e-1
 120:MultiEffect.cpp ****     delr2.SetDelay(currentDelay+1000);
 1988              		.loc 18 120 19 view .LVU571
 1989 0232 9FED697A 		vldr.32	s14, .L46+104
 117:MultiEffect.cpp ****     dell.SetDelay(currentDelay);
 1990              		.loc 18 117 32 view .LVU572
 1991 0236 694B     		ldr	r3, .L46+108
 117:MultiEffect.cpp ****     dell.SetDelay(currentDelay);
 1992              		.loc 18 117 46 view .LVU573
 1993 0238 68EEA78A 		vmul.f32	s17, s17, s15
 1994              	.LVL84:
 121:MultiEffect.cpp **** 
 1995              		.loc 18 121 19 view .LVU574
 1996 023c DFED687A 		vldr.32	s15, .L46+112
 1997              	.LBB882:
 1998              	.LBB883:
  56:../../DaisySP/Source/Utility/delayline.h ****                                                            : max_size - 1;
 1999              		.loc 17 56 60 view .LVU575
 2000 0240 6849     		ldr	r1, .L46+116
 2001              	.LBE883:
 2002              	.LBE882:
ARM GAS  C:\Users\seanw\AppData\Local\Temp\ccbivcrf.s 			page 64


 126:MultiEffect.cpp ****     crs.SetDelay(.7f);
 2003              		.loc 18 126 20 view .LVU576
 2004 0242 9FED690A 		vldr.32	s0, .L46+120
 2005              	.LBB891:
 2006              	.LBB884:
  54:../../DaisySP/Source/Utility/delayline.h ****         frac_             = delay - static_cast<float>(int_delay);
 2007              		.loc 17 54 17 view .LVU577
 2008 0246 FDEEE86A 		vcvt.s32.f32	s13, s17
 2009              	.LBE884:
 2010              	.LBE891:
 117:MultiEffect.cpp ****     dell.SetDelay(currentDelay);
 2011              		.loc 18 117 32 view .LVU578
 2012 024a C3ED008A 		vstr.32	s17, [r3]
 120:MultiEffect.cpp ****     delr2.SetDelay(currentDelay+1000);
 2013              		.loc 18 120 19 view .LVU579
 2014 024e 38EE877A 		vadd.f32	s14, s17, s14
 126:MultiEffect.cpp ****     crs.SetDelay(.7f);
 2015              		.loc 18 126 20 view .LVU580
 2016 0252 4E48     		ldr	r0, .L46+28
 121:MultiEffect.cpp **** 
 2017              		.loc 18 121 19 view .LVU581
 2018 0254 78EEA77A 		vadd.f32	s15, s17, s15
 2019              	.LBB892:
 2020              	.LBB885:
  56:../../DaisySP/Source/Utility/delayline.h ****                                                            : max_size - 1;
 2021              		.loc 17 56 60 view .LVU582
 2022 0258 16EE903A 		vmov	r3, s13	@ int
  55:../../DaisySP/Source/Utility/delayline.h ****         delay_ = static_cast<size_t>(int_delay) < max_size ? int_delay
 2023              		.loc 17 55 37 view .LVU583
 2024 025c B8EEE65A 		vcvt.f32.s32	s10, s13
 2025              	.LBE885:
 2026              	.LBE892:
 2027              	.LBB893:
 2028              	.LBB894:
  54:../../DaisySP/Source/Utility/delayline.h ****         frac_             = delay - static_cast<float>(int_delay);
 2029              		.loc 17 54 17 view .LVU584
 2030 0260 FDEEC75A 		vcvt.s32.f32	s11, s14
 2031              	.LBE894:
 2032              	.LBE893:
 2033              	.LBB901:
 2034              	.LBB886:
  56:../../DaisySP/Source/Utility/delayline.h ****                                                            : max_size - 1;
 2035              		.loc 17 56 60 view .LVU585
 2036 0264 8B42     		cmp	r3, r1
 2037              	.LBE886:
 2038              	.LBE901:
 2039              	.LBB902:
 2040              	.LBB903:
  54:../../DaisySP/Source/Utility/delayline.h ****         frac_             = delay - static_cast<float>(int_delay);
 2041              		.loc 17 54 17 view .LVU586
 2042 0266 BDEEE76A 		vcvt.s32.f32	s12, s15
 2043              	.LBE903:
 2044              	.LBE902:
 2045              	.LBB909:
 2046              	.LBB887:
  55:../../DaisySP/Source/Utility/delayline.h ****         delay_ = static_cast<size_t>(int_delay) < max_size ? int_delay
 2047              		.loc 17 55 35 view .LVU587
ARM GAS  C:\Users\seanw\AppData\Local\Temp\ccbivcrf.s 			page 65


 2048 026a 38EEC55A 		vsub.f32	s10, s17, s10
 2049              	.LBE887:
 2050              	.LBE909:
 2051              	.LBB910:
 2052              	.LBB895:
  56:../../DaisySP/Source/Utility/delayline.h ****                                                            : max_size - 1;
 2053              		.loc 17 56 60 view .LVU588
 2054 026e 15EE902A 		vmov	r2, s11	@ int
 2055              	.LBE895:
 2056              	.LBE910:
 2057              	.LBB911:
 2058              	.LBB888:
 2059 0272 28BF     		it	cs
 2060 0274 0B46     		movcs	r3, r1
 2061              	.LBE888:
 2062              	.LBE911:
 2063              	.LBB912:
 2064              	.LBB896:
  55:../../DaisySP/Source/Utility/delayline.h ****         delay_ = static_cast<size_t>(int_delay) < max_size ? int_delay
 2065              		.loc 17 55 37 view .LVU589
 2066 0276 B8EEE54A 		vcvt.f32.s32	s8, s11
  56:../../DaisySP/Source/Utility/delayline.h ****                                                            : max_size - 1;
 2067              		.loc 17 56 60 view .LVU590
 2068 027a 8A42     		cmp	r2, r1
 2069              	.LBE896:
 2070              	.LBE912:
 2071              	.LBB913:
 2072              	.LBB889:
  56:../../DaisySP/Source/Utility/delayline.h ****                                                            : max_size - 1;
 2073              		.loc 17 56 16 view .LVU591
 2074 027c CAF80830 		str	r3, [r10, #8]
 2075              	.LBE889:
 2076              	.LBE913:
 2077              	.LBB914:
 2078              	.LBB915:
 2079 0280 C9F80830 		str	r3, [r9, #8]
 2080              	.LBE915:
 2081              	.LBE914:
 2082              	.LBB917:
 2083              	.LBB904:
  56:../../DaisySP/Source/Utility/delayline.h ****                                                            : max_size - 1;
 2084              		.loc 17 56 60 view .LVU592
 2085 0284 16EE103A 		vmov	r3, s12	@ int
  55:../../DaisySP/Source/Utility/delayline.h ****         delay_ = static_cast<size_t>(int_delay) < max_size ? int_delay
 2086              		.loc 17 55 37 view .LVU593
 2087 0288 F8EEC64A 		vcvt.f32.s32	s9, s12
 2088              	.LBE904:
 2089              	.LBE917:
 2090              	.LBB918:
 2091              	.LBB897:
  56:../../DaisySP/Source/Utility/delayline.h ****                                                            : max_size - 1;
 2092              		.loc 17 56 60 view .LVU594
 2093 028c 28BF     		it	cs
 2094 028e 0A46     		movcs	r2, r1
 2095              	.LBE897:
 2096              	.LBE918:
 2097              	.LBB919:
ARM GAS  C:\Users\seanw\AppData\Local\Temp\ccbivcrf.s 			page 66


 2098              	.LBB905:
 2099 0290 8B42     		cmp	r3, r1
 2100              	.LBE905:
 2101              	.LBE919:
 2102              	.LBB920:
 2103              	.LBB898:
  55:../../DaisySP/Source/Utility/delayline.h ****         delay_ = static_cast<size_t>(int_delay) < max_size ? int_delay
 2104              		.loc 17 55 35 view .LVU595
 2105 0292 37EE447A 		vsub.f32	s14, s14, s8
 2106              	.LBE898:
 2107              	.LBE920:
 2108              	.LBB921:
 2109              	.LBB890:
  55:../../DaisySP/Source/Utility/delayline.h ****         delay_ = static_cast<size_t>(int_delay) < max_size ? int_delay
 2110              		.loc 17 55 27 view .LVU596
 2111 0296 8AED005A 		vstr.32	s10, [r10]
 2112              	.LBE890:
 2113              	.LBE921:
 2114              	.LBB922:
 2115              	.LBB906:
  56:../../DaisySP/Source/Utility/delayline.h ****                                                            : max_size - 1;
 2116              		.loc 17 56 60 view .LVU597
 2117 029a 28BF     		it	cs
 2118 029c 0B46     		movcs	r3, r1
  55:../../DaisySP/Source/Utility/delayline.h ****         delay_ = static_cast<size_t>(int_delay) < max_size ? int_delay
 2119              		.loc 17 55 35 view .LVU598
 2120 029e 77EEE47A 		vsub.f32	s15, s15, s9
 2121              	.LBE906:
 2122              	.LBE922:
 2123              	.LBB923:
 2124              	.LBB916:
  55:../../DaisySP/Source/Utility/delayline.h ****         delay_ = static_cast<size_t>(int_delay) < max_size ? int_delay
 2125              		.loc 17 55 27 view .LVU599
 2126 02a2 89ED005A 		vstr.32	s10, [r9]
 2127              	.LBE916:
 2128              	.LBE923:
 2129              	.LBB924:
 2130              	.LBB907:
  56:../../DaisySP/Source/Utility/delayline.h ****                                                            : max_size - 1;
 2131              		.loc 17 56 16 view .LVU600
 2132 02a6 BB60     		str	r3, [r7, #8]
 2133              	.LBE907:
 2134              	.LBE924:
 117:MultiEffect.cpp ****     dell.SetDelay(currentDelay);
 2135              		.loc 18 117 18 view .LVU601
 2136 02a8 504B     		ldr	r3, .L46+124
 2137              	.LBB925:
 2138              	.LBB899:
  55:../../DaisySP/Source/Utility/delayline.h ****         delay_ = static_cast<size_t>(int_delay) < max_size ? int_delay
 2139              		.loc 17 55 27 view .LVU602
 2140 02aa 88ED007A 		vstr.32	s14, [r8]
 2141              	.LBE899:
 2142              	.LBE925:
 2143              	.LBB926:
 2144              	.LBB908:
 2145 02ae C7ED007A 		vstr.32	s15, [r7]
 2146              	.LBE908:
ARM GAS  C:\Users\seanw\AppData\Local\Temp\ccbivcrf.s 			page 67


 2147              	.LBE926:
 2148              	.LBB927:
 2149              	.LBB900:
  56:../../DaisySP/Source/Utility/delayline.h ****                                                            : max_size - 1;
 2150              		.loc 17 56 16 view .LVU603
 2151 02b2 C8F80820 		str	r2, [r8, #8]
 2152              	.LBE900:
 2153              	.LBE927:
 117:MultiEffect.cpp ****     dell.SetDelay(currentDelay);
 2154              		.loc 18 117 18 view .LVU604
 2155 02b6 C3ED008A 		vstr.32	s17, [r3]
 118:MultiEffect.cpp ****     delr.SetDelay(currentDelay);
 2156              		.loc 18 118 5 is_stmt 1 view .LVU605
 2157              	.LVL85:
 2158              	.LBB928:
 2159              	.LBI882:
  52:../../DaisySP/Source/Utility/delayline.h ****     {
 2160              		.loc 17 52 17 view .LVU606
  52:../../DaisySP/Source/Utility/delayline.h ****     {
 2161              		.loc 17 52 17 is_stmt 0 view .LVU607
 2162              	.LBE928:
 119:MultiEffect.cpp ****     dell2.SetDelay(currentDelay+500);
 2163              		.loc 18 119 5 is_stmt 1 view .LVU608
 2164              	.LBB929:
 2165              	.LBI914:
  52:../../DaisySP/Source/Utility/delayline.h ****     {
 2166              		.loc 17 52 17 view .LVU609
  52:../../DaisySP/Source/Utility/delayline.h ****     {
 2167              		.loc 17 52 17 is_stmt 0 view .LVU610
 2168              	.LBE929:
 120:MultiEffect.cpp ****     delr2.SetDelay(currentDelay+1000);
 2169              		.loc 18 120 5 is_stmt 1 view .LVU611
 2170              	.LBB930:
 2171              	.LBI893:
  52:../../DaisySP/Source/Utility/delayline.h ****     {
 2172              		.loc 17 52 17 view .LVU612
  52:../../DaisySP/Source/Utility/delayline.h ****     {
 2173              		.loc 17 52 17 is_stmt 0 view .LVU613
 2174              	.LBE930:
 121:MultiEffect.cpp **** 
 2175              		.loc 18 121 5 is_stmt 1 view .LVU614
 2176              	.LBB931:
 2177              	.LBI902:
  52:../../DaisySP/Source/Utility/delayline.h ****     {
 2178              		.loc 17 52 17 view .LVU615
  52:../../DaisySP/Source/Utility/delayline.h ****     {
 2179              		.loc 17 52 17 is_stmt 0 view .LVU616
 2180              	.LBE931:
 126:MultiEffect.cpp ****     crs.SetDelay(.7f);
 2181              		.loc 18 126 5 is_stmt 1 view .LVU617
 126:MultiEffect.cpp ****     crs.SetDelay(.7f);
 2182              		.loc 18 126 20 is_stmt 0 view .LVU618
 2183 02ba FFF7FEFF 		bl	_ZN7daisysp6Chorus11SetFeedbackEf
 2184              	.LVL86:
 127:MultiEffect.cpp ****     crs2.SetFeedback(.1f);
 2185              		.loc 18 127 5 is_stmt 1 view .LVU619
 127:MultiEffect.cpp ****     crs2.SetFeedback(.1f);
ARM GAS  C:\Users\seanw\AppData\Local\Temp\ccbivcrf.s 			page 68


 2186              		.loc 18 127 17 is_stmt 0 view .LVU620
 2187 02be 9FED4C0A 		vldr.32	s0, .L46+128
 2188 02c2 3248     		ldr	r0, .L46+28
 2189 02c4 FFF7FEFF 		bl	_ZN7daisysp6Chorus8SetDelayEf
 2190              	.LVL87:
 128:MultiEffect.cpp ****     crs2.SetDelay(.82f);
 2191              		.loc 18 128 5 is_stmt 1 view .LVU621
 128:MultiEffect.cpp ****     crs2.SetDelay(.82f);
 2192              		.loc 18 128 21 is_stmt 0 view .LVU622
 2193 02c8 9FED470A 		vldr.32	s0, .L46+120
 2194 02cc 3048     		ldr	r0, .L46+32
 2195 02ce FFF7FEFF 		bl	_ZN7daisysp6Chorus11SetFeedbackEf
 2196              	.LVL88:
 129:MultiEffect.cpp ****     crs3.SetFeedback(.1f);
 2197              		.loc 18 129 5 is_stmt 1 view .LVU623
 129:MultiEffect.cpp ****     crs3.SetFeedback(.1f);
 2198              		.loc 18 129 18 is_stmt 0 view .LVU624
 2199 02d2 9FED480A 		vldr.32	s0, .L46+132
 2200 02d6 2E48     		ldr	r0, .L46+32
 2201 02d8 FFF7FEFF 		bl	_ZN7daisysp6Chorus8SetDelayEf
 2202              	.LVL89:
 130:MultiEffect.cpp ****     crs3.SetDelay(.9f);
 2203              		.loc 18 130 5 is_stmt 1 view .LVU625
 130:MultiEffect.cpp ****     crs3.SetDelay(.9f);
 2204              		.loc 18 130 21 is_stmt 0 view .LVU626
 2205 02dc 9FED420A 		vldr.32	s0, .L46+120
 2206 02e0 2C48     		ldr	r0, .L46+36
 2207 02e2 FFF7FEFF 		bl	_ZN7daisysp6Chorus11SetFeedbackEf
 2208              	.LVL90:
 131:MultiEffect.cpp ****     crs4.SetFeedback(.1f);
 2209              		.loc 18 131 5 is_stmt 1 view .LVU627
 131:MultiEffect.cpp ****     crs4.SetFeedback(.1f);
 2210              		.loc 18 131 18 is_stmt 0 view .LVU628
 2211 02e6 9FED440A 		vldr.32	s0, .L46+136
 2212 02ea 2A48     		ldr	r0, .L46+36
 2213 02ec FFF7FEFF 		bl	_ZN7daisysp6Chorus8SetDelayEf
 2214              	.LVL91:
 132:MultiEffect.cpp ****     crs4.SetDelay(.97f);
 2215              		.loc 18 132 5 is_stmt 1 view .LVU629
 132:MultiEffect.cpp ****     crs4.SetDelay(.97f);
 2216              		.loc 18 132 21 is_stmt 0 view .LVU630
 2217 02f0 9FED3D0A 		vldr.32	s0, .L46+120
 2218 02f4 2848     		ldr	r0, .L46+40
 2219 02f6 FFF7FEFF 		bl	_ZN7daisysp6Chorus11SetFeedbackEf
 2220              	.LVL92:
 133:MultiEffect.cpp **** 
 2221              		.loc 18 133 5 is_stmt 1 view .LVU631
 133:MultiEffect.cpp **** 
 2222              		.loc 18 133 18 is_stmt 0 view .LVU632
 2223 02fa 9FED400A 		vldr.32	s0, .L46+140
 2224 02fe 2648     		ldr	r0, .L46+40
 2225 0300 FFF7FEFF 		bl	_ZN7daisysp6Chorus8SetDelayEf
 2226              	.LVL93:
 2227              		.loc 18 136 5 is_stmt 1 view .LVU633
 2228              		.loc 18 136 15 is_stmt 0 view .LVU634
 2229 0304 0421     		movs	r1, #4
 137:MultiEffect.cpp ****     psr.SetPoles(numstages);
ARM GAS  C:\Users\seanw\AppData\Local\Temp\ccbivcrf.s 			page 69


 2230              		.loc 18 137 17 view .LVU635
 2231 0306 2548     		ldr	r0, .L46+44
 136:MultiEffect.cpp ****     psr.SetPoles(numstages);
 2232              		.loc 18 136 15 view .LVU636
 2233 0308 CBF80010 		str	r1, [fp]
 2234              		.loc 18 137 5 is_stmt 1 view .LVU637
 2235              		.loc 18 137 17 is_stmt 0 view .LVU638
 2236 030c FFF7FEFF 		bl	_ZN7daisysp6Phaser8SetPolesEi
 2237              	.LVL94:
 138:MultiEffect.cpp ****     psr2.SetPoles(numstages);
 2238              		.loc 18 138 5 is_stmt 1 view .LVU639
 2239              		.loc 18 138 18 is_stmt 0 view .LVU640
 2240 0310 DBF80010 		ldr	r1, [fp]
 2241 0314 2248     		ldr	r0, .L46+48
 2242 0316 FFF7FEFF 		bl	_ZN7daisysp6Phaser8SetPolesEi
 2243              	.LVL95:
 139:MultiEffect.cpp ****     freqtarget = freq = 0.f;
 2244              		.loc 18 139 5 is_stmt 1 view .LVU641
 2245              		.loc 18 139 23 is_stmt 0 view .LVU642
 2246 031a 394B     		ldr	r3, .L46+144
 2247              		.loc 18 139 16 view .LVU643
 2248 031c 394A     		ldr	r2, .L46+148
 140:MultiEffect.cpp ****     lfotarget = lfo = 0.f;
 141:MultiEffect.cpp **** 
 142:MultiEffect.cpp ****     //pitchshifter parameters
 143:MultiEffect.cpp ****     pst.SetTransposition(12.0f);
 2249              		.loc 18 143 25 view .LVU644
 2250 031e B2EE080A 		vmov.f32	s0, #1.2e+1
 139:MultiEffect.cpp ****     freqtarget = freq = 0.f;
 2251              		.loc 18 139 23 view .LVU645
 2252 0322 83ED008A 		vstr.32	s16, [r3]
 140:MultiEffect.cpp ****     lfotarget = lfo = 0.f;
 2253              		.loc 18 140 21 view .LVU646
 2254 0326 384B     		ldr	r3, .L46+152
 2255              		.loc 18 143 25 view .LVU647
 2256 0328 1F48     		ldr	r0, .L46+56
 140:MultiEffect.cpp ****     lfotarget = lfo = 0.f;
 2257              		.loc 18 140 21 view .LVU648
 2258 032a 83ED008A 		vstr.32	s16, [r3]
 140:MultiEffect.cpp ****     lfotarget = lfo = 0.f;
 2259              		.loc 18 140 15 view .LVU649
 2260 032e 374B     		ldr	r3, .L46+156
 139:MultiEffect.cpp ****     freqtarget = freq = 0.f;
 2261              		.loc 18 139 16 view .LVU650
 2262 0330 82ED008A 		vstr.32	s16, [r2]
 140:MultiEffect.cpp ****     lfotarget = lfo = 0.f;
 2263              		.loc 18 140 5 is_stmt 1 view .LVU651
 140:MultiEffect.cpp ****     lfotarget = lfo = 0.f;
 2264              		.loc 18 140 15 is_stmt 0 view .LVU652
 2265 0334 83ED008A 		vstr.32	s16, [r3]
 2266              		.loc 18 143 5 is_stmt 1 view .LVU653
 2267              		.loc 18 143 25 is_stmt 0 view .LVU654
 2268 0338 FFF7FEFF 		bl	_ZN7daisysp12PitchShifter16SetTranspositionERKf.isra.0
 2269              	.LVL96:
 144:MultiEffect.cpp ****     /***
 145:MultiEffect.cpp ****     sets delay size changing the timbre of the pitchshifting  ***/
 146:MultiEffect.cpp ****     octDelSize = 256;
ARM GAS  C:\Users\seanw\AppData\Local\Temp\ccbivcrf.s 			page 70


 2270              		.loc 18 146 5 is_stmt 1 view .LVU655
 2271              		.loc 18 146 16 is_stmt 0 view .LVU656
 2272 033c 4FF48073 		mov	r3, #256
 2273 0340 3349     		ldr	r1, .L46+160
 2274              	.LBB932:
 2275              	.LBB933:
 176:../../DaisySP/Source/Effects/pitchshifter.h ****         SetTransposition(transpose_);
 2276              		.loc 3 176 23 view .LVU657
 2277 0342 0122     		movs	r2, #1
 177:../../DaisySP/Source/Effects/pitchshifter.h ****     }
 2278              		.loc 3 177 25 view .LVU658
 2279 0344 96ED180A 		vldr.32	s0, [r6, #96]
 2280 0348 1748     		ldr	r0, .L46+56
 2281              	.LBE933:
 2282              	.LBE932:
 2283              		.loc 18 146 16 view .LVU659
 2284 034a 0B60     		str	r3, [r1]
 147:MultiEffect.cpp ****     pst.SetDelSize(octDelSize);
 2285              		.loc 18 147 5 is_stmt 1 view .LVU660
 2286              	.LVL97:
 2287              	.LBB935:
 2288              	.LBI932:
 173:../../DaisySP/Source/Effects/pitchshifter.h ****     {
 2289              		.loc 3 173 10 view .LVU661
 2290              	.LBB934:
 175:../../DaisySP/Source/Effects/pitchshifter.h ****         force_recalc_ = true;
 2291              		.loc 3 175 9 view .LVU662
 175:../../DaisySP/Source/Effects/pitchshifter.h ****         force_recalc_ = true;
 2292              		.loc 3 175 23 is_stmt 0 view .LVU663
 2293 034c 3362     		str	r3, [r6, #32]
 176:../../DaisySP/Source/Effects/pitchshifter.h ****         SetTransposition(transpose_);
 2294              		.loc 3 176 9 is_stmt 1 view .LVU664
 176:../../DaisySP/Source/Effects/pitchshifter.h ****         SetTransposition(transpose_);
 2295              		.loc 3 176 23 is_stmt 0 view .LVU665
 2296 034e 86F82420 		strb	r2, [r6, #36]
 177:../../DaisySP/Source/Effects/pitchshifter.h ****     }
 2297              		.loc 3 177 9 is_stmt 1 view .LVU666
 177:../../DaisySP/Source/Effects/pitchshifter.h ****     }
 2298              		.loc 3 177 25 is_stmt 0 view .LVU667
 2299 0352 FFF7FEFF 		bl	_ZN7daisysp12PitchShifter16SetTranspositionERKf.isra.0
 2300              	.LVL98:
 177:../../DaisySP/Source/Effects/pitchshifter.h ****     }
 2301              		.loc 3 177 25 view .LVU668
 2302              	.LBE934:
 2303              	.LBE935:
 148:MultiEffect.cpp **** 
 149:MultiEffect.cpp **** 
 150:MultiEffect.cpp ****     // start callback
 151:MultiEffect.cpp ****     pod.StartAdc();
 2304              		.loc 18 151 5 is_stmt 1 view .LVU669
 2305              		.loc 18 151 17 is_stmt 0 view .LVU670
 2306 0356 A4F16800 		sub	r0, r4, #104
 2307 035a FFF7FEFF 		bl	_ZN5daisy8DaisyPod8StartAdcEv
 2308              	.LVL99:
 152:MultiEffect.cpp ****     pod.StartAudio(AudioCallback);
 2309              		.loc 18 152 5 is_stmt 1 view .LVU671
 2310              		.loc 18 152 19 is_stmt 0 view .LVU672
ARM GAS  C:\Users\seanw\AppData\Local\Temp\ccbivcrf.s 			page 71


 2311 035e 2D49     		ldr	r1, .L46+164
 2312 0360 A4F16800 		sub	r0, r4, #104
 2313 0364 FFF7FEFF 		bl	_ZN5daisy8DaisyPod10StartAudioEPFvPKfPfjE
 2314              	.LVL100:
 2315 0368 5EE0     		b	.L47
 2316              	.L48:
 2317 036a 00BFAFF3 		.align	3
 2317      0080
 2318              	.L46:
 2319 0370 9A999999 		.word	-1717986918
 2320 0374 9999A93F 		.word	1068079513
 2321 0378 00000000 		.word	_ZL3pod
 2322 037c 00000000 		.word	_ZL5delr2
 2323 0380 00000200 		.word	_ZL3pst+131072
 2324 0384 00530700 		.word	480000
 2325 0388 30F91500 		.word	_ZL4dell+12
 2326 038c 00000000 		.word	_ZL3crs
 2327 0390 00000000 		.word	_ZL4crs2
 2328 0394 00000000 		.word	_ZL4crs3
 2329 0398 00000000 		.word	_ZL4crs4
 2330 039c 00000000 		.word	_ZL3psr
 2331 03a0 00000000 		.word	_ZL4psr2
 2332 03a4 0000A040 		.word	1084227584
 2333 03a8 00000000 		.word	_ZL3pst
 2334 03ac 00000000 		.word	0
 2335 03b0 00004842 		.word	1112014848
 2336 03b4 30000200 		.word	_ZL3pst+131120
 2337 03b8 18000100 		.word	_ZL3pst+65560
 2338 03bc 40000200 		.word	_ZL3pst+131136
 2339 03c0 DB0F4940 		.word	1078530011
 2340 03c4 ABAAAAAA 		.word	-1431655765
 2341 03c8 00008038 		.word	947912704
 2342 03cc 58000000 		.word	_ZL3pod+88
 2343 03d0 0060EA47 		.word	1206542336
 2344 03d4 00000000 		.word	.LANCHOR0
 2345 03d8 0000FA43 		.word	1140457472
 2346 03dc 00000000 		.word	.LANCHOR1
 2347 03e0 00007A44 		.word	1148846080
 2348 03e4 BFD40100 		.word	119999
 2349 03e8 CDCCCC3D 		.word	1036831949
 2350 03ec 00000000 		.word	.LANCHOR2
 2351 03f0 3333333F 		.word	1060320051
 2352 03f4 85EB513F 		.word	1062333317
 2353 03f8 6666663F 		.word	1063675494
 2354 03fc EC51783F 		.word	1064849900
 2355 0400 00000000 		.word	.LANCHOR4
 2356 0404 00000000 		.word	.LANCHOR5
 2357 0408 00000000 		.word	.LANCHOR6
 2358 040c 00000000 		.word	.LANCHOR7
 2359 0410 00000000 		.word	.LANCHOR8
 2360 0414 00000000 		.word	_Z13AudioCallbackPKfPfj
 2361 0418 18A60E00 		.word	_ZL4delr
 2362 041c 0C530700 		.word	_ZL5dell2
 2363 0420 24F91500 		.word	_ZL4dell
 2364 0424 00000000 		.word	.LANCHOR3
 2365              	.L47:
 2366              	.L40:
ARM GAS  C:\Users\seanw\AppData\Local\Temp\ccbivcrf.s 			page 72


 153:MultiEffect.cpp **** 
 154:MultiEffect.cpp ****     while(1) {}
 2367              		.loc 18 154 5 is_stmt 1 discriminator 1 view .LVU673
 2368              		.loc 18 154 5 discriminator 1 view .LVU674
 2369              		.loc 18 154 5 discriminator 1 view .LVU675
 2370              		.loc 18 154 5 discriminator 1 view .LVU676
 2371 0428 FEE7     		b	.L40
 2372              		.cfi_endproc
 2373              	.LFE4404:
 2375 042a 00BF     		.section	.text._Z11UpdateKnobsRfS_,"ax",%progbits
 2376              		.align	1
 2377              		.p2align 2,,3
 2378              		.global	_Z11UpdateKnobsRfS_
 2379              		.syntax unified
 2380              		.thumb
 2381              		.thumb_func
 2382              		.fpu fpv5-d16
 2384              	_Z11UpdateKnobsRfS_:
 2385              	.LVL101:
 2386              	.LFB4405:
 155:MultiEffect.cpp **** }
 156:MultiEffect.cpp **** 
 157:MultiEffect.cpp **** void UpdateKnobs(float &k1, float &k2)
 158:MultiEffect.cpp **** {
 2387              		.loc 18 158 1 view -0
 2388              		.cfi_startproc
 2389              		@ args = 0, pretend = 0, frame = 0
 2390              		@ frame_needed = 0, uses_anonymous_args = 0
 159:MultiEffect.cpp ****     k1 = pod.knob1.Process();
 2391              		.loc 18 159 5 view .LVU678
 158:MultiEffect.cpp ****     k1 = pod.knob1.Process();
 2392              		.loc 18 158 1 is_stmt 0 view .LVU679
 2393 0000 38B5     		push	{r3, r4, r5, lr}
 2394              		.cfi_def_cfa_offset 16
 2395              		.cfi_offset 3, -16
 2396              		.cfi_offset 4, -12
 2397              		.cfi_offset 5, -8
 2398              		.cfi_offset 14, -4
 2399 0002 0446     		mov	r4, r0
 2400              		.loc 18 159 27 view .LVU680
 2401 0004 6048     		ldr	r0, .L59+16
 2402              	.LVL102:
 158:MultiEffect.cpp ****     k1 = pod.knob1.Process();
 2403              		.loc 18 158 1 view .LVU681
 2404 0006 0D46     		mov	r5, r1
 2405 0008 2DED028B 		vpush.64	{d8}
 2406              		.cfi_def_cfa_offset 24
 2407              		.cfi_offset 80, -24
 2408              		.cfi_offset 81, -20
 2409              		.loc 18 159 27 view .LVU682
 2410 000c FFF7FEFF 		bl	_ZN5daisy13AnalogControl7ProcessEv
 2411              	.LVL103:
 160:MultiEffect.cpp ****     k2 = pod.knob2.Process();
 2412              		.loc 18 160 27 view .LVU683
 2413 0010 5E48     		ldr	r0, .L59+20
 159:MultiEffect.cpp ****     k1 = pod.knob1.Process();
 2414              		.loc 18 159 8 view .LVU684
ARM GAS  C:\Users\seanw\AppData\Local\Temp\ccbivcrf.s 			page 73


 2415 0012 84ED000A 		vstr.32	s0, [r4]
 2416              		.loc 18 160 5 is_stmt 1 view .LVU685
 2417              		.loc 18 160 27 is_stmt 0 view .LVU686
 2418 0016 FFF7FEFF 		bl	_ZN5daisy13AnalogControl7ProcessEv
 2419              	.LVL104:
 161:MultiEffect.cpp **** 
 162:MultiEffect.cpp ****     switch(mode)
 2420              		.loc 18 162 5 view .LVU687
 2421 001a 5D4B     		ldr	r3, .L59+24
 160:MultiEffect.cpp ****     k2 = pod.knob2.Process();
 2422              		.loc 18 160 8 view .LVU688
 2423 001c 85ED000A 		vstr.32	s0, [r5]
 2424              		.loc 18 162 5 is_stmt 1 view .LVU689
 2425 0020 1B68     		ldr	r3, [r3]
 2426 0022 042B     		cmp	r3, #4
 2427 0024 07D8     		bhi	.L49
 2428 0026 DFE803F0 		tbb	[pc, r3]
 2429              	.L52:
 2430 002a 09       		.byte	(.L56-.L52)/2
 2431 002b 77       		.byte	(.L55-.L52)/2
 2432 002c 83       		.byte	(.L54-.L52)/2
 2433 002d 9D       		.byte	(.L53-.L52)/2
 2434 002e 03       		.byte	(.L51-.L52)/2
 2435 002f 00       		.p2align 1
 2436              	.L51:
 163:MultiEffect.cpp ****     {
 164:MultiEffect.cpp ****         /// a allan holdsworth inspired chorus plus stereo delay lead sound 
 165:MultiEffect.cpp ****         case CHRDEL:
 166:MultiEffect.cpp ****             drywet = k1;
 167:MultiEffect.cpp ****             delayTarget = deltime.Process();
 168:MultiEffect.cpp ****             feedback    = k1*0.2 + k2*0.1; 
 169:MultiEffect.cpp ****             /**
 170:MultiEffect.cpp ****             crs.SetLfoDepth(0.15f+k2*0.35f);
 171:MultiEffect.cpp ****             crs2.SetLfoDepth(0.2f+k2*0.26f);
 172:MultiEffect.cpp ****             crs3.SetLfoDepth(0.23f+k2*0.37f);
 173:MultiEffect.cpp ****             crs4.SetLfoDepth(0.25f+k2*0.29f);
 174:MultiEffect.cpp ****             **/
 175:MultiEffect.cpp ****             crs.SetLfoDepth(4.0f + k1*1.1f );
 176:MultiEffect.cpp ****             crs2.SetLfoDepth(5.0f + k1*1.2f);
 177:MultiEffect.cpp ****             crs3.SetLfoDepth(6.0f + k1*0.9f);
 178:MultiEffect.cpp ****             crs4.SetLfoDepth(7.0f + k1*0.8f);
 179:MultiEffect.cpp ****             /**Set lfo frequency Frequency in Hz */
 180:MultiEffect.cpp ****             crs.SetLfoFreq(k2*0.6f);
 181:MultiEffect.cpp ****             crs2.SetLfoFreq(k2*0.7f);
 182:MultiEffect.cpp ****             crs3.SetLfoFreq(k2*0.8f); 
 183:MultiEffect.cpp ****             crs4.SetLfoFreq(k2*0.9f); 
 184:MultiEffect.cpp ****             
 185:MultiEffect.cpp ****             break;
 186:MultiEffect.cpp ****             // a stereo delay without chorus 
 187:MultiEffect.cpp ****         case DEL:
 188:MultiEffect.cpp ****             delayTarget = deltime.Process();
 189:MultiEffect.cpp ****             feedback    = k2;
 190:MultiEffect.cpp ****             break;
 191:MultiEffect.cpp ****             // a chorus with no delay/reverb
 192:MultiEffect.cpp ****         case COR:
 193:MultiEffect.cpp ****             drywet = k1;
 194:MultiEffect.cpp ****             /** How much to modulate the delay by Works 0-1.    */
ARM GAS  C:\Users\seanw\AppData\Local\Temp\ccbivcrf.s 			page 74


 195:MultiEffect.cpp ****             crs.SetLfoDepth(4.0f + k1*1.1f );
 196:MultiEffect.cpp ****             crs2.SetLfoDepth(5.0f + k1*1.2f);
 197:MultiEffect.cpp ****             crs3.SetLfoDepth(6.0f + k1*0.9f);
 198:MultiEffect.cpp ****             crs4.SetLfoDepth(7.0f + k1*0.8f);
 199:MultiEffect.cpp ****             /**Set lfo frequency Frequency in Hz */
 200:MultiEffect.cpp ****             crs.SetLfoFreq(k2*0.6f);
 201:MultiEffect.cpp ****             crs2.SetLfoFreq(k2*0.7f);
 202:MultiEffect.cpp ****             crs3.SetLfoFreq(k2*0.8f); 
 203:MultiEffect.cpp ****             crs4.SetLfoFreq(k2*0.9f); 
 204:MultiEffect.cpp **** 
 205:MultiEffect.cpp ****             break;
 206:MultiEffect.cpp ****         case PHR:
 207:MultiEffect.cpp ****             //ap_freq Frequency in Hz
 208:MultiEffect.cpp ****             /*** = k1 * k1 * 7000;
 209:MultiEffect.cpp ****             fonepole(freq, freqtarget, .0001f); //smooth at audio rate     
 210:MultiEffect.cpp ****             psr.SetFreq(freq);
 211:MultiEffect.cpp ****             //feedback Amount from 0-1.
 212:MultiEffect.cpp ****             psr.SetFeedback(k2);
 213:MultiEffect.cpp ****             //set lfo_freq Frequency in Hz
 214:MultiEffect.cpp ****             lfo = k2*10.0f;
 215:MultiEffect.cpp ****             fonepole(lfo, lfotarget, .0001f); //smooth at audio rate
 216:MultiEffect.cpp ****             psr.SetLfoDepth(lfo);
 217:MultiEffect.cpp ****             psr.SetLfoFreq(k2*10);
 218:MultiEffect.cpp ****             
 219:MultiEffect.cpp ****             // depth Works 0-1
 220:MultiEffect.cpp ****             ***/
 221:MultiEffect.cpp **** 
 222:MultiEffect.cpp ****             drywet = k1;
 223:MultiEffect.cpp ****             lfo = k2;
 224:MultiEffect.cpp **** 
 225:MultiEffect.cpp ****             break;
 226:MultiEffect.cpp ****         case OCT:
 2437              		.loc 18 226 9 view .LVU690
 227:MultiEffect.cpp ****             drywet = k1;
 2438              		.loc 18 227 13 view .LVU691
 2439              		.loc 18 227 22 is_stmt 0 view .LVU692
 2440 0030 2268     		ldr	r2, [r4]	@ float
 2441              		.loc 18 227 20 view .LVU693
 2442 0032 584B     		ldr	r3, .L59+28
 2443 0034 1A60     		str	r2, [r3]	@ float
 228:MultiEffect.cpp ****             break;
 2444              		.loc 18 228 13 is_stmt 1 view .LVU694
 2445              	.L49:
 229:MultiEffect.cpp **** 
 230:MultiEffect.cpp **** 
 231:MultiEffect.cpp **** 
 232:MultiEffect.cpp ****            
 233:MultiEffect.cpp ****     }
 234:MultiEffect.cpp **** }
 2446              		.loc 18 234 1 is_stmt 0 view .LVU695
 2447 0036 BDEC028B 		vldm	sp!, {d8}
 2448              		.cfi_remember_state
 2449              		.cfi_restore 80
 2450              		.cfi_restore 81
 2451              		.cfi_def_cfa_offset 16
 2452 003a 38BD     		pop	{r3, r4, r5, pc}
 2453              	.LVL105:
ARM GAS  C:\Users\seanw\AppData\Local\Temp\ccbivcrf.s 			page 75


 2454              	.L56:
 2455              		.cfi_restore_state
 165:MultiEffect.cpp ****             drywet = k1;
 2456              		.loc 18 165 9 is_stmt 1 view .LVU696
 166:MultiEffect.cpp ****             delayTarget = deltime.Process();
 2457              		.loc 18 166 13 view .LVU697
 166:MultiEffect.cpp ****             delayTarget = deltime.Process();
 2458              		.loc 18 166 22 is_stmt 0 view .LVU698
 2459 003c 2268     		ldr	r2, [r4]	@ float
 166:MultiEffect.cpp ****             delayTarget = deltime.Process();
 2460              		.loc 18 166 20 view .LVU699
 2461 003e 554B     		ldr	r3, .L59+28
 167:MultiEffect.cpp ****             feedback    = k1*0.2 + k2*0.1; 
 2462              		.loc 18 167 42 view .LVU700
 2463 0040 5548     		ldr	r0, .L59+32
 166:MultiEffect.cpp ****             delayTarget = deltime.Process();
 2464              		.loc 18 166 20 view .LVU701
 2465 0042 1A60     		str	r2, [r3]	@ float
 167:MultiEffect.cpp ****             feedback    = k1*0.2 + k2*0.1; 
 2466              		.loc 18 167 13 is_stmt 1 view .LVU702
 167:MultiEffect.cpp ****             feedback    = k1*0.2 + k2*0.1; 
 2467              		.loc 18 167 42 is_stmt 0 view .LVU703
 2468 0044 FFF7FEFF 		bl	_ZN5daisy9Parameter7ProcessEv
 2469              	.LVL106:
 167:MultiEffect.cpp ****             feedback    = k1*0.2 + k2*0.1; 
 2470              		.loc 18 167 25 view .LVU704
 2471 0048 544B     		ldr	r3, .L59+36
 175:MultiEffect.cpp ****             crs2.SetLfoDepth(5.0f + k1*1.2f);
 2472              		.loc 18 175 28 view .LVU705
 2473 004a DFED555A 		vldr.32	s11, .L59+40
 167:MultiEffect.cpp ****             feedback    = k1*0.2 + k2*0.1; 
 2474              		.loc 18 167 25 view .LVU706
 2475 004e 83ED000A 		vstr.32	s0, [r3]
 168:MultiEffect.cpp ****             /**
 2476              		.loc 18 168 13 is_stmt 1 view .LVU707
 175:MultiEffect.cpp ****             crs2.SetLfoDepth(5.0f + k1*1.2f);
 2477              		.loc 18 175 28 is_stmt 0 view .LVU708
 2478 0052 B1EE000A 		vmov.f32	s0, #4.0e+0
 168:MultiEffect.cpp ****             /**
 2479              		.loc 18 168 36 view .LVU709
 2480 0056 95ED007A 		vldr.32	s14, [r5]
 168:MultiEffect.cpp ****             /**
 2481              		.loc 18 168 27 view .LVU710
 2482 005a 94ED006A 		vldr.32	s12, [r4]
 168:MultiEffect.cpp ****             /**
 2483              		.loc 18 168 36 view .LVU711
 2484 005e B7EEC77A 		vcvt.f64.f32	d7, s14
 168:MultiEffect.cpp ****             /**
 2485              		.loc 18 168 25 view .LVU712
 2486 0062 504B     		ldr	r3, .L59+44
 168:MultiEffect.cpp ****             /**
 2487              		.loc 18 168 27 view .LVU713
 2488 0064 B7EEC66A 		vcvt.f64.f32	d6, s12
 175:MultiEffect.cpp ****             crs2.SetLfoDepth(5.0f + k1*1.2f);
 2489              		.loc 18 175 28 view .LVU714
 2490 0068 4F48     		ldr	r0, .L59+48
 177:MultiEffect.cpp ****             crs4.SetLfoDepth(7.0f + k1*0.8f);
ARM GAS  C:\Users\seanw\AppData\Local\Temp\ccbivcrf.s 			page 76


 2491              		.loc 18 177 29 view .LVU715
 2492 006a 9FED508A 		vldr.32	s16, .L59+52
 178:MultiEffect.cpp ****             /**Set lfo frequency Frequency in Hz */
 2493              		.loc 18 178 29 view .LVU716
 2494 006e DFED508A 		vldr.32	s17, .L59+56
 168:MultiEffect.cpp ****             /**
 2495              		.loc 18 168 38 view .LVU717
 2496 0072 9FED413B 		vldr.64	d3, .L59
 168:MultiEffect.cpp ****             /**
 2497              		.loc 18 168 34 view .LVU718
 2498 0076 9FED424B 		vldr.64	d4, .L59+8
 168:MultiEffect.cpp ****             /**
 2499              		.loc 18 168 38 view .LVU719
 2500 007a 27EE037B 		vmul.f64	d7, d7, d3
 168:MultiEffect.cpp ****             /**
 2501              		.loc 18 168 34 view .LVU720
 2502 007e A6EE047B 		vfma.f64	d7, d6, d4
 2503 0082 B7EEC77B 		vcvt.f32.f64	s14, d7
 2504 0086 83ED007A 		vstr.32	s14, [r3]
 175:MultiEffect.cpp ****             crs2.SetLfoDepth(5.0f + k1*1.2f);
 2505              		.loc 18 175 13 is_stmt 1 view .LVU721
 175:MultiEffect.cpp ****             crs2.SetLfoDepth(5.0f + k1*1.2f);
 2506              		.loc 18 175 28 is_stmt 0 view .LVU722
 2507 008a D4ED007A 		vldr.32	s15, [r4]
 2508 008e A7EEA50A 		vfma.f32	s0, s15, s11
 2509 0092 FFF7FEFF 		bl	_ZN7daisysp6Chorus11SetLfoDepthEf
 2510              	.LVL107:
 176:MultiEffect.cpp ****             crs3.SetLfoDepth(6.0f + k1*0.9f);
 2511              		.loc 18 176 13 is_stmt 1 view .LVU723
 176:MultiEffect.cpp ****             crs3.SetLfoDepth(6.0f + k1*0.9f);
 2512              		.loc 18 176 29 is_stmt 0 view .LVU724
 2513 0096 B1EE040A 		vmov.f32	s0, #5.0e+0
 2514 009a 94ED007A 		vldr.32	s14, [r4]
 2515 009e DFED457A 		vldr.32	s15, .L59+60
 2516 00a2 4548     		ldr	r0, .L59+64
 2517              	.L58:
 196:MultiEffect.cpp ****             crs3.SetLfoDepth(6.0f + k1*0.9f);
 2518              		.loc 18 196 29 view .LVU725
 2519 00a4 A7EE270A 		vfma.f32	s0, s14, s15
 2520 00a8 FFF7FEFF 		bl	_ZN7daisysp6Chorus11SetLfoDepthEf
 2521              	.LVL108:
 197:MultiEffect.cpp ****             crs4.SetLfoDepth(7.0f + k1*0.8f);
 2522              		.loc 18 197 13 is_stmt 1 view .LVU726
 197:MultiEffect.cpp ****             crs4.SetLfoDepth(7.0f + k1*0.8f);
 2523              		.loc 18 197 29 is_stmt 0 view .LVU727
 2524 00ac B1EE080A 		vmov.f32	s0, #6.0e+0
 2525 00b0 D4ED007A 		vldr.32	s15, [r4]
 2526 00b4 4148     		ldr	r0, .L59+68
 2527 00b6 A7EE880A 		vfma.f32	s0, s15, s16
 2528 00ba FFF7FEFF 		bl	_ZN7daisysp6Chorus11SetLfoDepthEf
 2529              	.LVL109:
 198:MultiEffect.cpp ****             /**Set lfo frequency Frequency in Hz */
 2530              		.loc 18 198 13 is_stmt 1 view .LVU728
 198:MultiEffect.cpp ****             /**Set lfo frequency Frequency in Hz */
 2531              		.loc 18 198 29 is_stmt 0 view .LVU729
 2532 00be B1EE0C0A 		vmov.f32	s0, #7.0e+0
 2533 00c2 D4ED007A 		vldr.32	s15, [r4]
ARM GAS  C:\Users\seanw\AppData\Local\Temp\ccbivcrf.s 			page 77


 2534 00c6 3E48     		ldr	r0, .L59+72
 2535 00c8 A7EEA80A 		vfma.f32	s0, s15, s17
 2536 00cc FFF7FEFF 		bl	_ZN7daisysp6Chorus11SetLfoDepthEf
 2537              	.LVL110:
 200:MultiEffect.cpp ****             crs2.SetLfoFreq(k2*0.7f);
 2538              		.loc 18 200 13 is_stmt 1 view .LVU730
 200:MultiEffect.cpp ****             crs2.SetLfoFreq(k2*0.7f);
 2539              		.loc 18 200 27 is_stmt 0 view .LVU731
 2540 00d0 95ED000A 		vldr.32	s0, [r5]
 2541 00d4 DFED3B7A 		vldr.32	s15, .L59+76
 2542 00d8 3348     		ldr	r0, .L59+48
 2543 00da 20EE270A 		vmul.f32	s0, s0, s15
 2544 00de FFF7FEFF 		bl	_ZN7daisysp6Chorus10SetLfoFreqEf
 2545              	.LVL111:
 201:MultiEffect.cpp ****             crs3.SetLfoFreq(k2*0.8f); 
 2546              		.loc 18 201 13 is_stmt 1 view .LVU732
 201:MultiEffect.cpp ****             crs3.SetLfoFreq(k2*0.8f); 
 2547              		.loc 18 201 28 is_stmt 0 view .LVU733
 2548 00e2 95ED000A 		vldr.32	s0, [r5]
 2549 00e6 DFED387A 		vldr.32	s15, .L59+80
 2550 00ea 3348     		ldr	r0, .L59+64
 2551 00ec 20EE270A 		vmul.f32	s0, s0, s15
 2552 00f0 FFF7FEFF 		bl	_ZN7daisysp6Chorus10SetLfoFreqEf
 2553              	.LVL112:
 202:MultiEffect.cpp ****             crs4.SetLfoFreq(k2*0.9f); 
 2554              		.loc 18 202 13 is_stmt 1 view .LVU734
 202:MultiEffect.cpp ****             crs4.SetLfoFreq(k2*0.9f); 
 2555              		.loc 18 202 28 is_stmt 0 view .LVU735
 2556 00f4 95ED000A 		vldr.32	s0, [r5]
 2557 00f8 3048     		ldr	r0, .L59+68
 2558 00fa 20EE280A 		vmul.f32	s0, s0, s17
 2559 00fe FFF7FEFF 		bl	_ZN7daisysp6Chorus10SetLfoFreqEf
 2560              	.LVL113:
 203:MultiEffect.cpp **** 
 2561              		.loc 18 203 13 is_stmt 1 view .LVU736
 203:MultiEffect.cpp **** 
 2562              		.loc 18 203 28 is_stmt 0 view .LVU737
 2563 0102 95ED000A 		vldr.32	s0, [r5]
 2564 0106 2E48     		ldr	r0, .L59+72
 2565 0108 20EE080A 		vmul.f32	s0, s0, s16
 2566              		.loc 18 234 1 view .LVU738
 2567 010c BDEC028B 		vldm	sp!, {d8}
 2568              		.cfi_remember_state
 2569              		.cfi_restore 80
 2570              		.cfi_restore 81
 2571              		.cfi_def_cfa_offset 16
 2572 0110 BDE83840 		pop	{r3, r4, r5, lr}
 2573              		.cfi_restore 14
 2574              		.cfi_restore 5
 2575              		.cfi_restore 4
 2576              		.cfi_restore 3
 2577              		.cfi_def_cfa_offset 0
 2578              	.LVL114:
 203:MultiEffect.cpp **** 
 2579              		.loc 18 203 28 view .LVU739
 2580 0114 FFF7FEBF 		b	_ZN7daisysp6Chorus10SetLfoFreqEf
 2581              	.LVL115:
ARM GAS  C:\Users\seanw\AppData\Local\Temp\ccbivcrf.s 			page 78


 2582              	.L55:
 2583              		.cfi_restore_state
 187:MultiEffect.cpp ****             delayTarget = deltime.Process();
 2584              		.loc 18 187 9 is_stmt 1 view .LVU740
 188:MultiEffect.cpp ****             feedback    = k2;
 2585              		.loc 18 188 13 view .LVU741
 188:MultiEffect.cpp ****             feedback    = k2;
 2586              		.loc 18 188 42 is_stmt 0 view .LVU742
 2587 0118 1F48     		ldr	r0, .L59+32
 2588 011a FFF7FEFF 		bl	_ZN5daisy9Parameter7ProcessEv
 2589              	.LVL116:
 188:MultiEffect.cpp ****             feedback    = k2;
 2590              		.loc 18 188 25 view .LVU743
 2591 011e 1F4A     		ldr	r2, .L59+36
 189:MultiEffect.cpp ****             break;
 2592              		.loc 18 189 25 view .LVU744
 2593 0120 204B     		ldr	r3, .L59+44
 188:MultiEffect.cpp ****             feedback    = k2;
 2594              		.loc 18 188 25 view .LVU745
 2595 0122 82ED000A 		vstr.32	s0, [r2]
 189:MultiEffect.cpp ****             break;
 2596              		.loc 18 189 13 is_stmt 1 view .LVU746
 189:MultiEffect.cpp ****             break;
 2597              		.loc 18 189 27 is_stmt 0 view .LVU747
 2598 0126 2A68     		ldr	r2, [r5]	@ float
 2599              		.loc 18 234 1 view .LVU748
 2600 0128 BDEC028B 		vldm	sp!, {d8}
 2601              		.cfi_remember_state
 2602              		.cfi_restore 80
 2603              		.cfi_restore 81
 2604              		.cfi_def_cfa_offset 16
 189:MultiEffect.cpp ****             break;
 2605              		.loc 18 189 25 view .LVU749
 2606 012c 1A60     		str	r2, [r3]	@ float
 190:MultiEffect.cpp ****             // a chorus with no delay/reverb
 2607              		.loc 18 190 13 is_stmt 1 view .LVU750
 2608              		.loc 18 234 1 is_stmt 0 view .LVU751
 2609 012e 38BD     		pop	{r3, r4, r5, pc}
 2610              	.LVL117:
 2611              	.L54:
 2612              		.cfi_restore_state
 192:MultiEffect.cpp ****             drywet = k1;
 2613              		.loc 18 192 9 is_stmt 1 view .LVU752
 193:MultiEffect.cpp ****             /** How much to modulate the delay by Works 0-1.    */
 2614              		.loc 18 193 13 view .LVU753
 195:MultiEffect.cpp ****             crs2.SetLfoDepth(5.0f + k1*1.2f);
 2615              		.loc 18 195 28 is_stmt 0 view .LVU754
 2616 0130 B1EE000A 		vmov.f32	s0, #4.0e+0
 193:MultiEffect.cpp ****             /** How much to modulate the delay by Works 0-1.    */
 2617              		.loc 18 193 22 view .LVU755
 2618 0134 D4ED007A 		vldr.32	s15, [r4]
 195:MultiEffect.cpp ****             crs2.SetLfoDepth(5.0f + k1*1.2f);
 2619              		.loc 18 195 28 view .LVU756
 2620 0138 9FED197A 		vldr.32	s14, .L59+40
 193:MultiEffect.cpp ****             /** How much to modulate the delay by Works 0-1.    */
 2621              		.loc 18 193 20 view .LVU757
 2622 013c 154B     		ldr	r3, .L59+28
ARM GAS  C:\Users\seanw\AppData\Local\Temp\ccbivcrf.s 			page 79


 195:MultiEffect.cpp ****             crs2.SetLfoDepth(5.0f + k1*1.2f);
 2623              		.loc 18 195 28 view .LVU758
 2624 013e A7EE870A 		vfma.f32	s0, s15, s14
 2625 0142 1948     		ldr	r0, .L59+48
 193:MultiEffect.cpp ****             /** How much to modulate the delay by Works 0-1.    */
 2626              		.loc 18 193 20 view .LVU759
 2627 0144 C3ED007A 		vstr.32	s15, [r3]
 195:MultiEffect.cpp ****             crs2.SetLfoDepth(5.0f + k1*1.2f);
 2628              		.loc 18 195 13 is_stmt 1 view .LVU760
 195:MultiEffect.cpp ****             crs2.SetLfoDepth(5.0f + k1*1.2f);
 2629              		.loc 18 195 28 is_stmt 0 view .LVU761
 2630 0148 FFF7FEFF 		bl	_ZN7daisysp6Chorus11SetLfoDepthEf
 2631              	.LVL118:
 196:MultiEffect.cpp ****             crs3.SetLfoDepth(6.0f + k1*0.9f);
 2632              		.loc 18 196 13 is_stmt 1 view .LVU762
 197:MultiEffect.cpp ****             crs4.SetLfoDepth(7.0f + k1*0.8f);
 2633              		.loc 18 197 29 is_stmt 0 view .LVU763
 2634 014c 9FED178A 		vldr.32	s16, .L59+52
 196:MultiEffect.cpp ****             crs3.SetLfoDepth(6.0f + k1*0.9f);
 2635              		.loc 18 196 29 view .LVU764
 2636 0150 B1EE040A 		vmov.f32	s0, #5.0e+0
 2637 0154 94ED007A 		vldr.32	s14, [r4]
 2638 0158 DFED167A 		vldr.32	s15, .L59+60
 2639 015c 1648     		ldr	r0, .L59+64
 198:MultiEffect.cpp ****             /**Set lfo frequency Frequency in Hz */
 2640              		.loc 18 198 29 view .LVU765
 2641 015e DFED148A 		vldr.32	s17, .L59+56
 2642 0162 9FE7     		b	.L58
 2643              	.L53:
 206:MultiEffect.cpp ****             //ap_freq Frequency in Hz
 2644              		.loc 18 206 9 is_stmt 1 view .LVU766
 222:MultiEffect.cpp ****             lfo = k2;
 2645              		.loc 18 222 13 view .LVU767
 222:MultiEffect.cpp ****             lfo = k2;
 2646              		.loc 18 222 22 is_stmt 0 view .LVU768
 2647 0164 2168     		ldr	r1, [r4]	@ float
 222:MultiEffect.cpp ****             lfo = k2;
 2648              		.loc 18 222 20 view .LVU769
 2649 0166 0B4A     		ldr	r2, .L59+28
 223:MultiEffect.cpp **** 
 2650              		.loc 18 223 17 view .LVU770
 2651 0168 184B     		ldr	r3, .L59+84
 222:MultiEffect.cpp ****             lfo = k2;
 2652              		.loc 18 222 20 view .LVU771
 2653 016a 1160     		str	r1, [r2]	@ float
 223:MultiEffect.cpp **** 
 2654              		.loc 18 223 13 is_stmt 1 view .LVU772
 223:MultiEffect.cpp **** 
 2655              		.loc 18 223 19 is_stmt 0 view .LVU773
 2656 016c 2A68     		ldr	r2, [r5]	@ float
 2657              		.loc 18 234 1 view .LVU774
 2658 016e BDEC028B 		vldm	sp!, {d8}
 2659              		.cfi_restore 80
 2660              		.cfi_restore 81
 2661              		.cfi_def_cfa_offset 16
 223:MultiEffect.cpp **** 
 2662              		.loc 18 223 17 view .LVU775
ARM GAS  C:\Users\seanw\AppData\Local\Temp\ccbivcrf.s 			page 80


 2663 0172 1A60     		str	r2, [r3]	@ float
 225:MultiEffect.cpp ****         case OCT:
 2664              		.loc 18 225 13 is_stmt 1 view .LVU776
 2665              		.loc 18 234 1 is_stmt 0 view .LVU777
 2666 0174 38BD     		pop	{r3, r4, r5, pc}
 2667              	.LVL119:
 2668              	.L60:
 2669              		.loc 18 234 1 view .LVU778
 2670 0176 00BF     		.align	3
 2671              	.L59:
 2672 0178 9A999999 		.word	-1717986918
 2673 017c 9999B93F 		.word	1069128089
 2674 0180 9A999999 		.word	-1717986918
 2675 0184 9999C93F 		.word	1070176665
 2676 0188 58000000 		.word	_ZL3pod+88
 2677 018c 78000000 		.word	_ZL3pod+120
 2678 0190 00000000 		.word	.LANCHOR9
 2679 0194 00000000 		.word	.LANCHOR10
 2680 0198 00000000 		.word	.LANCHOR0
 2681 019c 00000000 		.word	.LANCHOR1
 2682 01a0 CDCC8C3F 		.word	1066192077
 2683 01a4 00000000 		.word	.LANCHOR11
 2684 01a8 00000000 		.word	_ZL3crs
 2685 01ac 6666663F 		.word	1063675494
 2686 01b0 CDCC4C3F 		.word	1061997773
 2687 01b4 9A99993F 		.word	1067030938
 2688 01b8 00000000 		.word	_ZL4crs2
 2689 01bc 00000000 		.word	_ZL4crs3
 2690 01c0 00000000 		.word	_ZL4crs4
 2691 01c4 9A99193F 		.word	1058642330
 2692 01c8 3333333F 		.word	1060320051
 2693 01cc 00000000 		.word	.LANCHOR6
 2694              		.cfi_endproc
 2695              	.LFE4405:
 2697              		.section	.text._Z13UpdateEncoderv,"ax",%progbits
 2698              		.align	1
 2699              		.p2align 2,,3
 2700              		.global	_Z13UpdateEncoderv
 2701              		.syntax unified
 2702              		.thumb
 2703              		.thumb_func
 2704              		.fpu fpv5-d16
 2706              	_Z13UpdateEncoderv:
 2707              	.LFB4406:
 235:MultiEffect.cpp **** 
 236:MultiEffect.cpp **** void UpdateEncoder()
 237:MultiEffect.cpp **** {
 2708              		.loc 18 237 1 is_stmt 1 view -0
 2709              		.cfi_startproc
 2710              		@ args = 0, pretend = 0, frame = 0
 2711              		@ frame_needed = 0, uses_anonymous_args = 0
 2712              		@ link register save eliminated.
 238:MultiEffect.cpp ****     mode = mode + pod.encoder.Increment();
 2713              		.loc 18 238 5 view .LVU780
 2714              	.LVL120:
 2715              	.LBB936:
 2716              	.LBI936:
ARM GAS  C:\Users\seanw\AppData\Local\Temp\ccbivcrf.s 			page 81


  22:../../libDaisy/src/hid/encoder.h **** 
  23:../../libDaisy/src/hid/encoder.h ****     /** Initializes the encoder with the specified hardware pins.
  24:../../libDaisy/src/hid/encoder.h ****      * Update rate is to be deprecated in a future release
  25:../../libDaisy/src/hid/encoder.h ****      */
  26:../../libDaisy/src/hid/encoder.h ****     void Init(dsy_gpio_pin a,
  27:../../libDaisy/src/hid/encoder.h ****               dsy_gpio_pin b,
  28:../../libDaisy/src/hid/encoder.h ****               dsy_gpio_pin click,
  29:../../libDaisy/src/hid/encoder.h ****               float        update_rate = 0.f);
  30:../../libDaisy/src/hid/encoder.h ****     /** Called at update_rate to debounce and handle timing for the switch.
  31:../../libDaisy/src/hid/encoder.h ****      * In order for events not to be missed, its important that the Edge/Pressed checks be made at 
  32:../../libDaisy/src/hid/encoder.h ****      */
  33:../../libDaisy/src/hid/encoder.h ****     void Debounce();
  34:../../libDaisy/src/hid/encoder.h **** 
  35:../../libDaisy/src/hid/encoder.h ****     /** Returns +1 if the encoder was turned clockwise, -1 if it was turned counter-clockwise, or 0
  36:../../libDaisy/src/hid/encoder.h ****     inline int32_t Increment() const { return inc_; }
 2717              		.loc 11 36 20 view .LVU781
 2718              	.LBB937:
 2719              		.loc 11 36 40 view .LVU782
 2720              		.loc 11 36 40 is_stmt 0 view .LVU783
 2721              	.LBE937:
 2722              	.LBE936:
 239:MultiEffect.cpp ****     mode = (mode % 5 + 5) % 5;
 2723              		.loc 18 239 5 is_stmt 1 view .LVU784
 237:MultiEffect.cpp ****     mode = mode + pod.encoder.Increment();
 2724              		.loc 18 237 1 is_stmt 0 view .LVU785
 2725 0000 10B4     		push	{r4}
 2726              		.cfi_def_cfa_offset 4
 2727              		.cfi_offset 4, -4
 2728              	.LBB939:
 2729              	.LBB938:
 2730              		.loc 11 36 47 view .LVU786
 2731 0002 0D48     		ldr	r0, .L63
 2732              	.LBE938:
 2733              	.LBE939:
 2734              		.loc 18 239 10 view .LVU787
 2735 0004 0D4C     		ldr	r4, .L63+4
 238:MultiEffect.cpp ****     mode = (mode % 5 + 5) % 5;
 2736              		.loc 18 238 17 view .LVU788
 2737 0006 406D     		ldr	r0, [r0, #84]
 2738 0008 2368     		ldr	r3, [r4]
 2739              		.loc 18 239 18 view .LVU789
 2740 000a 0D4A     		ldr	r2, .L63+8
 238:MultiEffect.cpp ****     mode = (mode % 5 + 5) % 5;
 2741              		.loc 18 238 17 view .LVU790
 2742 000c 0344     		add	r3, r3, r0
 2743              		.loc 18 239 27 view .LVU791
 2744 000e 0D49     		ldr	r1, .L63+12
 2745              		.loc 18 239 18 view .LVU792
 2746 0010 82FB0320 		smull	r2, r0, r2, r3
 2747 0014 DA17     		asrs	r2, r3, #31
 2748 0016 C2EB6002 		rsb	r2, r2, r0, asr #1
 2749 001a 02EB8202 		add	r2, r2, r2, lsl #2
 2750 001e 9B1A     		subs	r3, r3, r2
 2751              		.loc 18 239 22 view .LVU793
 2752 0020 0533     		adds	r3, r3, #5
 2753              		.loc 18 239 27 view .LVU794
 2754 0022 A1FB0312 		umull	r1, r2, r1, r3
ARM GAS  C:\Users\seanw\AppData\Local\Temp\ccbivcrf.s 			page 82


 2755 0026 22F00301 		bic	r1, r2, #3
 2756 002a 01EB9202 		add	r2, r1, r2, lsr #2
 2757 002e 9B1A     		subs	r3, r3, r2
 2758              		.loc 18 239 10 view .LVU795
 2759 0030 2360     		str	r3, [r4]
 240:MultiEffect.cpp **** }
 2760              		.loc 18 240 1 view .LVU796
 2761 0032 5DF8044B 		ldr	r4, [sp], #4
 2762              		.cfi_restore 4
 2763              		.cfi_def_cfa_offset 0
 2764 0036 7047     		bx	lr
 2765              	.L64:
 2766              		.align	2
 2767              	.L63:
 2768 0038 00000000 		.word	_ZL3pod
 2769 003c 00000000 		.word	.LANCHOR9
 2770 0040 67666666 		.word	1717986919
 2771 0044 CDCCCCCC 		.word	-858993459
 2772              		.cfi_endproc
 2773              	.LFE4406:
 2775              		.section	.text._Z10UpdateLedsff,"ax",%progbits
 2776              		.align	1
 2777              		.p2align 2,,3
 2778              		.global	_Z10UpdateLedsff
 2779              		.syntax unified
 2780              		.thumb
 2781              		.thumb_func
 2782              		.fpu fpv5-d16
 2784              	_Z10UpdateLedsff:
 2785              	.LVL121:
 2786              	.LFB4407:
 241:MultiEffect.cpp **** 
 242:MultiEffect.cpp **** void UpdateLeds(float k1, float k2)
 243:MultiEffect.cpp **** {
 2787              		.loc 18 243 1 is_stmt 1 view -0
 2788              		.cfi_startproc
 2789              		@ args = 0, pretend = 0, frame = 0
 2790              		@ frame_needed = 0, uses_anonymous_args = 0
 244:MultiEffect.cpp ****     pod.led1.Set(
 2791              		.loc 18 244 5 view .LVU798
 243:MultiEffect.cpp ****     pod.led1.Set(
 2792              		.loc 18 243 1 is_stmt 0 view .LVU799
 2793 0000 10B5     		push	{r4, lr}
 2794              		.cfi_def_cfa_offset 8
 2795              		.cfi_offset 4, -8
 2796              		.cfi_offset 14, -4
 245:MultiEffect.cpp ****         k1 * (mode == 2), k1 * (mode == 1), k1 * (mode == 0 || mode == 3));
 2797              		.loc 18 245 20 view .LVU800
 2798 0002 284C     		ldr	r4, .L73
 243:MultiEffect.cpp ****     pod.led1.Set(
 2799              		.loc 18 243 1 view .LVU801
 2800 0004 B0EE401A 		vmov.f32	s2, s0
 2801              		.loc 18 245 20 view .LVU802
 2802 0008 2368     		ldr	r3, [r4]
 244:MultiEffect.cpp ****     pod.led1.Set(
 2803              		.loc 18 244 17 view .LVU803
 2804 000a 022B     		cmp	r3, #2
ARM GAS  C:\Users\seanw\AppData\Local\Temp\ccbivcrf.s 			page 83


 243:MultiEffect.cpp ****     pod.led1.Set(
 2805              		.loc 18 243 1 view .LVU804
 2806 000c 2DED028B 		vpush.64	{d8}
 2807              		.cfi_def_cfa_offset 16
 2808              		.cfi_offset 80, -16
 2809              		.cfi_offset 81, -12
 243:MultiEffect.cpp ****     pod.led1.Set(
 2810              		.loc 18 243 1 view .LVU805
 2811 0010 B0EE608A 		vmov.f32	s16, s1
 244:MultiEffect.cpp ****     pod.led1.Set(
 2812              		.loc 18 244 17 view .LVU806
 2813 0014 3DD0     		beq	.L72
 244:MultiEffect.cpp ****     pod.led1.Set(
 2814              		.loc 18 244 17 discriminator 4 view .LVU807
 2815 0016 9FED240A 		vldr.32	s0, .L73+4
 2816              	.LVL122:
 244:MultiEffect.cpp ****     pod.led1.Set(
 2817              		.loc 18 244 17 discriminator 4 view .LVU808
 2818 001a 012B     		cmp	r3, #1
 2819 001c 21EE000A 		vmul.f32	s0, s2, s0
 2820 0020 41FE000A 		vseleq.f32	s1, s2, s0
 2821              	.LVL123:
 2822              	.L67:
 2823              		.loc 18 245 61 discriminator 8 view .LVU809
 2824 0024 032B     		cmp	r3, #3
 2825 0026 18BF     		it	ne
 2826 0028 002B     		cmpne	r3, #0
 244:MultiEffect.cpp ****     pod.led1.Set(
 2827              		.loc 18 244 17 discriminator 8 view .LVU810
 2828 002a 2048     		ldr	r0, .L73+8
 2829              		.loc 18 245 61 discriminator 8 view .LVU811
 2830 002c 0CBF     		ite	eq
 2831 002e 0123     		moveq	r3, #1
 2832 0030 0023     		movne	r3, #0
 244:MultiEffect.cpp ****     pod.led1.Set(
 2833              		.loc 18 244 17 discriminator 8 view .LVU812
 2834 0032 07EE903A 		vmov	s15, r3	@ int
 2835 0036 F8EEE77A 		vcvt.f32.s32	s15, s15
 2836 003a 27EE811A 		vmul.f32	s2, s15, s2
 2837              	.LVL124:
 244:MultiEffect.cpp ****     pod.led1.Set(
 2838              		.loc 18 244 17 discriminator 8 view .LVU813
 2839 003e FFF7FEFF 		bl	_ZN5daisy6RgbLed3SetEfff
 2840              	.LVL125:
 246:MultiEffect.cpp ****     pod.led2.Set(
 2841              		.loc 18 246 5 is_stmt 1 discriminator 8 view .LVU814
 247:MultiEffect.cpp ****         k2 * (mode == 3), k2 * (mode == 2 || mode == 4), k2 * (mode == 0 || mode == 4));
 2842              		.loc 18 247 20 is_stmt 0 discriminator 8 view .LVU815
 2843 0042 2368     		ldr	r3, [r4]
 246:MultiEffect.cpp ****     pod.led2.Set(
 2844              		.loc 18 246 17 discriminator 8 view .LVU816
 2845 0044 032B     		cmp	r3, #3
 2846 0046 29D0     		beq	.L70
 246:MultiEffect.cpp ****     pod.led2.Set(
 2847              		.loc 18 246 17 view .LVU817
 2848 0048 9FED170A 		vldr.32	s0, .L73+4
 2849 004c 28EE000A 		vmul.f32	s0, s16, s0
ARM GAS  C:\Users\seanw\AppData\Local\Temp\ccbivcrf.s 			page 84


 2850              	.L68:
 2851              		.loc 18 247 74 discriminator 4 view .LVU818
 2852 0050 33F00402 		bics	r2, r3, #4
 246:MultiEffect.cpp ****     pod.led2.Set(
 2853              		.loc 18 246 17 discriminator 4 view .LVU819
 2854 0054 1648     		ldr	r0, .L73+12
 2855              		.loc 18 247 74 discriminator 4 view .LVU820
 2856 0056 0CBF     		ite	eq
 2857 0058 0122     		moveq	r2, #1
 2858 005a 0022     		movne	r2, #0
 2859              		.loc 18 247 43 discriminator 4 view .LVU821
 2860 005c 042B     		cmp	r3, #4
 2861 005e 18BF     		it	ne
 2862 0060 022B     		cmpne	r3, #2
 2863              		.loc 18 247 74 discriminator 4 view .LVU822
 2864 0062 01EE102A 		vmov	s2, r2	@ int
 2865              		.loc 18 247 43 discriminator 4 view .LVU823
 2866 0066 0CBF     		ite	eq
 2867 0068 0123     		moveq	r3, #1
 2868 006a 0023     		movne	r3, #0
 246:MultiEffect.cpp ****     pod.led2.Set(
 2869              		.loc 18 246 17 discriminator 4 view .LVU824
 2870 006c B8EEC11A 		vcvt.f32.s32	s2, s2
 2871 0070 07EE903A 		vmov	s15, r3	@ int
 2872 0074 F8EEE70A 		vcvt.f32.s32	s1, s15
 2873 0078 21EE081A 		vmul.f32	s2, s2, s16
 2874 007c 60EE880A 		vmul.f32	s1, s1, s16
 2875 0080 FFF7FEFF 		bl	_ZN5daisy6RgbLed3SetEfff
 2876              	.LVL126:
 248:MultiEffect.cpp **** 
 249:MultiEffect.cpp ****     pod.UpdateLeds();
 2877              		.loc 18 249 5 is_stmt 1 discriminator 4 view .LVU825
 2878              		.loc 18 249 19 is_stmt 0 discriminator 4 view .LVU826
 2879 0084 0B48     		ldr	r0, .L73+16
 250:MultiEffect.cpp **** }
 2880              		.loc 18 250 1 discriminator 4 view .LVU827
 2881 0086 BDEC028B 		vldm	sp!, {d8}
 2882              		.cfi_remember_state
 2883              		.cfi_restore 80
 2884              		.cfi_restore 81
 2885              		.cfi_def_cfa_offset 8
 2886              	.LVL127:
 2887              		.loc 18 250 1 discriminator 4 view .LVU828
 2888 008a BDE81040 		pop	{r4, lr}
 2889              		.cfi_restore 14
 2890              		.cfi_restore 4
 2891              		.cfi_def_cfa_offset 0
 249:MultiEffect.cpp **** }
 2892              		.loc 18 249 19 discriminator 4 view .LVU829
 2893 008e FFF7FEBF 		b	_ZN5daisy8DaisyPod10UpdateLedsEv
 2894              	.LVL128:
 2895              	.L72:
 2896              		.cfi_restore_state
 244:MultiEffect.cpp ****         k1 * (mode == 2), k1 * (mode == 1), k1 * (mode == 0 || mode == 3));
 2897              		.loc 18 244 17 view .LVU830
 2898 0092 DFED050A 		vldr.32	s1, .L73+4
 2899              	.LVL129:
ARM GAS  C:\Users\seanw\AppData\Local\Temp\ccbivcrf.s 			page 85


 244:MultiEffect.cpp ****         k1 * (mode == 2), k1 * (mode == 1), k1 * (mode == 0 || mode == 3));
 2900              		.loc 18 244 17 view .LVU831
 2901 0096 60EE200A 		vmul.f32	s1, s0, s1
 2902 009a C3E7     		b	.L67
 2903              	.LVL130:
 2904              	.L70:
 244:MultiEffect.cpp ****         k1 * (mode == 2), k1 * (mode == 1), k1 * (mode == 0 || mode == 3));
 2905              		.loc 18 244 17 view .LVU832
 2906 009c B0EE480A 		vmov.f32	s0, s16
 2907 00a0 D6E7     		b	.L68
 2908              	.L74:
 2909 00a2 00BF     		.align	2
 2910              	.L73:
 2911 00a4 00000000 		.word	.LANCHOR9
 2912 00a8 00000000 		.word	0
 2913 00ac C0000000 		.word	_ZL3pod+192
 2914 00b0 14010000 		.word	_ZL3pod+276
 2915 00b4 00000000 		.word	_ZL3pod
 2916              		.cfi_endproc
 2917              	.LFE4407:
 2919              		.section	.text._Z8Controlsv,"ax",%progbits
 2920              		.align	1
 2921              		.p2align 2,,3
 2922              		.global	_Z8Controlsv
 2923              		.syntax unified
 2924              		.thumb
 2925              		.thumb_func
 2926              		.fpu fpv5-d16
 2928              	_Z8Controlsv:
 2929              	.LFB4408:
 251:MultiEffect.cpp **** 
 252:MultiEffect.cpp **** void Controls()
 253:MultiEffect.cpp **** {
 2930              		.loc 18 253 1 is_stmt 1 view -0
 2931              		.cfi_startproc
 2932              		@ args = 0, pretend = 0, frame = 8
 2933              		@ frame_needed = 0, uses_anonymous_args = 0
 254:MultiEffect.cpp ****     float k1, k2;
 2934              		.loc 18 254 5 view .LVU834
 255:MultiEffect.cpp ****     delayTarget = feedback = drywet = 0;
 2935              		.loc 18 255 5 view .LVU835
 253:MultiEffect.cpp ****     float k1, k2;
 2936              		.loc 18 253 1 is_stmt 0 view .LVU836
 2937 0000 30B5     		push	{r4, r5, lr}
 2938              		.cfi_def_cfa_offset 12
 2939              		.cfi_offset 4, -12
 2940              		.cfi_offset 5, -8
 2941              		.cfi_offset 14, -4
 2942              		.loc 18 255 37 view .LVU837
 2943 0002 0023     		movs	r3, #0
 256:MultiEffect.cpp **** 
 257:MultiEffect.cpp ****     pod.ProcessAnalogControls();
 2944              		.loc 18 257 30 view .LVU838
 2945 0004 184D     		ldr	r5, .L77
 255:MultiEffect.cpp **** 
 2946              		.loc 18 255 37 view .LVU839
 2947 0006 1948     		ldr	r0, .L77+4
ARM GAS  C:\Users\seanw\AppData\Local\Temp\ccbivcrf.s 			page 86


 253:MultiEffect.cpp ****     float k1, k2;
 2948              		.loc 18 253 1 view .LVU840
 2949 0008 83B0     		sub	sp, sp, #12
 2950              		.cfi_def_cfa_offset 24
 255:MultiEffect.cpp **** 
 2951              		.loc 18 255 17 view .LVU841
 2952 000a 194A     		ldr	r2, .L77+8
 255:MultiEffect.cpp **** 
 2953              		.loc 18 255 28 view .LVU842
 2954 000c 1949     		ldr	r1, .L77+12
 255:MultiEffect.cpp **** 
 2955              		.loc 18 255 37 view .LVU843
 2956 000e 0360     		str	r3, [r0]	@ float
 2957              		.loc 18 257 30 view .LVU844
 2958 0010 2846     		mov	r0, r5
 255:MultiEffect.cpp **** 
 2959              		.loc 18 255 28 view .LVU845
 2960 0012 0B60     		str	r3, [r1]	@ float
 255:MultiEffect.cpp **** 
 2961              		.loc 18 255 17 view .LVU846
 2962 0014 1360     		str	r3, [r2]	@ float
 2963              		.loc 18 257 5 is_stmt 1 view .LVU847
 2964              		.loc 18 257 30 is_stmt 0 view .LVU848
 2965 0016 FFF7FEFF 		bl	_ZN5daisy8DaisyPod21ProcessAnalogControlsEv
 2966              	.LVL131:
 258:MultiEffect.cpp ****     pod.ProcessDigitalControls();
 2967              		.loc 18 258 5 is_stmt 1 view .LVU849
 2968              	.LBB940:
 2969              	.LBB941:
 239:MultiEffect.cpp **** }
 2970              		.loc 18 239 10 is_stmt 0 view .LVU850
 2971 001a 174C     		ldr	r4, .L77+16
 2972              	.LBE941:
 2973              	.LBE940:
 2974              		.loc 18 258 31 view .LVU851
 2975 001c 2846     		mov	r0, r5
 2976 001e FFF7FEFF 		bl	_ZN5daisy8DaisyPod22ProcessDigitalControlsEv
 2977              	.LVL132:
 259:MultiEffect.cpp **** 
 260:MultiEffect.cpp ****     UpdateKnobs(k1, k2);
 2978              		.loc 18 260 5 is_stmt 1 view .LVU852
 2979              		.loc 18 260 16 is_stmt 0 view .LVU853
 2980 0022 01A9     		add	r1, sp, #4
 2981 0024 6846     		mov	r0, sp
 2982 0026 FFF7FEFF 		bl	_Z11UpdateKnobsRfS_
 2983              	.LVL133:
 261:MultiEffect.cpp **** 
 262:MultiEffect.cpp ****     UpdateEncoder();
 2984              		.loc 18 262 5 is_stmt 1 view .LVU854
 2985              	.LBB947:
 2986              	.LBI940:
 236:MultiEffect.cpp **** {
 2987              		.loc 18 236 6 view .LVU855
 2988              	.LBB944:
 238:MultiEffect.cpp ****     mode = (mode % 5 + 5) % 5;
 2989              		.loc 18 238 5 view .LVU856
 2990              	.LBB942:
ARM GAS  C:\Users\seanw\AppData\Local\Temp\ccbivcrf.s 			page 87


 2991              	.LBI942:
 2992              		.loc 11 36 20 view .LVU857
 2993              	.LBB943:
 2994              		.loc 11 36 40 view .LVU858
 2995              		.loc 11 36 40 is_stmt 0 view .LVU859
 2996              	.LBE943:
 2997              	.LBE942:
 239:MultiEffect.cpp **** }
 2998              		.loc 18 239 5 is_stmt 1 view .LVU860
 238:MultiEffect.cpp ****     mode = (mode % 5 + 5) % 5;
 2999              		.loc 18 238 17 is_stmt 0 view .LVU861
 3000 002a 2268     		ldr	r2, [r4]
 3001 002c 6B6D     		ldr	r3, [r5, #84]
 239:MultiEffect.cpp **** }
 3002              		.loc 18 239 18 view .LVU862
 3003 002e 1348     		ldr	r0, .L77+20
 238:MultiEffect.cpp ****     mode = (mode % 5 + 5) % 5;
 3004              		.loc 18 238 17 view .LVU863
 3005 0030 1344     		add	r3, r3, r2
 239:MultiEffect.cpp **** }
 3006              		.loc 18 239 27 view .LVU864
 3007 0032 1349     		ldr	r1, .L77+24
 3008              	.LBE944:
 3009              	.LBE947:
 263:MultiEffect.cpp **** 
 264:MultiEffect.cpp ****     UpdateLeds(k1, k2);
 3010              		.loc 18 264 15 view .LVU865
 3011 0034 DDED010A 		vldr.32	s1, [sp, #4]
 3012              	.LBB948:
 3013              	.LBB945:
 239:MultiEffect.cpp **** }
 3014              		.loc 18 239 18 view .LVU866
 3015 0038 80FB0320 		smull	r2, r0, r0, r3
 3016 003c DA17     		asrs	r2, r3, #31
 3017              	.LBE945:
 3018              	.LBE948:
 3019              		.loc 18 264 15 view .LVU867
 3020 003e 9DED000A 		vldr.32	s0, [sp]
 3021              	.LBB949:
 3022              	.LBB946:
 239:MultiEffect.cpp **** }
 3023              		.loc 18 239 18 view .LVU868
 3024 0042 C2EB6002 		rsb	r2, r2, r0, asr #1
 3025 0046 02EB8202 		add	r2, r2, r2, lsl #2
 3026 004a 9B1A     		subs	r3, r3, r2
 239:MultiEffect.cpp **** }
 3027              		.loc 18 239 22 view .LVU869
 3028 004c 0533     		adds	r3, r3, #5
 239:MultiEffect.cpp **** }
 3029              		.loc 18 239 27 view .LVU870
 3030 004e A1FB0312 		umull	r1, r2, r1, r3
 3031 0052 22F00301 		bic	r1, r2, #3
 3032 0056 01EB9202 		add	r2, r1, r2, lsr #2
 3033 005a 9B1A     		subs	r3, r3, r2
 239:MultiEffect.cpp **** }
 3034              		.loc 18 239 10 view .LVU871
 3035 005c 2360     		str	r3, [r4]
ARM GAS  C:\Users\seanw\AppData\Local\Temp\ccbivcrf.s 			page 88


 3036              	.LBE946:
 3037              	.LBE949:
 3038              		.loc 18 264 5 is_stmt 1 view .LVU872
 3039              		.loc 18 264 15 is_stmt 0 view .LVU873
 3040 005e FFF7FEFF 		bl	_Z10UpdateLedsff
 3041              	.LVL134:
 265:MultiEffect.cpp **** }
 3042              		.loc 18 265 1 view .LVU874
 3043 0062 03B0     		add	sp, sp, #12
 3044              		.cfi_def_cfa_offset 12
 3045              		@ sp needed
 3046 0064 30BD     		pop	{r4, r5, pc}
 3047              	.L78:
 3048 0066 00BF     		.align	2
 3049              	.L77:
 3050 0068 00000000 		.word	_ZL3pod
 3051 006c 00000000 		.word	.LANCHOR10
 3052 0070 00000000 		.word	.LANCHOR1
 3053 0074 00000000 		.word	.LANCHOR11
 3054 0078 00000000 		.word	.LANCHOR9
 3055 007c 67666666 		.word	1717986919
 3056 0080 CDCCCCCC 		.word	-858993459
 3057              		.cfi_endproc
 3058              	.LFE4408:
 3060              		.section	.text._Z15GetReverbSampleRfS_ff,"ax",%progbits
 3061              		.align	1
 3062              		.p2align 2,,3
 3063              		.global	_Z15GetReverbSampleRfS_ff
 3064              		.syntax unified
 3065              		.thumb
 3066              		.thumb_func
 3067              		.fpu fpv5-d16
 3069              	_Z15GetReverbSampleRfS_ff:
 3070              	.LVL135:
 3071              	.LFB4409:
 266:MultiEffect.cpp **** 
 267:MultiEffect.cpp **** // process audio and add delays and modulated delays in 
 268:MultiEffect.cpp **** void GetReverbSample(float &outl, float &outr, float inl, float inr)
 269:MultiEffect.cpp **** {
 3072              		.loc 18 269 1 is_stmt 1 view -0
 3073              		.cfi_startproc
 3074              		@ args = 0, pretend = 0, frame = 16
 3075              		@ frame_needed = 0, uses_anonymous_args = 0
 270:MultiEffect.cpp **** 
 271:MultiEffect.cpp ****     fonepole(currentDelay, delayTarget, .00007f);
 3076              		.loc 18 271 5 view .LVU876
 3077              	.LBB976:
 3078              	.LBI976:
 3079              		.file 20 "../../DaisySP/Source/Utility/dsp.h"
   1:../../DaisySP/Source/Utility/dsp.h **** /** Helpful defines, functions, and other utilities for use in/with daisysp modules.
   2:../../DaisySP/Source/Utility/dsp.h **** */
   3:../../DaisySP/Source/Utility/dsp.h **** #pragma once
   4:../../DaisySP/Source/Utility/dsp.h **** #ifndef DSY_CORE_DSP
   5:../../DaisySP/Source/Utility/dsp.h **** #define DSY_CORE_DSP
   6:../../DaisySP/Source/Utility/dsp.h **** #include <cassert>
   7:../../DaisySP/Source/Utility/dsp.h **** #include <cstdint>
   8:../../DaisySP/Source/Utility/dsp.h **** #include <random>
ARM GAS  C:\Users\seanw\AppData\Local\Temp\ccbivcrf.s 			page 89


   9:../../DaisySP/Source/Utility/dsp.h **** #include <cmath>
  10:../../DaisySP/Source/Utility/dsp.h **** 
  11:../../DaisySP/Source/Utility/dsp.h **** /** PIs
  12:../../DaisySP/Source/Utility/dsp.h **** */
  13:../../DaisySP/Source/Utility/dsp.h **** #define PI_F 3.1415927410125732421875f
  14:../../DaisySP/Source/Utility/dsp.h **** #define TWOPI_F (2.0f * PI_F)
  15:../../DaisySP/Source/Utility/dsp.h **** #define HALFPI_F (PI_F * 0.5f)
  16:../../DaisySP/Source/Utility/dsp.h **** #define DSY_MIN(in, mn) (in < mn ? in : mn)
  17:../../DaisySP/Source/Utility/dsp.h **** #define DSY_MAX(in, mx) (in > mx ? in : mx)
  18:../../DaisySP/Source/Utility/dsp.h **** #define DSY_CLAMP(in, mn, mx) (DSY_MIN(DSY_MAX(in, mn), mx))
  19:../../DaisySP/Source/Utility/dsp.h **** #define DSY_COUNTOF(_arr) (sizeof(_arr) / sizeof(_arr[0]))
  20:../../DaisySP/Source/Utility/dsp.h **** 
  21:../../DaisySP/Source/Utility/dsp.h **** namespace daisysp
  22:../../DaisySP/Source/Utility/dsp.h **** {
  23:../../DaisySP/Source/Utility/dsp.h **** //Avoids division for random floats. e.g. rand() * kRandFrac
  24:../../DaisySP/Source/Utility/dsp.h **** static constexpr float kRandFrac = 1.f / (float)RAND_MAX;
  25:../../DaisySP/Source/Utility/dsp.h **** 
  26:../../DaisySP/Source/Utility/dsp.h **** //Convert from semitones to other units. e.g. 2 ^ (kOneTwelfth * x)
  27:../../DaisySP/Source/Utility/dsp.h **** static constexpr float kOneTwelfth = 1.f / 12.f;
  28:../../DaisySP/Source/Utility/dsp.h **** 
  29:../../DaisySP/Source/Utility/dsp.h **** /** efficient floating point min/max
  30:../../DaisySP/Source/Utility/dsp.h **** c/o stephen mccaul
  31:../../DaisySP/Source/Utility/dsp.h **** */
  32:../../DaisySP/Source/Utility/dsp.h **** inline float fmax(float a, float b)
  33:../../DaisySP/Source/Utility/dsp.h **** {
  34:../../DaisySP/Source/Utility/dsp.h ****     float r;
  35:../../DaisySP/Source/Utility/dsp.h **** #ifdef __arm__
  36:../../DaisySP/Source/Utility/dsp.h ****     asm("vmaxnm.f32 %[d], %[n], %[m]" : [d] "=t"(r) : [n] "t"(a), [m] "t"(b) :);
  37:../../DaisySP/Source/Utility/dsp.h **** #else
  38:../../DaisySP/Source/Utility/dsp.h ****     r = (a > b) ? a : b;
  39:../../DaisySP/Source/Utility/dsp.h **** #endif // __arm__
  40:../../DaisySP/Source/Utility/dsp.h ****     return r;
  41:../../DaisySP/Source/Utility/dsp.h **** }
  42:../../DaisySP/Source/Utility/dsp.h **** 
  43:../../DaisySP/Source/Utility/dsp.h **** inline float fmin(float a, float b)
  44:../../DaisySP/Source/Utility/dsp.h **** {
  45:../../DaisySP/Source/Utility/dsp.h ****     float r;
  46:../../DaisySP/Source/Utility/dsp.h **** #ifdef __arm__
  47:../../DaisySP/Source/Utility/dsp.h ****     asm("vminnm.f32 %[d], %[n], %[m]" : [d] "=t"(r) : [n] "t"(a), [m] "t"(b) :);
  48:../../DaisySP/Source/Utility/dsp.h **** #else
  49:../../DaisySP/Source/Utility/dsp.h ****     r = (a < b) ? a : b;
  50:../../DaisySP/Source/Utility/dsp.h **** #endif // __arm__
  51:../../DaisySP/Source/Utility/dsp.h ****     return r;
  52:../../DaisySP/Source/Utility/dsp.h **** }
  53:../../DaisySP/Source/Utility/dsp.h **** 
  54:../../DaisySP/Source/Utility/dsp.h **** /** quick fp clamp
  55:../../DaisySP/Source/Utility/dsp.h **** */
  56:../../DaisySP/Source/Utility/dsp.h **** inline float fclamp(float in, float min, float max)
  57:../../DaisySP/Source/Utility/dsp.h **** {
  58:../../DaisySP/Source/Utility/dsp.h ****     return fmin(fmax(in, min), max);
  59:../../DaisySP/Source/Utility/dsp.h **** }
  60:../../DaisySP/Source/Utility/dsp.h **** 
  61:../../DaisySP/Source/Utility/dsp.h **** /** From Musicdsp.org "Fast power and root estimates for 32bit floats)
  62:../../DaisySP/Source/Utility/dsp.h **** Original code by Stefan Stenzel
  63:../../DaisySP/Source/Utility/dsp.h **** These are approximations
  64:../../DaisySP/Source/Utility/dsp.h **** */
  65:../../DaisySP/Source/Utility/dsp.h **** inline float fastpower(float f, int n)
ARM GAS  C:\Users\seanw\AppData\Local\Temp\ccbivcrf.s 			page 90


  66:../../DaisySP/Source/Utility/dsp.h **** {
  67:../../DaisySP/Source/Utility/dsp.h ****     long *lp, l;
  68:../../DaisySP/Source/Utility/dsp.h ****     lp = (long *)(&f);
  69:../../DaisySP/Source/Utility/dsp.h ****     l  = *lp;
  70:../../DaisySP/Source/Utility/dsp.h ****     l -= 0x3F800000;
  71:../../DaisySP/Source/Utility/dsp.h ****     l <<= (n - 1);
  72:../../DaisySP/Source/Utility/dsp.h ****     l += 0x3F800000;
  73:../../DaisySP/Source/Utility/dsp.h ****     *lp = l;
  74:../../DaisySP/Source/Utility/dsp.h ****     return f;
  75:../../DaisySP/Source/Utility/dsp.h **** }
  76:../../DaisySP/Source/Utility/dsp.h **** 
  77:../../DaisySP/Source/Utility/dsp.h **** inline float fastroot(float f, int n)
  78:../../DaisySP/Source/Utility/dsp.h **** {
  79:../../DaisySP/Source/Utility/dsp.h ****     long *lp, l;
  80:../../DaisySP/Source/Utility/dsp.h ****     lp = (long *)(&f);
  81:../../DaisySP/Source/Utility/dsp.h ****     l  = *lp;
  82:../../DaisySP/Source/Utility/dsp.h ****     l -= 0x3F800000;
  83:../../DaisySP/Source/Utility/dsp.h ****     l >>= (n = 1);
  84:../../DaisySP/Source/Utility/dsp.h ****     l += 0x3F800000;
  85:../../DaisySP/Source/Utility/dsp.h ****     *lp = l;
  86:../../DaisySP/Source/Utility/dsp.h ****     return f;
  87:../../DaisySP/Source/Utility/dsp.h **** }
  88:../../DaisySP/Source/Utility/dsp.h **** 
  89:../../DaisySP/Source/Utility/dsp.h **** /** From http://openaudio.blogspot.com/2017/02/faster-log10-and-pow.html
  90:../../DaisySP/Source/Utility/dsp.h **** No approximation, pow10f(x) gives a 90% speed increase over powf(10.f, x)
  91:../../DaisySP/Source/Utility/dsp.h **** */
  92:../../DaisySP/Source/Utility/dsp.h **** inline float pow10f(float f)
  93:../../DaisySP/Source/Utility/dsp.h **** {
  94:../../DaisySP/Source/Utility/dsp.h ****     return expf(2.302585092994046f * f);
  95:../../DaisySP/Source/Utility/dsp.h **** }
  96:../../DaisySP/Source/Utility/dsp.h **** 
  97:../../DaisySP/Source/Utility/dsp.h **** /* Original code for fastlog2f by Dr. Paul Beckmann from the ARM community forum, adapted from the 
  98:../../DaisySP/Source/Utility/dsp.h **** About 25% performance increase over std::log10f
  99:../../DaisySP/Source/Utility/dsp.h **** */
 100:../../DaisySP/Source/Utility/dsp.h **** inline float fastlog2f(float f)
 101:../../DaisySP/Source/Utility/dsp.h **** {
 102:../../DaisySP/Source/Utility/dsp.h ****     float frac;
 103:../../DaisySP/Source/Utility/dsp.h ****     int   exp;
 104:../../DaisySP/Source/Utility/dsp.h ****     frac = frexpf(fabsf(f), &exp);
 105:../../DaisySP/Source/Utility/dsp.h ****     f    = 1.23149591368684f;
 106:../../DaisySP/Source/Utility/dsp.h ****     f *= frac;
 107:../../DaisySP/Source/Utility/dsp.h ****     f += -4.11852516267426f;
 108:../../DaisySP/Source/Utility/dsp.h ****     f *= frac;
 109:../../DaisySP/Source/Utility/dsp.h ****     f += 6.02197014179219f;
 110:../../DaisySP/Source/Utility/dsp.h ****     f *= frac;
 111:../../DaisySP/Source/Utility/dsp.h ****     f += -3.13396450166353f;
 112:../../DaisySP/Source/Utility/dsp.h ****     f += exp;
 113:../../DaisySP/Source/Utility/dsp.h ****     return (f);
 114:../../DaisySP/Source/Utility/dsp.h **** }
 115:../../DaisySP/Source/Utility/dsp.h **** 
 116:../../DaisySP/Source/Utility/dsp.h **** inline float fastlog10f(float f)
 117:../../DaisySP/Source/Utility/dsp.h **** {
 118:../../DaisySP/Source/Utility/dsp.h ****     return fastlog2f(f) * 0.3010299956639812f;
 119:../../DaisySP/Source/Utility/dsp.h **** }
 120:../../DaisySP/Source/Utility/dsp.h **** 
 121:../../DaisySP/Source/Utility/dsp.h **** /** Midi to frequency helper
 122:../../DaisySP/Source/Utility/dsp.h **** */
ARM GAS  C:\Users\seanw\AppData\Local\Temp\ccbivcrf.s 			page 91


 123:../../DaisySP/Source/Utility/dsp.h **** inline float mtof(float m)
 124:../../DaisySP/Source/Utility/dsp.h **** {
 125:../../DaisySP/Source/Utility/dsp.h ****     return powf(2, (m - 69.0f) / 12.0f) * 440.0f;
 126:../../DaisySP/Source/Utility/dsp.h **** }
 127:../../DaisySP/Source/Utility/dsp.h **** 
 128:../../DaisySP/Source/Utility/dsp.h **** 
 129:../../DaisySP/Source/Utility/dsp.h **** /** one pole lpf
 130:../../DaisySP/Source/Utility/dsp.h **** out is passed by reference, and must be retained between
 131:../../DaisySP/Source/Utility/dsp.h **** calls to properly filter the signal
 132:../../DaisySP/Source/Utility/dsp.h **** coeff can be calculated:
 133:../../DaisySP/Source/Utility/dsp.h **** coeff = 1.0 / (time * sample_rate) ; where time is in seconds
 134:../../DaisySP/Source/Utility/dsp.h **** */
 135:../../DaisySP/Source/Utility/dsp.h **** inline void fonepole(float &out, float in, float coeff)
 3080              		.loc 20 135 13 view .LVU877
 3081              	.LBB977:
 136:../../DaisySP/Source/Utility/dsp.h **** {
 137:../../DaisySP/Source/Utility/dsp.h ****     out += coeff * (in - out);
 3082              		.loc 20 137 5 view .LVU878
 3083              		.loc 20 137 9 is_stmt 0 view .LVU879
 3084 0000 CA4B     		ldr	r3, .L81
 3085              	.LBE977:
 3086              	.LBE976:
 3087              		.loc 18 271 13 view .LVU880
 3088 0002 CB4A     		ldr	r2, .L81+4
 3089              	.LBB981:
 3090              	.LBB978:
 3091              		.loc 20 137 9 view .LVU881
 3092 0004 D3ED007A 		vldr.32	s15, [r3]
 3093              		.loc 20 137 24 view .LVU882
 3094 0008 92ED007A 		vldr.32	s14, [r2]
 3095              		.loc 20 137 9 view .LVU883
 3096 000c 9FEDC96A 		vldr.32	s12, .L81+8
 3097              		.loc 20 137 24 view .LVU884
 3098 0010 37EE677A 		vsub.f32	s14, s14, s15
 3099              	.LBE978:
 3100              	.LBE981:
 3101              	.LBB982:
 3102              	.LBB983:
  55:../../DaisySP/Source/Utility/delayline.h ****         delay_ = static_cast<size_t>(int_delay) < max_size ? int_delay
 3103              		.loc 17 55 27 view .LVU885
 3104 0014 DFEDC86A 		vldr.32	s13, .L81+12
 3105              	.LBE983:
 3106              	.LBE982:
 269:MultiEffect.cpp **** 
 3107              		.loc 18 269 1 view .LVU886
 3108 0018 2DE9F04F 		push	{r4, r5, r6, r7, r8, r9, r10, fp, lr}
 3109              		.cfi_def_cfa_offset 36
 3110              		.cfi_offset 4, -36
 3111              		.cfi_offset 5, -32
 3112              		.cfi_offset 6, -28
 3113              		.cfi_offset 7, -24
 3114              		.cfi_offset 8, -20
 3115              		.cfi_offset 9, -16
 3116              		.cfi_offset 10, -12
 3117              		.cfi_offset 11, -8
 3118              		.cfi_offset 14, -4
 3119              	.LBB988:
ARM GAS  C:\Users\seanw\AppData\Local\Temp\ccbivcrf.s 			page 92


 3120              	.LBB979:
 3121              		.loc 20 137 9 view .LVU887
 3122 001c E7EE067A 		vfma.f32	s15, s14, s12
 3123              	.LBE979:
 3124              	.LBE988:
 269:MultiEffect.cpp **** 
 3125              		.loc 18 269 1 view .LVU888
 3126 0020 0746     		mov	r7, r0
 3127 0022 0E46     		mov	r6, r1
 3128              	.LBB989:
 3129              	.LBB990:
  55:../../DaisySP/Source/Utility/delayline.h ****         delay_ = static_cast<size_t>(int_delay) < max_size ? int_delay
 3130              		.loc 17 55 27 view .LVU889
 3131 0024 C548     		ldr	r0, .L81+16
 3132              	.LVL136:
  55:../../DaisySP/Source/Utility/delayline.h ****         delay_ = static_cast<size_t>(int_delay) < max_size ? int_delay
 3133              		.loc 17 55 27 view .LVU890
 3134              	.LBE990:
 3135              	.LBE989:
 3136              	.LBB993:
 3137              	.LBB994:
 3138 0026 C649     		ldr	r1, .L81+20
 3139              	.LVL137:
  55:../../DaisySP/Source/Utility/delayline.h ****         delay_ = static_cast<size_t>(int_delay) < max_size ? int_delay
 3140              		.loc 17 55 27 view .LVU891
 3141              	.LBE994:
 3142              	.LBE993:
 3143              	.LBB998:
 3144              	.LBB999:
  73:../../DaisySP/Source/Utility/delayline.h ****         return a + (b - a) * frac_;
 3145              		.loc 17 73 42 view .LVU892
 3146 0028 47F2315E 		movw	lr, #30001
 3147              	.LBE999:
 3148              	.LBE998:
 3149              	.LBB1015:
 3150              	.LBB1016:
  55:../../DaisySP/Source/Utility/delayline.h ****         delay_ = static_cast<size_t>(int_delay) < max_size ? int_delay
 3151              		.loc 17 55 27 view .LVU893
 3152 002c C54D     		ldr	r5, .L81+24
 3153              	.LBE1016:
 3154              	.LBE1015:
 3155              	.LBB1025:
 3156              	.LBB1000:
  72:../../DaisySP/Source/Utility/delayline.h ****         T b = line_[(write_ptr_ + delay_ + 1) % max_size];
 3157              		.loc 17 72 22 view .LVU894
 3158 002e 4A68     		ldr	r2, [r1, #4]
 3159              	.LBE1000:
 3160              	.LBE1025:
 3161              	.LBB1026:
 3162              	.LBB1017:
  54:../../DaisySP/Source/Utility/delayline.h ****         frac_             = delay - static_cast<float>(int_delay);
 3163              		.loc 17 54 17 view .LVU895
 3164 0030 BDEEE77A 		vcvt.s32.f32	s14, s15
 3165              	.LBE1017:
 3166              	.LBE1026:
 3167              	.LBB1027:
 3168              	.LBB1001:
ARM GAS  C:\Users\seanw\AppData\Local\Temp\ccbivcrf.s 			page 93


  73:../../DaisySP/Source/Utility/delayline.h ****         return a + (b - a) * frac_;
 3169              		.loc 17 73 42 view .LVU896
 3170 0034 9644     		add	lr, lr, r2
 3171              	.LBE1001:
 3172              	.LBE1027:
 269:MultiEffect.cpp **** 
 3173              		.loc 18 269 1 view .LVU897
 3174 0036 2DED088B 		vpush.64	{d8, d9, d10, d11}
 3175              		.cfi_def_cfa_offset 68
 3176              		.cfi_offset 80, -68
 3177              		.cfi_offset 81, -64
 3178              		.cfi_offset 82, -60
 3179              		.cfi_offset 83, -56
 3180              		.cfi_offset 84, -52
 3181              		.cfi_offset 85, -48
 3182              		.cfi_offset 86, -44
 3183              		.cfi_offset 87, -40
 3184              	.LBB1028:
 3185              	.LBB1018:
  56:../../DaisySP/Source/Utility/delayline.h ****                                                            : max_size - 1;
 3186              		.loc 17 56 60 view .LVU898
 3187 003a 17EE10AA 		vmov	r10, s14	@ int
 3188              	.LBE1018:
 3189              	.LBE1028:
 3190              	.LBB1029:
 3191              	.LBB980:
 3192              		.loc 20 137 9 view .LVU899
 3193 003e C3ED007A 		vstr.32	s15, [r3]
 3194              	.LVL138:
 3195              		.loc 20 137 9 view .LVU900
 3196              	.LBE980:
 3197              	.LBE1029:
 272:MultiEffect.cpp ****     delr.SetDelay(currentDelay);
 3198              		.loc 18 272 5 is_stmt 1 view .LVU901
 3199              	.LBB1030:
 3200              	.LBI1015:
  52:../../DaisySP/Source/Utility/delayline.h ****     {
 3201              		.loc 17 52 17 view .LVU902
 3202              	.LBB1019:
  55:../../DaisySP/Source/Utility/delayline.h ****         delay_ = static_cast<size_t>(int_delay) < max_size ? int_delay
 3203              		.loc 17 55 37 is_stmt 0 view .LVU903
 3204 0042 B8EEC77A 		vcvt.f32.s32	s14, s14
  56:../../DaisySP/Source/Utility/delayline.h ****                                                            : max_size - 1;
 3205              		.loc 17 56 60 view .LVU904
 3206 0046 C04B     		ldr	r3, .L81+28
 3207              	.LBE1019:
 3208              	.LBE1030:
 269:MultiEffect.cpp **** 
 3209              		.loc 18 269 1 view .LVU905
 3210 0048 85B0     		sub	sp, sp, #20
 3211              		.cfi_def_cfa_offset 88
 3212              	.LBB1031:
 3213              	.LBB995:
  55:../../DaisySP/Source/Utility/delayline.h ****         delay_ = static_cast<size_t>(int_delay) < max_size ? int_delay
 3214              		.loc 17 55 27 view .LVU906
 3215 004a C1ED006A 		vstr.32	s13, [r1]
 3216              	.LBE995:
ARM GAS  C:\Users\seanw\AppData\Local\Temp\ccbivcrf.s 			page 94


 3217              	.LBE1031:
 3218              	.LBB1032:
 3219              	.LBB1020:
  56:../../DaisySP/Source/Utility/delayline.h ****                                                            : max_size - 1;
 3220              		.loc 17 56 60 view .LVU907
 3221 004e 9A45     		cmp	r10, r3
 3222              	.LBE1020:
 3223              	.LBE1032:
 269:MultiEffect.cpp **** 
 3224              		.loc 18 269 1 view .LVU908
 3225 0050 F0EE608A 		vmov.f32	s17, s1
 3226              	.LBB1033:
 3227              	.LBB1021:
  55:../../DaisySP/Source/Utility/delayline.h ****         delay_ = static_cast<size_t>(int_delay) < max_size ? int_delay
 3228              		.loc 17 55 35 view .LVU909
 3229 0054 77EEC77A 		vsub.f32	s15, s15, s14
 3230              	.LVL139:
  55:../../DaisySP/Source/Utility/delayline.h ****         delay_ = static_cast<size_t>(int_delay) < max_size ? int_delay
 3231              		.loc 17 55 35 view .LVU910
 3232              	.LBE1021:
 3233              	.LBE1033:
 3234              	.LBB1034:
 3235              	.LBB1002:
  73:../../DaisySP/Source/Utility/delayline.h ****         return a + (b - a) * frac_;
 3236              		.loc 17 73 42 view .LVU911
 3237 0058 0292     		str	r2, [sp, #8]
 3238              	.LBE1002:
 3239              	.LBE1034:
 3240              	.LBB1035:
 3241              	.LBB1022:
  56:../../DaisySP/Source/Utility/delayline.h ****                                                            : max_size - 1;
 3242              		.loc 17 56 60 view .LVU912
 3243 005a 28BF     		it	cs
 3244 005c 9A46     		movcs	r10, r3
 3245              	.LVL140:
  56:../../DaisySP/Source/Utility/delayline.h ****                                                            : max_size - 1;
 3246              		.loc 17 56 60 view .LVU913
 3247              	.LBE1022:
 3248              	.LBE1035:
 3249              	.LBB1036:
 3250              	.LBB996:
  56:../../DaisySP/Source/Utility/delayline.h ****                                                            : max_size - 1;
 3251              		.loc 17 56 16 view .LVU914
 3252 005e 47F23053 		movw	r3, #30000
 3253              	.LBE996:
 3254              	.LBE1036:
 269:MultiEffect.cpp **** 
 3255              		.loc 18 269 1 view .LVU915
 3256 0062 F0EE40AA 		vmov.f32	s21, s0
 273:MultiEffect.cpp ****     dell.SetDelay(currentDelay);
 274:MultiEffect.cpp ****     delr2.SetDelay(20000.0f);
 275:MultiEffect.cpp ****     dell2.SetDelay(30000.0f);
 276:MultiEffect.cpp ****     outl = dell.Read() + dell2.Read();
 277:MultiEffect.cpp ****     outr = delr.Read() + delr2.Read();
 278:MultiEffect.cpp ****     dell.Write((feedback * outl) + inl);
 279:MultiEffect.cpp ****     dell2.Write((feedback * outl) + inl);
 280:MultiEffect.cpp ****     delr.Write((feedback * outr) + inr);
ARM GAS  C:\Users\seanw\AppData\Local\Temp\ccbivcrf.s 			page 95


 281:MultiEffect.cpp ****     delr2.Write((feedback * outr) + inr);
 282:MultiEffect.cpp **** 
 283:MultiEffect.cpp **** 
 284:MultiEffect.cpp ****     crs.Process(inl);
 285:MultiEffect.cpp ****     crs2.Process(inr);
 286:MultiEffect.cpp ****     crs3.Process(inl);
 287:MultiEffect.cpp ****     crs4.Process(inr);
 288:MultiEffect.cpp ****     
 289:MultiEffect.cpp ****     
 290:MultiEffect.cpp ****     outl = crs.GetLeft() * drywet *2.0f  + crs3.GetLeft() * drywet*2.0f+  inl * (0.5f - drywet) + (
 3257              		.loc 18 290 97 view .LVU916
 3258 0066 9FEDB98A 		vldr.32	s16, .L81+32
 3259              	.LBB1037:
 3260              	.LBB991:
  55:../../DaisySP/Source/Utility/delayline.h ****         delay_ = static_cast<size_t>(int_delay) < max_size ? int_delay
 3261              		.loc 17 55 27 view .LVU917
 3262 006a C0ED007A 		vstr.32	s15, [r0]
 3263              	.LBE991:
 3264              	.LBE1037:
 3265              	.LBB1038:
 3266              	.LBB1003:
  72:../../DaisySP/Source/Utility/delayline.h ****         T b = line_[(write_ptr_ + delay_ + 1) % max_size];
 3267              		.loc 17 72 33 view .LVU918
 3268 006e 02EB030C 		add	ip, r2, r3
 3269              	.LBE1003:
 3270              	.LBE1038:
 3271              	.LBB1039:
 3272              	.LBB992:
  56:../../DaisySP/Source/Utility/delayline.h ****                                                            : max_size - 1;
 3273              		.loc 17 56 16 view .LVU919
 3274 0072 C0F808A0 		str	r10, [r0, #8]
 3275              	.LBE992:
 3276              	.LBE1039:
 3277              		.loc 18 290 42 view .LVU920
 3278 0076 B0EE009A 		vmov.f32	s18, #2.0e+0
 3279              	.LBB1040:
 3280              	.LBB1041:
  72:../../DaisySP/Source/Utility/delayline.h ****         T b = line_[(write_ptr_ + delay_ + 1) % max_size];
 3281              		.loc 17 72 22 view .LVU921
 3282 007a 4068     		ldr	r0, [r0, #4]
 3283              	.LBE1041:
 3284              	.LBE1040:
 3285              		.loc 18 290 87 view .LVU922
 3286 007c B6EE00AA 		vmov.f32	s20, #5.0e-1
 3287              	.LBB1049:
 3288              	.LBB997:
  56:../../DaisySP/Source/Utility/delayline.h ****                                                            : max_size - 1;
 3289              		.loc 17 56 16 view .LVU923
 3290 0080 8B60     		str	r3, [r1, #8]
 3291              	.LBE997:
 3292              	.LBE1049:
 3293              		.loc 18 290 138 view .LVU924
 3294 0082 F7EE009A 		vmov.f32	s19, #1.0e+0
 3295              	.LBB1050:
 3296              	.LBB1042:
  72:../../DaisySP/Source/Utility/delayline.h ****         T b = line_[(write_ptr_ + delay_ + 1) % max_size];
 3297              		.loc 17 72 43 view .LVU925
ARM GAS  C:\Users\seanw\AppData\Local\Temp\ccbivcrf.s 			page 96


 3298 0086 B24B     		ldr	r3, .L81+36
  72:../../DaisySP/Source/Utility/delayline.h ****         T b = line_[(write_ptr_ + delay_ + 1) % max_size];
 3299              		.loc 17 72 33 view .LVU926
 3300 0088 0AEB0008 		add	r8, r10, r0
  72:../../DaisySP/Source/Utility/delayline.h ****         T b = line_[(write_ptr_ + delay_ + 1) % max_size];
 3301              		.loc 17 72 43 view .LVU927
 3302 008c B14A     		ldr	r2, .L81+40
 3303 008e A3FB084B 		umull	r4, fp, r3, r8
  73:../../DaisySP/Source/Utility/delayline.h ****         return a + (b - a) * frac_;
 3304              		.loc 17 73 42 view .LVU928
 3305 0092 08F10109 		add	r9, r8, #1
  72:../../DaisySP/Source/Utility/delayline.h ****         T b = line_[(write_ptr_ + delay_ + 1) % max_size];
 3306              		.loc 17 72 33 view .LVU929
 3307 0096 0390     		str	r0, [sp, #12]
  72:../../DaisySP/Source/Utility/delayline.h ****         T b = line_[(write_ptr_ + delay_ + 1) % max_size];
 3308              		.loc 17 72 43 view .LVU930
 3309 0098 4FEADB3B 		lsr	fp, fp, #15
  72:../../DaisySP/Source/Utility/delayline.h ****         T b = line_[(write_ptr_ + delay_ + 1) % max_size];
 3310              		.loc 17 72 11 view .LVU931
 3311 009c A748     		ldr	r0, .L81+16
 3312              	.LBE1042:
 3313              	.LBE1050:
 3314              	.LBB1051:
 3315              	.LBB1023:
  55:../../DaisySP/Source/Utility/delayline.h ****         delay_ = static_cast<size_t>(int_delay) < max_size ? int_delay
 3316              		.loc 17 55 27 view .LVU932
 3317 009e C5ED007A 		vstr.32	s15, [r5]
 3318              	.LBE1023:
 3319              	.LBE1051:
 3320              	.LBB1052:
 3321              	.LBB1043:
  72:../../DaisySP/Source/Utility/delayline.h ****         T b = line_[(write_ptr_ + delay_ + 1) % max_size];
 3322              		.loc 17 72 43 view .LVU933
 3323 00a2 02FB1B88 		mls	r8, r2, fp, r8
 3324              	.LBE1043:
 3325              	.LBE1052:
 3326              	.LBB1053:
 3327              	.LBB1054:
  73:../../DaisySP/Source/Utility/delayline.h ****         return a + (b - a) * frac_;
 3328              		.loc 17 73 42 view .LVU934
 3329 00a6 44F6216B 		movw	fp, #20001
 3330              	.LBE1054:
 3331              	.LBE1053:
 3332              	.LBB1064:
 3333              	.LBB1024:
  56:../../DaisySP/Source/Utility/delayline.h ****                                                            : max_size - 1;
 3334              		.loc 17 56 16 view .LVU935
 3335 00aa C5F808A0 		str	r10, [r5, #8]
 3336              	.LVL141:
  56:../../DaisySP/Source/Utility/delayline.h ****                                                            : max_size - 1;
 3337              		.loc 17 56 16 view .LVU936
 3338              	.LBE1024:
 3339              	.LBE1064:
 273:MultiEffect.cpp ****     delr2.SetDelay(20000.0f);
 3340              		.loc 18 273 5 is_stmt 1 view .LVU937
 3341              	.LBB1065:
 3342              	.LBI989:
ARM GAS  C:\Users\seanw\AppData\Local\Temp\ccbivcrf.s 			page 97


  52:../../DaisySP/Source/Utility/delayline.h ****     {
 3343              		.loc 17 52 17 view .LVU938
  52:../../DaisySP/Source/Utility/delayline.h ****     {
 3344              		.loc 17 52 17 is_stmt 0 view .LVU939
 3345              	.LBE1065:
 274:MultiEffect.cpp ****     dell2.SetDelay(30000.0f);
 3346              		.loc 18 274 5 is_stmt 1 view .LVU940
 3347              	.LBB1066:
 3348              	.LBI982:
  52:../../DaisySP/Source/Utility/delayline.h ****     {
 3349              		.loc 17 52 17 view .LVU941
  52:../../DaisySP/Source/Utility/delayline.h ****     {
 3350              		.loc 17 52 17 is_stmt 0 view .LVU942
 3351              	.LBE1066:
 3352              	.LBB1067:
 3353              	.LBB1044:
  72:../../DaisySP/Source/Utility/delayline.h ****         T b = line_[(write_ptr_ + delay_ + 1) % max_size];
 3354              		.loc 17 72 11 view .LVU943
 3355 00ae 00EB8808 		add	r8, r0, r8, lsl #2
 3356 00b2 98ED037A 		vldr.32	s14, [r8, #12]
  73:../../DaisySP/Source/Utility/delayline.h ****         return a + (b - a) * frac_;
 3357              		.loc 17 73 47 view .LVU944
 3358 00b6 A3FB0948 		umull	r4, r8, r3, r9
 3359 00ba 4FEAD838 		lsr	r8, r8, #15
 3360 00be 02FB1899 		mls	r9, r2, r8, r9
 3361              	.LBE1044:
 3362              	.LBE1067:
 3363              	.LBB1068:
 3364              	.LBB1004:
  72:../../DaisySP/Source/Utility/delayline.h ****         T b = line_[(write_ptr_ + delay_ + 1) % max_size];
 3365              		.loc 17 72 43 view .LVU945
 3366 00c2 A3FB0C48 		umull	r4, r8, r3, ip
 3367              	.LBE1004:
 3368              	.LBE1068:
 3369              	.LBB1069:
 3370              	.LBB1045:
  73:../../DaisySP/Source/Utility/delayline.h ****         return a + (b - a) * frac_;
 3371              		.loc 17 73 11 view .LVU946
 3372 00c6 00EB8909 		add	r9, r0, r9, lsl #2
 3373              	.LBE1045:
 3374              	.LBE1069:
 3375              	.LBB1070:
 3376              	.LBB1005:
  72:../../DaisySP/Source/Utility/delayline.h ****         T b = line_[(write_ptr_ + delay_ + 1) % max_size];
 3377              		.loc 17 72 43 view .LVU947
 3378 00ca 4FEAD838 		lsr	r8, r8, #15
 3379              	.LBE1005:
 3380              	.LBE1070:
 3381              	.LBB1071:
 3382              	.LBB1046:
 3383              		.loc 17 74 23 view .LVU948
 3384 00ce 99ED036A 		vldr.32	s12, [r9, #12]
 3385              	.LBE1046:
 3386              	.LBE1071:
 3387              	.LBB1072:
 3388              	.LBB1006:
  72:../../DaisySP/Source/Utility/delayline.h ****         T b = line_[(write_ptr_ + delay_ + 1) % max_size];
ARM GAS  C:\Users\seanw\AppData\Local\Temp\ccbivcrf.s 			page 98


 3389              		.loc 17 72 43 view .LVU949
 3390 00d2 02FB18CC 		mls	ip, r2, r8, ip
 3391              	.LBE1006:
 3392              	.LBE1072:
 3393              	.LBB1073:
 3394              	.LBB984:
  55:../../DaisySP/Source/Utility/delayline.h ****         delay_ = static_cast<size_t>(int_delay) < max_size ? int_delay
 3395              		.loc 17 55 27 view .LVU950
 3396 00d6 DFF88882 		ldr	r8, .L81+52
 3397              	.LBE984:
 3398              	.LBE1073:
 3399              	.LBB1074:
 3400              	.LBB1047:
 3401              		.loc 17 74 23 view .LVU951
 3402 00da 36EE476A 		vsub.f32	s12, s12, s14
 3403              	.LBE1047:
 3404              	.LBE1074:
 3405              	.LBB1075:
 3406              	.LBB1007:
  72:../../DaisySP/Source/Utility/delayline.h ****         T b = line_[(write_ptr_ + delay_ + 1) % max_size];
 3407              		.loc 17 72 11 view .LVU952
 3408 00de 01EB8C0C 		add	ip, r1, ip, lsl #2
 3409              	.LBE1007:
 3410              	.LBE1075:
 3411              	.LBB1076:
 3412              	.LBB1055:
  72:../../DaisySP/Source/Utility/delayline.h ****         T b = line_[(write_ptr_ + delay_ + 1) % max_size];
 3413              		.loc 17 72 22 view .LVU953
 3414 00e2 D8F80490 		ldr	r9, [r8, #4]
 3415              	.LBE1055:
 3416              	.LBE1076:
 3417              	.LBB1077:
 3418              	.LBB985:
  55:../../DaisySP/Source/Utility/delayline.h ****         delay_ = static_cast<size_t>(int_delay) < max_size ? int_delay
 3419              		.loc 17 55 27 view .LVU954
 3420 00e6 C8ED006A 		vstr.32	s13, [r8]
 3421              	.LBE985:
 3422              	.LBE1077:
 3423              	.LBB1078:
 3424              	.LBB1048:
 3425              		.loc 17 74 30 view .LVU955
 3426 00ea A7EE867A 		vfma.f32	s14, s15, s12
 3427              	.LBE1048:
 3428              	.LBE1078:
 3429              	.LBB1079:
 3430              	.LBB1008:
  72:../../DaisySP/Source/Utility/delayline.h ****         T b = line_[(write_ptr_ + delay_ + 1) % max_size];
 3431              		.loc 17 72 11 view .LVU956
 3432 00ee DCED037A 		vldr.32	s15, [ip, #12]
  73:../../DaisySP/Source/Utility/delayline.h ****         return a + (b - a) * frac_;
 3433              		.loc 17 73 47 view .LVU957
 3434 00f2 A3FB0E4C 		umull	r4, ip, r3, lr
 3435              	.LBE1008:
 3436              	.LBE1079:
 3437              	.LBB1080:
 3438              	.LBB1081:
  72:../../DaisySP/Source/Utility/delayline.h ****         T b = line_[(write_ptr_ + delay_ + 1) % max_size];
ARM GAS  C:\Users\seanw\AppData\Local\Temp\ccbivcrf.s 			page 99


 3439              		.loc 17 72 22 view .LVU958
 3440 00f6 6C68     		ldr	r4, [r5, #4]
 3441              	.LBE1081:
 3442              	.LBE1080:
 3443              	.LBB1092:
 3444              	.LBB1056:
  73:../../DaisySP/Source/Utility/delayline.h ****         return a + (b - a) * frac_;
 3445              		.loc 17 73 42 view .LVU959
 3446 00f8 CB44     		add	fp, fp, r9
 3447              	.LBE1056:
 3448              	.LBE1092:
 3449              	.LBB1093:
 3450              	.LBB1009:
  73:../../DaisySP/Source/Utility/delayline.h ****         return a + (b - a) * frac_;
 3451              		.loc 17 73 47 view .LVU960
 3452 00fa 4FEADC3C 		lsr	ip, ip, #15
 3453              	.LBE1009:
 3454              	.LBE1093:
 3455              	.LBB1094:
 3456              	.LBB1082:
  72:../../DaisySP/Source/Utility/delayline.h ****         T b = line_[(write_ptr_ + delay_ + 1) % max_size];
 3457              		.loc 17 72 33 view .LVU961
 3458 00fe A244     		add	r10, r10, r4
 3459 0100 0194     		str	r4, [sp, #4]
 3460              	.LBE1082:
 3461              	.LBE1094:
 3462              	.LBB1095:
 3463              	.LBB1010:
  73:../../DaisySP/Source/Utility/delayline.h ****         return a + (b - a) * frac_;
 3464              		.loc 17 73 47 view .LVU962
 3465 0102 02FB1CEE 		mls	lr, r2, ip, lr
 3466              	.LBE1010:
 3467              	.LBE1095:
 3468              	.LBB1096:
 3469              	.LBB986:
  56:../../DaisySP/Source/Utility/delayline.h ****                                                            : max_size - 1;
 3470              		.loc 17 56 16 view .LVU963
 3471 0106 44F6206C 		movw	ip, #20000
 3472              	.LBE986:
 3473              	.LBE1096:
 3474              	.LBB1097:
 3475              	.LBB1083:
  72:../../DaisySP/Source/Utility/delayline.h ****         T b = line_[(write_ptr_ + delay_ + 1) % max_size];
 3476              		.loc 17 72 43 view .LVU964
 3477 010a A3FB0A40 		umull	r4, r0, r3, r10
 3478              	.LBE1083:
 3479              	.LBE1097:
 3480              	.LBB1098:
 3481              	.LBB1099:
  64:../../DaisySP/Source/Utility/delayline.h ****         write_ptr_        = (write_ptr_ - 1 + max_size) % max_size;
 3482              		.loc 17 64 27 view .LVU965
 3483 010e 8B4C     		ldr	r4, .L81+16
 3484              	.LBE1099:
 3485              	.LBE1098:
 3486              	.LBB1105:
 3487              	.LBB1011:
  73:../../DaisySP/Source/Utility/delayline.h ****         return a + (b - a) * frac_;
ARM GAS  C:\Users\seanw\AppData\Local\Temp\ccbivcrf.s 			page 100


 3488              		.loc 17 73 11 view .LVU966
 3489 0110 01EB8E0E 		add	lr, r1, lr, lsl #2
 3490              	.LBE1011:
 3491              	.LBE1105:
 3492              	.LBB1106:
 3493              	.LBB987:
  56:../../DaisySP/Source/Utility/delayline.h ****                                                            : max_size - 1;
 3494              		.loc 17 56 16 view .LVU967
 3495 0114 C8F808C0 		str	ip, [r8, #8]
 3496              	.LBE987:
 3497              	.LBE1106:
 3498              	.LBB1107:
 3499              	.LBB1084:
  72:../../DaisySP/Source/Utility/delayline.h ****         T b = line_[(write_ptr_ + delay_ + 1) % max_size];
 3500              		.loc 17 72 43 view .LVU968
 3501 0118 C00B     		lsrs	r0, r0, #15
 3502              	.LBE1084:
 3503              	.LBE1107:
 3504              	.LBB1108:
 3505              	.LBB1057:
  72:../../DaisySP/Source/Utility/delayline.h ****         T b = line_[(write_ptr_ + delay_ + 1) % max_size];
 3506              		.loc 17 72 33 view .LVU969
 3507 011a CC44     		add	ip, ip, r9
 3508              	.LBE1057:
 3509              	.LBE1108:
 3510              	.LBB1109:
 3511              	.LBB1012:
 3512              		.loc 17 74 23 view .LVU970
 3513 011c 9EED036A 		vldr.32	s12, [lr, #12]
 3514              	.LBE1012:
 3515              	.LBE1109:
 3516              	.LBB1110:
 3517              	.LBB1085:
  73:../../DaisySP/Source/Utility/delayline.h ****         return a + (b - a) * frac_;
 3518              		.loc 17 73 42 view .LVU971
 3519 0120 0AF1010E 		add	lr, r10, #1
  72:../../DaisySP/Source/Utility/delayline.h ****         T b = line_[(write_ptr_ + delay_ + 1) % max_size];
 3520              		.loc 17 72 43 view .LVU972
 3521 0124 02FB10AA 		mls	r10, r2, r0, r10
 3522              	.LBE1085:
 3523              	.LBE1110:
 3524              	.LBB1111:
 3525              	.LBB1013:
 3526              		.loc 17 74 23 view .LVU973
 3527 0128 36EE676A 		vsub.f32	s12, s12, s15
 3528              	.LVL142:
 3529              		.loc 17 74 23 view .LVU974
 3530              	.LBE1013:
 3531              	.LBE1111:
 275:MultiEffect.cpp ****     outl = dell.Read() + dell2.Read();
 3532              		.loc 18 275 5 is_stmt 1 view .LVU975
 3533              	.LBB1112:
 3534              	.LBI993:
  52:../../DaisySP/Source/Utility/delayline.h ****     {
 3535              		.loc 17 52 17 view .LVU976
  52:../../DaisySP/Source/Utility/delayline.h ****     {
 3536              		.loc 17 52 17 is_stmt 0 view .LVU977
ARM GAS  C:\Users\seanw\AppData\Local\Temp\ccbivcrf.s 			page 101


 3537              	.LBE1112:
 276:MultiEffect.cpp ****     outr = delr.Read() + delr2.Read();
 3538              		.loc 18 276 5 is_stmt 1 view .LVU978
 3539              	.LBB1113:
 3540              	.LBI1040:
  70:../../DaisySP/Source/Utility/delayline.h ****     {
 3541              		.loc 17 70 20 view .LVU979
  70:../../DaisySP/Source/Utility/delayline.h ****     {
 3542              		.loc 17 70 20 is_stmt 0 view .LVU980
 3543              	.LBE1113:
 3544              	.LBB1114:
 3545              	.LBI998:
  70:../../DaisySP/Source/Utility/delayline.h ****     {
 3546              		.loc 17 70 20 is_stmt 1 view .LVU981
  70:../../DaisySP/Source/Utility/delayline.h ****     {
 3547              		.loc 17 70 20 is_stmt 0 view .LVU982
 3548              	.LBE1114:
 3549              	.LBB1115:
 3550              	.LBB1086:
  72:../../DaisySP/Source/Utility/delayline.h ****         T b = line_[(write_ptr_ + delay_ + 1) % max_size];
 3551              		.loc 17 72 11 view .LVU983
 3552 012c 05EB8A0A 		add	r10, r5, r10, lsl #2
 3553              	.LBE1086:
 3554              	.LBE1115:
 3555              	.LBB1116:
 3556              	.LBB1014:
 3557              		.loc 17 74 30 view .LVU984
 3558 0130 E6EE267A 		vfma.f32	s15, s12, s13
 3559              	.LBE1014:
 3560              	.LBE1116:
 276:MultiEffect.cpp ****     outr = delr.Read() + delr2.Read();
 3561              		.loc 18 276 24 view .LVU985
 3562 0134 77EE877A 		vadd.f32	s15, s15, s14
 276:MultiEffect.cpp ****     outr = delr.Read() + delr2.Read();
 3563              		.loc 18 276 10 view .LVU986
 3564 0138 C7ED007A 		vstr.32	s15, [r7]
 277:MultiEffect.cpp ****     dell.Write((feedback * outl) + inl);
 3565              		.loc 18 277 5 is_stmt 1 view .LVU987
 3566              	.LVL143:
 3567              	.LBB1117:
 3568              	.LBI1080:
  70:../../DaisySP/Source/Utility/delayline.h ****     {
 3569              		.loc 17 70 20 view .LVU988
 3570              	.LBB1087:
  72:../../DaisySP/Source/Utility/delayline.h ****         T b = line_[(write_ptr_ + delay_ + 1) % max_size];
 3571              		.loc 17 72 11 is_stmt 0 view .LVU989
 3572 013c DAED037A 		vldr.32	s15, [r10, #12]
 3573              	.LVL144:
  73:../../DaisySP/Source/Utility/delayline.h ****         return a + (b - a) * frac_;
 3574              		.loc 17 73 47 view .LVU990
 3575 0140 A3FB0E0A 		umull	r0, r10, r3, lr
 3576              		.loc 17 74 30 view .LVU991
 3577 0144 D5ED005A 		vldr.32	s11, [r5]
  73:../../DaisySP/Source/Utility/delayline.h ****         return a + (b - a) * frac_;
 3578              		.loc 17 73 47 view .LVU992
 3579 0148 4FEADA3A 		lsr	r10, r10, #15
 3580              	.LBE1087:
ARM GAS  C:\Users\seanw\AppData\Local\Temp\ccbivcrf.s 			page 102


 3581              	.LBE1117:
 3582              	.LBB1118:
 3583              	.LBB1058:
 3584              		.loc 17 74 30 view .LVU993
 3585 014c 98ED006A 		vldr.32	s12, [r8]
 3586              	.LBE1058:
 3587              	.LBE1118:
 3588              	.LBB1119:
 3589              	.LBB1088:
  73:../../DaisySP/Source/Utility/delayline.h ****         return a + (b - a) * frac_;
 3590              		.loc 17 73 47 view .LVU994
 3591 0150 02FB1AEE 		mls	lr, r2, r10, lr
  73:../../DaisySP/Source/Utility/delayline.h ****         return a + (b - a) * frac_;
 3592              		.loc 17 73 11 view .LVU995
 3593 0154 05EB8E0E 		add	lr, r5, lr, lsl #2
 3594              		.loc 17 74 23 view .LVU996
 3595 0158 DEED036A 		vldr.32	s13, [lr, #12]
 3596              	.LBE1088:
 3597              	.LBE1119:
 3598              	.LBB1120:
 3599              	.LBB1059:
  72:../../DaisySP/Source/Utility/delayline.h ****         T b = line_[(write_ptr_ + delay_ + 1) % max_size];
 3600              		.loc 17 72 43 view .LVU997
 3601 015c A3FB0CAE 		umull	r10, lr, r3, ip
 3602              	.LBE1059:
 3603              	.LBE1120:
 278:MultiEffect.cpp ****     dell2.Write((feedback * outl) + inl);
 3604              		.loc 18 278 26 view .LVU998
 3605 0160 DFF800A2 		ldr	r10, .L81+56
 3606              	.LBB1121:
 3607              	.LBB1089:
 3608              		.loc 17 74 23 view .LVU999
 3609 0164 76EEE76A 		vsub.f32	s13, s13, s15
 3610              	.LBE1089:
 3611              	.LBE1121:
 3612              	.LBB1122:
 3613              	.LBB1060:
  72:../../DaisySP/Source/Utility/delayline.h ****         T b = line_[(write_ptr_ + delay_ + 1) % max_size];
 3614              		.loc 17 72 43 view .LVU1000
 3615 0168 4FEADE3E 		lsr	lr, lr, #15
 3616 016c 02FB1ECC 		mls	ip, r2, lr, ip
 3617              	.LBE1060:
 3618              	.LBE1122:
 3619              	.LBB1123:
 3620              	.LBB1090:
 3621              		.loc 17 74 30 view .LVU1001
 3622 0170 E6EEA57A 		vfma.f32	s15, s13, s11
 3623              	.LVL145:
 3624              		.loc 17 74 30 view .LVU1002
 3625              	.LBE1090:
 3626              	.LBE1123:
 3627              	.LBB1124:
 3628              	.LBB1061:
  72:../../DaisySP/Source/Utility/delayline.h ****         T b = line_[(write_ptr_ + delay_ + 1) % max_size];
 3629              		.loc 17 72 11 view .LVU1003
 3630 0174 08EB8C0C 		add	ip, r8, ip, lsl #2
 3631              	.LBE1061:
ARM GAS  C:\Users\seanw\AppData\Local\Temp\ccbivcrf.s 			page 103


 3632              	.LBE1124:
 3633              	.LBB1125:
 3634              	.LBB1091:
 3635              		.loc 17 74 30 view .LVU1004
 3636 0178 B0EE677A 		vmov.f32	s14, s15
 3637              	.LVL146:
 3638              		.loc 17 74 30 view .LVU1005
 3639              	.LBE1091:
 3640              	.LBE1125:
 3641              	.LBB1126:
 3642              	.LBI1053:
  70:../../DaisySP/Source/Utility/delayline.h ****     {
 3643              		.loc 17 70 20 is_stmt 1 view .LVU1006
 3644              	.LBB1062:
  72:../../DaisySP/Source/Utility/delayline.h ****         T b = line_[(write_ptr_ + delay_ + 1) % max_size];
 3645              		.loc 17 72 11 is_stmt 0 view .LVU1007
 3646 017c DCED037A 		vldr.32	s15, [ip, #12]
 3647              	.LVL147:
  73:../../DaisySP/Source/Utility/delayline.h ****         return a + (b - a) * frac_;
 3648              		.loc 17 73 47 view .LVU1008
 3649 0180 A3FB0BEC 		umull	lr, ip, r3, fp
 3650 0184 4FEADC3C 		lsr	ip, ip, #15
 3651 0188 02FB1CBC 		mls	ip, r2, ip, fp
 3652              	.LBE1062:
 3653              	.LBE1126:
 284:MultiEffect.cpp ****     crs2.Process(inr);
 3654              		.loc 18 284 16 view .LVU1009
 3655 018c DFF8D8B1 		ldr	fp, .L81+60
 3656              	.LBB1127:
 3657              	.LBB1063:
  73:../../DaisySP/Source/Utility/delayline.h ****         return a + (b - a) * frac_;
 3658              		.loc 17 73 11 view .LVU1010
 3659 0190 08EB8C0C 		add	ip, r8, ip, lsl #2
 3660              		.loc 17 74 23 view .LVU1011
 3661 0194 DCED036A 		vldr.32	s13, [ip, #12]
 3662 0198 76EEE76A 		vsub.f32	s13, s13, s15
 3663              		.loc 17 74 30 view .LVU1012
 3664 019c E6EE867A 		vfma.f32	s15, s13, s12
 3665              	.LVL148:
 3666              		.loc 17 74 30 view .LVU1013
 3667              	.LBE1063:
 3668              	.LBE1127:
 277:MultiEffect.cpp ****     dell.Write((feedback * outl) + inl);
 3669              		.loc 18 277 24 view .LVU1014
 3670 01a0 77EE877A 		vadd.f32	s15, s15, s14
 278:MultiEffect.cpp ****     dell2.Write((feedback * outl) + inl);
 3671              		.loc 18 278 15 view .LVU1015
 3672 01a4 B0EE407A 		vmov.f32	s14, s0
 277:MultiEffect.cpp ****     dell.Write((feedback * outl) + inl);
 3673              		.loc 18 277 10 view .LVU1016
 3674 01a8 C6ED007A 		vstr.32	s15, [r6]
 278:MultiEffect.cpp ****     dell2.Write((feedback * outl) + inl);
 3675              		.loc 18 278 5 is_stmt 1 view .LVU1017
 278:MultiEffect.cpp ****     dell2.Write((feedback * outl) + inl);
 3676              		.loc 18 278 15 is_stmt 0 view .LVU1018
 3677 01ac D7ED006A 		vldr.32	s13, [r7]
 278:MultiEffect.cpp ****     dell2.Write((feedback * outl) + inl);
ARM GAS  C:\Users\seanw\AppData\Local\Temp\ccbivcrf.s 			page 104


 3678              		.loc 18 278 26 view .LVU1019
 3679 01b0 DAED007A 		vldr.32	s15, [r10]
 3680              	.LBB1128:
 3681              	.LBB1100:
  64:../../DaisySP/Source/Utility/delayline.h ****         write_ptr_        = (write_ptr_ - 1 + max_size) % max_size;
 3682              		.loc 17 64 27 view .LVU1020
 3683 01b4 0398     		ldr	r0, [sp, #12]
 3684              	.LBE1100:
 3685              	.LBE1128:
 278:MultiEffect.cpp ****     dell2.Write((feedback * outl) + inl);
 3686              		.loc 18 278 15 view .LVU1021
 3687 01b6 A6EEA77A 		vfma.f32	s14, s13, s15
 3688              	.LVL149:
 3689              	.LBB1129:
 3690              	.LBI1098:
  62:../../DaisySP/Source/Utility/delayline.h ****     {
 3691              		.loc 17 62 17 is_stmt 1 view .LVU1022
 3692              	.LBB1101:
  64:../../DaisySP/Source/Utility/delayline.h ****         write_ptr_        = (write_ptr_ - 1 + max_size) % max_size;
 3693              		.loc 17 64 27 is_stmt 0 view .LVU1023
 3694 01ba 04EB800C 		add	ip, r4, r0, lsl #2
 3695 01be 8CED037A 		vstr.32	s14, [ip, #12]
 3696              	.LBE1101:
 3697              	.LBE1129:
 279:MultiEffect.cpp ****     delr.Write((feedback * outr) + inr);
 3698              		.loc 18 279 16 view .LVU1024
 3699 01c2 B0EE407A 		vmov.f32	s14, s0
 3700              	.LVL150:
 3701              	.LBB1130:
 3702              	.LBB1102:
  65:../../DaisySP/Source/Utility/delayline.h ****     }
 3703              		.loc 17 65 45 view .LVU1025
 3704 01c6 DFF880C1 		ldr	ip, .L81+28
 3705              	.LVL151:
  65:../../DaisySP/Source/Utility/delayline.h ****     }
 3706              		.loc 17 65 45 view .LVU1026
 3707              	.LBE1102:
 3708              	.LBE1130:
 279:MultiEffect.cpp ****     delr.Write((feedback * outr) + inr);
 3709              		.loc 18 279 16 view .LVU1027
 3710 01ca D7ED006A 		vldr.32	s13, [r7]
 3711              	.LBB1131:
 3712              	.LBB1103:
  65:../../DaisySP/Source/Utility/delayline.h ****     }
 3713              		.loc 17 65 45 view .LVU1028
 3714 01ce 8444     		add	ip, r0, ip
 3715              	.LBE1103:
 3716              	.LBE1131:
 279:MultiEffect.cpp ****     delr.Write((feedback * outr) + inr);
 3717              		.loc 18 279 16 view .LVU1029
 3718 01d0 A7EEA67A 		vfma.f32	s14, s15, s13
 3719              	.LBB1132:
 3720              	.LBB1104:
  65:../../DaisySP/Source/Utility/delayline.h ****     }
 3721              		.loc 17 65 57 view .LVU1030
 3722 01d4 A3FB0C0E 		umull	r0, lr, r3, ip
 3723              	.LVL152:
ARM GAS  C:\Users\seanw\AppData\Local\Temp\ccbivcrf.s 			page 105


  65:../../DaisySP/Source/Utility/delayline.h ****     }
 3724              		.loc 17 65 57 view .LVU1031
 3725 01d8 4FEADE3E 		lsr	lr, lr, #15
 3726 01dc 02FB1ECC 		mls	ip, r2, lr, ip
  65:../../DaisySP/Source/Utility/delayline.h ****     }
 3727              		.loc 17 65 27 view .LVU1032
 3728 01e0 C4F804C0 		str	ip, [r4, #4]
 3729              	.LVL153:
  65:../../DaisySP/Source/Utility/delayline.h ****     }
 3730              		.loc 17 65 27 view .LVU1033
 3731              	.LBE1104:
 3732              	.LBE1132:
 279:MultiEffect.cpp ****     delr.Write((feedback * outr) + inr);
 3733              		.loc 18 279 5 is_stmt 1 view .LVU1034
 3734              	.LBB1133:
 3735              	.LBI1133:
  62:../../DaisySP/Source/Utility/delayline.h ****     {
 3736              		.loc 17 62 17 view .LVU1035
 3737              	.LBB1134:
  64:../../DaisySP/Source/Utility/delayline.h ****         write_ptr_        = (write_ptr_ - 1 + max_size) % max_size;
 3738              		.loc 17 64 27 is_stmt 0 view .LVU1036
 3739 01e4 029C     		ldr	r4, [sp, #8]
  65:../../DaisySP/Source/Utility/delayline.h ****     }
 3740              		.loc 17 65 45 view .LVU1037
 3741 01e6 DFF860C1 		ldr	ip, .L81+28
  64:../../DaisySP/Source/Utility/delayline.h ****         write_ptr_        = (write_ptr_ - 1 + max_size) % max_size;
 3742              		.loc 17 64 27 view .LVU1038
 3743 01ea 01EB8400 		add	r0, r1, r4, lsl #2
  65:../../DaisySP/Source/Utility/delayline.h ****     }
 3744              		.loc 17 65 45 view .LVU1039
 3745 01ee A444     		add	ip, r4, ip
 3746              	.LBE1134:
 3747              	.LBE1133:
 3748              	.LBB1138:
 3749              	.LBB1139:
  64:../../DaisySP/Source/Utility/delayline.h ****         write_ptr_        = (write_ptr_ - 1 + max_size) % max_size;
 3750              		.loc 17 64 27 view .LVU1040
 3751 01f0 019C     		ldr	r4, [sp, #4]
 3752              	.LBE1139:
 3753              	.LBE1138:
 3754              	.LBB1148:
 3755              	.LBB1135:
 3756 01f2 80ED037A 		vstr.32	s14, [r0, #12]
 3757              	.LBE1135:
 3758              	.LBE1148:
 280:MultiEffect.cpp ****     delr2.Write((feedback * outr) + inr);
 3759              		.loc 18 280 15 view .LVU1041
 3760 01f6 B0EE607A 		vmov.f32	s14, s1
 3761              	.LVL154:
 280:MultiEffect.cpp ****     delr2.Write((feedback * outr) + inr);
 3762              		.loc 18 280 15 view .LVU1042
 3763 01fa D6ED006A 		vldr.32	s13, [r6]
 3764              	.LBB1149:
 3765              	.LBB1140:
  64:../../DaisySP/Source/Utility/delayline.h ****         write_ptr_        = (write_ptr_ - 1 + max_size) % max_size;
 3766              		.loc 17 64 27 view .LVU1043
 3767 01fe 05EB8400 		add	r0, r5, r4, lsl #2
ARM GAS  C:\Users\seanw\AppData\Local\Temp\ccbivcrf.s 			page 106


 3768              	.LVL155:
  64:../../DaisySP/Source/Utility/delayline.h ****         write_ptr_        = (write_ptr_ - 1 + max_size) % max_size;
 3769              		.loc 17 64 27 view .LVU1044
 3770              	.LBE1140:
 3771              	.LBE1149:
 280:MultiEffect.cpp ****     delr2.Write((feedback * outr) + inr);
 3772              		.loc 18 280 15 view .LVU1045
 3773 0202 A7EEA67A 		vfma.f32	s14, s15, s13
 3774              	.LBB1150:
 3775              	.LBB1141:
  64:../../DaisySP/Source/Utility/delayline.h ****         write_ptr_        = (write_ptr_ - 1 + max_size) % max_size;
 3776              		.loc 17 64 27 view .LVU1046
 3777 0206 80ED037A 		vstr.32	s14, [r0, #12]
 3778              	.LBE1141:
 3779              	.LBE1150:
 281:MultiEffect.cpp **** 
 3780              		.loc 18 281 16 view .LVU1047
 3781 020a B0EE607A 		vmov.f32	s14, s1
 3782 020e D6ED006A 		vldr.32	s13, [r6]
 3783              	.LBB1151:
 3784              	.LBB1142:
  65:../../DaisySP/Source/Utility/delayline.h ****     }
 3785              		.loc 17 65 45 view .LVU1048
 3786 0212 4D48     		ldr	r0, .L81+28
 3787              	.LBE1142:
 3788              	.LBE1151:
 281:MultiEffect.cpp **** 
 3789              		.loc 18 281 16 view .LVU1049
 3790 0214 A7EEA67A 		vfma.f32	s14, s15, s13
 3791              	.LBB1152:
 3792              	.LBB1143:
  65:../../DaisySP/Source/Utility/delayline.h ****     }
 3793              		.loc 17 65 45 view .LVU1050
 3794 0218 2018     		adds	r0, r4, r0
 3795              	.LBE1143:
 3796              	.LBE1152:
 3797              	.LBB1153:
 3798              	.LBB1154:
 3799 021a 4B4C     		ldr	r4, .L81+28
 3800 021c 4C44     		add	r4, r9, r4
  64:../../DaisySP/Source/Utility/delayline.h ****         write_ptr_        = (write_ptr_ - 1 + max_size) % max_size;
 3801              		.loc 17 64 27 view .LVU1051
 3802 021e 08EB8909 		add	r9, r8, r9, lsl #2
 3803 0222 89ED037A 		vstr.32	s14, [r9, #12]
 3804              	.LBE1154:
 3805              	.LBE1153:
 3806              	.LBB1159:
 3807              	.LBB1136:
  65:../../DaisySP/Source/Utility/delayline.h ****     }
 3808              		.loc 17 65 57 view .LVU1052
 3809 0226 A3FB0C9E 		umull	r9, lr, r3, ip
 3810              	.LBE1136:
 3811              	.LBE1159:
 286:MultiEffect.cpp ****     crs4.Process(inr);
 3812              		.loc 18 286 17 view .LVU1053
 3813 022a DFF84091 		ldr	r9, .L81+64
 3814              	.LBB1160:
ARM GAS  C:\Users\seanw\AppData\Local\Temp\ccbivcrf.s 			page 107


 3815              	.LBB1137:
  65:../../DaisySP/Source/Utility/delayline.h ****     }
 3816              		.loc 17 65 57 view .LVU1054
 3817 022e 4FEADE3E 		lsr	lr, lr, #15
 3818 0232 02FB1ECC 		mls	ip, r2, lr, ip
  65:../../DaisySP/Source/Utility/delayline.h ****     }
 3819              		.loc 17 65 27 view .LVU1055
 3820 0236 C1F804C0 		str	ip, [r1, #4]
 3821              	.LVL156:
  65:../../DaisySP/Source/Utility/delayline.h ****     }
 3822              		.loc 17 65 27 view .LVU1056
 3823              	.LBE1137:
 3824              	.LBE1160:
 280:MultiEffect.cpp ****     delr2.Write((feedback * outr) + inr);
 3825              		.loc 18 280 5 is_stmt 1 view .LVU1057
 3826              	.LBB1161:
 3827              	.LBI1138:
  62:../../DaisySP/Source/Utility/delayline.h ****     {
 3828              		.loc 17 62 17 view .LVU1058
 3829              	.LBB1144:
  65:../../DaisySP/Source/Utility/delayline.h ****     }
 3830              		.loc 17 65 57 is_stmt 0 view .LVU1059
 3831 023a A3FB00C1 		umull	ip, r1, r3, r0
 3832              	.LBE1144:
 3833              	.LBE1161:
 3834              	.LBB1162:
 3835              	.LBB1155:
 3836 023e A3FB04C3 		umull	ip, r3, r3, r4
 3837              	.LBE1155:
 3838              	.LBE1162:
 3839              	.LBB1163:
 3840              	.LBB1145:
 3841 0242 C90B     		lsrs	r1, r1, #15
 3842              	.LBE1145:
 3843              	.LBE1163:
 3844              	.LBB1164:
 3845              	.LBB1156:
 3846 0244 DB0B     		lsrs	r3, r3, #15
 3847              	.LBE1156:
 3848              	.LBE1164:
 3849              	.LBB1165:
 3850              	.LBB1146:
 3851 0246 02FB1100 		mls	r0, r2, r1, r0
 3852              	.LBE1146:
 3853              	.LBE1165:
 3854              	.LBB1166:
 3855              	.LBB1157:
 3856 024a 02FB1344 		mls	r4, r2, r3, r4
 3857              	.LBE1157:
 3858              	.LBE1166:
 3859              	.LBB1167:
 3860              	.LBB1147:
  65:../../DaisySP/Source/Utility/delayline.h ****     }
 3861              		.loc 17 65 27 view .LVU1060
 3862 024e 6860     		str	r0, [r5, #4]
 3863              	.LVL157:
  65:../../DaisySP/Source/Utility/delayline.h ****     }
ARM GAS  C:\Users\seanw\AppData\Local\Temp\ccbivcrf.s 			page 108


 3864              		.loc 17 65 27 view .LVU1061
 3865              	.LBE1147:
 3866              	.LBE1167:
 281:MultiEffect.cpp **** 
 3867              		.loc 18 281 5 is_stmt 1 view .LVU1062
 3868              	.LBB1168:
 3869              	.LBI1153:
  62:../../DaisySP/Source/Utility/delayline.h ****     {
 3870              		.loc 17 62 17 view .LVU1063
 3871              	.LBE1168:
 284:MultiEffect.cpp ****     crs2.Process(inr);
 3872              		.loc 18 284 16 is_stmt 0 view .LVU1064
 3873 0250 5846     		mov	r0, fp
 3874              	.LBB1169:
 3875              	.LBB1158:
  65:../../DaisySP/Source/Utility/delayline.h ****     }
 3876              		.loc 17 65 27 view .LVU1065
 3877 0252 C8F80440 		str	r4, [r8, #4]
 3878              	.LVL158:
  65:../../DaisySP/Source/Utility/delayline.h ****     }
 3879              		.loc 17 65 27 view .LVU1066
 3880              	.LBE1158:
 3881              	.LBE1169:
 284:MultiEffect.cpp ****     crs2.Process(inr);
 3882              		.loc 18 284 5 is_stmt 1 view .LVU1067
 284:MultiEffect.cpp ****     crs2.Process(inr);
 3883              		.loc 18 284 16 is_stmt 0 view .LVU1068
 3884 0256 FFF7FEFF 		bl	_ZN7daisysp6Chorus7ProcessEf
 3885              	.LVL159:
 285:MultiEffect.cpp ****     crs3.Process(inl);
 3886              		.loc 18 285 5 is_stmt 1 view .LVU1069
 285:MultiEffect.cpp ****     crs3.Process(inl);
 3887              		.loc 18 285 17 is_stmt 0 view .LVU1070
 3888 025a DFF81481 		ldr	r8, .L81+68
 3889 025e B0EE680A 		vmov.f32	s0, s17
 287:MultiEffect.cpp ****     
 3890              		.loc 18 287 17 view .LVU1071
 3891 0262 3D4D     		ldr	r5, .L81+44
 285:MultiEffect.cpp ****     crs3.Process(inl);
 3892              		.loc 18 285 17 view .LVU1072
 3893 0264 4046     		mov	r0, r8
 3894              		.loc 18 290 26 view .LVU1073
 3895 0266 3D4C     		ldr	r4, .L81+48
 285:MultiEffect.cpp ****     crs3.Process(inl);
 3896              		.loc 18 285 17 view .LVU1074
 3897 0268 FFF7FEFF 		bl	_ZN7daisysp6Chorus7ProcessEf
 3898              	.LVL160:
 286:MultiEffect.cpp ****     crs4.Process(inr);
 3899              		.loc 18 286 5 is_stmt 1 view .LVU1075
 286:MultiEffect.cpp ****     crs4.Process(inr);
 3900              		.loc 18 286 17 is_stmt 0 view .LVU1076
 3901 026c 4846     		mov	r0, r9
 3902 026e B0EE6A0A 		vmov.f32	s0, s21
 3903 0272 FFF7FEFF 		bl	_ZN7daisysp6Chorus7ProcessEf
 3904              	.LVL161:
 287:MultiEffect.cpp ****     
 3905              		.loc 18 287 5 is_stmt 1 view .LVU1077
ARM GAS  C:\Users\seanw\AppData\Local\Temp\ccbivcrf.s 			page 109


 287:MultiEffect.cpp ****     
 3906              		.loc 18 287 17 is_stmt 0 view .LVU1078
 3907 0276 2846     		mov	r0, r5
 3908 0278 B0EE680A 		vmov.f32	s0, s17
 3909 027c FFF7FEFF 		bl	_ZN7daisysp6Chorus7ProcessEf
 3910              	.LVL162:
 3911              		.loc 18 290 5 is_stmt 1 view .LVU1079
 3912              		.loc 18 290 23 is_stmt 0 view .LVU1080
 3913 0280 5846     		mov	r0, fp
 3914 0282 FFF7FEFF 		bl	_ZN7daisysp6Chorus7GetLeftEv
 3915              	.LVL163:
 3916              		.loc 18 290 26 view .LVU1081
 3917 0286 94ED00BA 		vldr.32	s22, [r4]
 3918              		.loc 18 290 56 view .LVU1082
 3919 028a 4846     		mov	r0, r9
 3920              		.loc 18 290 26 view .LVU1083
 3921 028c 20EE0BBA 		vmul.f32	s22, s0, s22
 3922              		.loc 18 290 56 view .LVU1084
 3923 0290 FFF7FEFF 		bl	_ZN7daisysp6Chorus7GetLeftEv
 3924              	.LVL164:
 3925              		.loc 18 290 59 view .LVU1085
 3926 0294 94ED006A 		vldr.32	s12, [r4]
 291:MultiEffect.cpp ****     outr =  crs2.GetRight() * drywet*2.0f + + crs4.GetRight() * drywet*2.0f + inr * (0.5f - drywet)
 3927              		.loc 18 291 26 view .LVU1086
 3928 0298 4046     		mov	r0, r8
 290:MultiEffect.cpp ****     outr =  crs2.GetRight() * drywet*2.0f + + crs4.GetRight() * drywet*2.0f + inr * (0.5f - drywet)
 3929              		.loc 18 290 109 view .LVU1087
 3930 029a 9AED007A 		vldr.32	s14, [r10]
 290:MultiEffect.cpp ****     outr =  crs2.GetRight() * drywet*2.0f + + crs4.GetRight() * drywet*2.0f + inr * (0.5f - drywet)
 3931              		.loc 18 290 59 view .LVU1088
 3932 029e 60EE067A 		vmul.f32	s15, s0, s12
 290:MultiEffect.cpp ****     outr =  crs2.GetRight() * drywet*2.0f + + crs4.GetRight() * drywet*2.0f + inr * (0.5f - drywet)
 3933              		.loc 18 290 109 view .LVU1089
 3934 02a2 D7ED006A 		vldr.32	s13, [r7]
 290:MultiEffect.cpp ****     outr =  crs2.GetRight() * drywet*2.0f + + crs4.GetRight() * drywet*2.0f + inr * (0.5f - drywet)
 3935              		.loc 18 290 87 view .LVU1090
 3936 02a6 7AEE465A 		vsub.f32	s11, s20, s12
 290:MultiEffect.cpp ****     outr =  crs2.GetRight() * drywet*2.0f + + crs4.GetRight() * drywet*2.0f + inr * (0.5f - drywet)
 3937              		.loc 18 290 109 view .LVU1091
 3938 02aa 67EE266A 		vmul.f32	s13, s14, s13
 290:MultiEffect.cpp ****     outr =  crs2.GetRight() * drywet*2.0f + + crs4.GetRight() * drywet*2.0f + inr * (0.5f - drywet)
 3939              		.loc 18 290 67 view .LVU1092
 3940 02ae 77EEA77A 		vadd.f32	s15, s15, s15
 290:MultiEffect.cpp ****     outr =  crs2.GetRight() * drywet*2.0f + + crs4.GetRight() * drywet*2.0f + inr * (0.5f - drywet)
 3941              		.loc 18 290 138 view .LVU1093
 3942 02b2 39EEC77A 		vsub.f32	s14, s19, s14
 290:MultiEffect.cpp ****     outr =  crs2.GetRight() * drywet*2.0f + + crs4.GetRight() * drywet*2.0f + inr * (0.5f - drywet)
 3943              		.loc 18 290 115 view .LVU1094
 3944 02b6 66EE866A 		vmul.f32	s13, s13, s12
 290:MultiEffect.cpp ****     outr =  crs2.GetRight() * drywet*2.0f + + crs4.GetRight() * drywet*2.0f + inr * (0.5f - drywet)
 3945              		.loc 18 290 42 view .LVU1095
 3946 02ba EBEE097A 		vfma.f32	s15, s22, s18
 290:MultiEffect.cpp ****     outr =  crs2.GetRight() * drywet*2.0f + + crs4.GetRight() * drywet*2.0f + inr * (0.5f - drywet)
 3947              		.loc 18 290 150 view .LVU1096
 3948 02be 27EE2A7A 		vmul.f32	s14, s14, s21
 290:MultiEffect.cpp ****     outr =  crs2.GetRight() * drywet*2.0f + + crs4.GetRight() * drywet*2.0f + inr * (0.5f - drywet)
 3949              		.loc 18 290 72 view .LVU1097
ARM GAS  C:\Users\seanw\AppData\Local\Temp\ccbivcrf.s 			page 110


 3950 02c2 E5EEAA7A 		vfma.f32	s15, s11, s21
 290:MultiEffect.cpp ****     outr =  crs2.GetRight() * drywet*2.0f + + crs4.GetRight() * drywet*2.0f + inr * (0.5f - drywet)
 3951              		.loc 18 290 97 view .LVU1098
 3952 02c6 E6EE887A 		vfma.f32	s15, s13, s16
 290:MultiEffect.cpp ****     outr =  crs2.GetRight() * drywet*2.0f + + crs4.GetRight() * drywet*2.0f + inr * (0.5f - drywet)
 3953              		.loc 18 290 129 view .LVU1099
 3954 02ca E6EE077A 		vfma.f32	s15, s12, s14
 290:MultiEffect.cpp ****     outr =  crs2.GetRight() * drywet*2.0f + + crs4.GetRight() * drywet*2.0f + inr * (0.5f - drywet)
 3955              		.loc 18 290 10 view .LVU1100
 3956 02ce C7ED007A 		vstr.32	s15, [r7]
 290:MultiEffect.cpp ****     outr =  crs2.GetRight() * drywet*2.0f + + crs4.GetRight() * drywet*2.0f + inr * (0.5f - drywet)
 3957              		.loc 18 290 164 is_stmt 1 view .LVU1101
 3958              		.loc 18 291 5 view .LVU1102
 3959              		.loc 18 291 26 is_stmt 0 view .LVU1103
 3960 02d2 FFF7FEFF 		bl	_ZN7daisysp6Chorus8GetRightEv
 3961              	.LVL165:
 3962              		.loc 18 291 29 view .LVU1104
 3963 02d6 D4ED00AA 		vldr.32	s21, [r4]
 3964              	.LVL166:
 3965              		.loc 18 291 60 view .LVU1105
 3966 02da 2846     		mov	r0, r5
 3967              		.loc 18 291 29 view .LVU1106
 3968 02dc 60EE2AAA 		vmul.f32	s21, s0, s21
 3969              		.loc 18 291 60 view .LVU1107
 3970 02e0 FFF7FEFF 		bl	_ZN7daisysp6Chorus8GetRightEv
 3971              	.LVL167:
 3972              		.loc 18 291 63 view .LVU1108
 3973 02e4 94ED007A 		vldr.32	s14, [r4]
 3974              		.loc 18 291 113 view .LVU1109
 3975 02e8 DAED006A 		vldr.32	s13, [r10]
 3976              		.loc 18 291 63 view .LVU1110
 3977 02ec 20EE070A 		vmul.f32	s0, s0, s14
 3978              		.loc 18 291 113 view .LVU1111
 3979 02f0 D6ED007A 		vldr.32	s15, [r6]
 3980              		.loc 18 291 91 view .LVU1112
 3981 02f4 3AEE47AA 		vsub.f32	s20, s20, s14
 3982              		.loc 18 291 113 view .LVU1113
 3983 02f8 66EEA77A 		vmul.f32	s15, s13, s15
 3984              		.loc 18 291 71 view .LVU1114
 3985 02fc 30EE000A 		vadd.f32	s0, s0, s0
 3986              		.loc 18 291 142 view .LVU1115
 3987 0300 79EEE69A 		vsub.f32	s19, s19, s13
 3988              		.loc 18 291 119 view .LVU1116
 3989 0304 67EE877A 		vmul.f32	s15, s15, s14
 3990              		.loc 18 291 43 view .LVU1117
 3991 0308 AAEE890A 		vfma.f32	s0, s21, s18
 3992              		.loc 18 291 154 view .LVU1118
 3993 030c 69EEA89A 		vmul.f32	s19, s19, s17
 3994              		.loc 18 291 77 view .LVU1119
 3995 0310 AAEE280A 		vfma.f32	s0, s20, s17
 3996              		.loc 18 291 101 view .LVU1120
 3997 0314 A7EE880A 		vfma.f32	s0, s15, s16
 3998              		.loc 18 291 133 view .LVU1121
 3999 0318 A7EE290A 		vfma.f32	s0, s14, s19
 4000              		.loc 18 291 10 view .LVU1122
 4001 031c 86ED000A 		vstr.32	s0, [r6]
 292:MultiEffect.cpp **** 
ARM GAS  C:\Users\seanw\AppData\Local\Temp\ccbivcrf.s 			page 111


 293:MultiEffect.cpp **** }
 4002              		.loc 18 293 1 view .LVU1123
 4003 0320 05B0     		add	sp, sp, #20
 4004              		.cfi_def_cfa_offset 68
 4005              		@ sp needed
 4006 0322 BDEC088B 		vldm	sp!, {d8-d11}
 4007              		.cfi_restore 86
 4008              		.cfi_restore 87
 4009              		.cfi_restore 84
 4010              		.cfi_restore 85
 4011              		.cfi_restore 82
 4012              		.cfi_restore 83
 4013              		.cfi_restore 80
 4014              		.cfi_restore 81
 4015              		.cfi_def_cfa_offset 36
 4016 0326 BDE8F08F 		pop	{r4, r5, r6, r7, r8, r9, r10, fp, pc}
 4017              	.LVL168:
 4018              	.L82:
 4019              		.loc 18 293 1 view .LVU1124
 4020 032a 00BF     		.align	2
 4021              	.L81:
 4022 032c 00000000 		.word	.LANCHOR2
 4023 0330 00000000 		.word	.LANCHOR1
 4024 0334 F7CC9238 		.word	949144823
 4025 0338 00000000 		.word	0
 4026 033c 24F91500 		.word	_ZL4dell
 4027 0340 0C530700 		.word	_ZL5dell2
 4028 0344 18A60E00 		.word	_ZL4delr
 4029 0348 BFD40100 		.word	119999
 4030 034c 9A99193F 		.word	1058642330
 4031 0350 73B2E745 		.word	1172812403
 4032 0354 C0D40100 		.word	120000
 4033 0358 00000000 		.word	_ZL4crs4
 4034 035c 00000000 		.word	.LANCHOR10
 4035 0360 00000000 		.word	_ZL5delr2
 4036 0364 00000000 		.word	.LANCHOR11
 4037 0368 00000000 		.word	_ZL3crs
 4038 036c 00000000 		.word	_ZL4crs3
 4039 0370 00000000 		.word	_ZL4crs2
 4040              		.cfi_endproc
 4041              	.LFE4409:
 4043              		.section	.text._Z14GetDelaySampleRfS_ff,"ax",%progbits
 4044              		.align	1
 4045              		.p2align 2,,3
 4046              		.global	_Z14GetDelaySampleRfS_ff
 4047              		.syntax unified
 4048              		.thumb
 4049              		.thumb_func
 4050              		.fpu fpv5-d16
 4052              	_Z14GetDelaySampleRfS_ff:
 4053              	.LVL169:
 4054              	.LFB4410:
 294:MultiEffect.cpp **** // process audio adding in delays 
 295:MultiEffect.cpp **** void GetDelaySample(float &outl, float &outr, float inl, float inr)
 296:MultiEffect.cpp **** {
 4055              		.loc 18 296 1 is_stmt 1 view -0
 4056              		.cfi_startproc
ARM GAS  C:\Users\seanw\AppData\Local\Temp\ccbivcrf.s 			page 112


 4057              		@ args = 0, pretend = 0, frame = 16
 4058              		@ frame_needed = 0, uses_anonymous_args = 0
 297:MultiEffect.cpp ****     fonepole(currentDelay, delayTarget, .00007f);
 4059              		.loc 18 297 5 view .LVU1126
 4060              	.LBB1196:
 4061              	.LBI1196:
 135:../../DaisySP/Source/Utility/dsp.h **** {
 4062              		.loc 20 135 13 view .LVU1127
 4063              	.LBB1197:
 4064              		.loc 20 137 5 view .LVU1128
 4065              		.loc 20 137 9 is_stmt 0 view .LVU1129
 4066 0000 954B     		ldr	r3, .L85
 4067              	.LBE1197:
 4068              	.LBE1196:
 4069              		.loc 18 297 13 view .LVU1130
 4070 0002 964A     		ldr	r2, .L85+4
 4071              	.LBB1201:
 4072              	.LBB1198:
 4073              		.loc 20 137 9 view .LVU1131
 4074 0004 D3ED007A 		vldr.32	s15, [r3]
 4075              		.loc 20 137 24 view .LVU1132
 4076 0008 92ED007A 		vldr.32	s14, [r2]
 4077              		.loc 20 137 9 view .LVU1133
 4078 000c DFED946A 		vldr.32	s13, .L85+8
 4079              		.loc 20 137 24 view .LVU1134
 4080 0010 37EE677A 		vsub.f32	s14, s14, s15
 4081              	.LBE1198:
 4082              	.LBE1201:
 4083              	.LBB1202:
 4084              	.LBB1203:
  55:../../DaisySP/Source/Utility/delayline.h ****         delay_ = static_cast<size_t>(int_delay) < max_size ? int_delay
 4085              		.loc 17 55 27 view .LVU1135
 4086 0014 9FED936A 		vldr.32	s12, .L85+12
 4087              	.LBE1203:
 4088              	.LBE1202:
 296:MultiEffect.cpp ****     fonepole(currentDelay, delayTarget, .00007f);
 4089              		.loc 18 296 1 view .LVU1136
 4090 0018 2DE9F04F 		push	{r4, r5, r6, r7, r8, r9, r10, fp, lr}
 4091              		.cfi_def_cfa_offset 36
 4092              		.cfi_offset 4, -36
 4093              		.cfi_offset 5, -32
 4094              		.cfi_offset 6, -28
 4095              		.cfi_offset 7, -24
 4096              		.cfi_offset 8, -20
 4097              		.cfi_offset 9, -16
 4098              		.cfi_offset 10, -12
 4099              		.cfi_offset 11, -8
 4100              		.cfi_offset 14, -4
 4101              	.LBB1208:
 4102              	.LBB1199:
 4103              		.loc 20 137 9 view .LVU1137
 4104 001c E7EE267A 		vfma.f32	s15, s14, s13
 4105              	.LBE1199:
 4106              	.LBE1208:
 4107              	.LBB1209:
 4108              	.LBB1210:
  55:../../DaisySP/Source/Utility/delayline.h ****         delay_ = static_cast<size_t>(int_delay) < max_size ? int_delay
ARM GAS  C:\Users\seanw\AppData\Local\Temp\ccbivcrf.s 			page 113


 4109              		.loc 17 55 27 view .LVU1138
 4110 0020 914F     		ldr	r7, .L85+16
 4111              	.LBE1210:
 4112              	.LBE1209:
 4113              	.LBB1213:
 4114              	.LBB1214:
 4115 0022 924E     		ldr	r6, .L85+20
 4116              	.LBE1214:
 4117              	.LBE1213:
 296:MultiEffect.cpp ****     fonepole(currentDelay, delayTarget, .00007f);
 4118              		.loc 18 296 1 view .LVU1139
 4119 0024 85B0     		sub	sp, sp, #20
 4120              		.cfi_def_cfa_offset 56
 4121              	.LBB1218:
 4122              	.LBB1219:
  72:../../DaisySP/Source/Utility/delayline.h ****         T b = line_[(write_ptr_ + delay_ + 1) % max_size];
 4123              		.loc 17 72 22 view .LVU1140
 4124 0026 7C68     		ldr	r4, [r7, #4]
 4125              	.LBE1219:
 4126              	.LBE1218:
 4127              	.LBB1230:
 4128              	.LBB1231:
  73:../../DaisySP/Source/Utility/delayline.h ****         return a + (b - a) * frac_;
 4129              		.loc 17 73 42 view .LVU1141
 4130 0028 47F2315E 		movw	lr, #30001
  72:../../DaisySP/Source/Utility/delayline.h ****         T b = line_[(write_ptr_ + delay_ + 1) % max_size];
 4131              		.loc 17 72 22 view .LVU1142
 4132 002c 7268     		ldr	r2, [r6, #4]
 4133              	.LBE1231:
 4134              	.LBE1230:
 298:MultiEffect.cpp ****     delr.SetDelay(currentDelay);
 299:MultiEffect.cpp ****     dell.SetDelay(currentDelay);
 300:MultiEffect.cpp ****     delr2.SetDelay(20000.0f);
 301:MultiEffect.cpp ****     dell2.SetDelay(30000.0f);
 302:MultiEffect.cpp ****     outl = dell.Read() + dell2.Read();
 303:MultiEffect.cpp ****     outr = delr.Read() + delr2.Read();
 304:MultiEffect.cpp **** 
 305:MultiEffect.cpp ****     dell.Write((feedback * outl) + inl);
 306:MultiEffect.cpp ****     dell2.Write((feedback * outl) + inl);
 307:MultiEffect.cpp ****     outl = (feedback * outl) + ((1.0f - feedback) * inl);
 4135              		.loc 18 307 39 view .LVU1143
 4136 002e B7EE007A 		vmov.f32	s14, #1.0e+0
 296:MultiEffect.cpp ****     fonepole(currentDelay, delayTarget, .00007f);
 4137              		.loc 18 296 1 view .LVU1144
 4138 0032 0091     		str	r1, [sp]
 4139              	.LBB1245:
 4140              	.LBB1232:
  73:../../DaisySP/Source/Utility/delayline.h ****         return a + (b - a) * frac_;
 4141              		.loc 17 73 42 view .LVU1145
 4142 0034 9644     		add	lr, lr, r2
 4143 0036 0292     		str	r2, [sp, #8]
 4144              	.LBE1232:
 4145              	.LBE1245:
 4146              	.LBB1246:
 4147              	.LBB1247:
  54:../../DaisySP/Source/Utility/delayline.h ****         frac_             = delay - static_cast<float>(int_delay);
 4148              		.loc 17 54 17 view .LVU1146
ARM GAS  C:\Users\seanw\AppData\Local\Temp\ccbivcrf.s 			page 114


 4149 0038 FDEEE76A 		vcvt.s32.f32	s13, s15
 4150              	.LBE1247:
 4151              	.LBE1246:
 4152              	.LBB1253:
 4153              	.LBB1200:
 4154              		.loc 20 137 9 view .LVU1147
 4155 003c C3ED007A 		vstr.32	s15, [r3]
 4156              	.LVL170:
 4157              		.loc 20 137 9 view .LVU1148
 4158              	.LBE1200:
 4159              	.LBE1253:
 298:MultiEffect.cpp ****     delr.SetDelay(currentDelay);
 4160              		.loc 18 298 5 is_stmt 1 view .LVU1149
 4161              	.LBB1254:
 4162              	.LBI1246:
  52:../../DaisySP/Source/Utility/delayline.h ****     {
 4163              		.loc 17 52 17 view .LVU1150
 4164              	.LBB1248:
  56:../../DaisySP/Source/Utility/delayline.h ****                                                            : max_size - 1;
 4165              		.loc 17 56 60 is_stmt 0 view .LVU1151
 4166 0040 8B4B     		ldr	r3, .L85+24
  55:../../DaisySP/Source/Utility/delayline.h ****         delay_ = static_cast<size_t>(int_delay) < max_size ? int_delay
 4167              		.loc 17 55 27 view .LVU1152
 4168 0042 8C4D     		ldr	r5, .L85+28
  56:../../DaisySP/Source/Utility/delayline.h ****                                                            : max_size - 1;
 4169              		.loc 17 56 60 view .LVU1153
 4170 0044 16EE90AA 		vmov	r10, s13	@ int
  55:../../DaisySP/Source/Utility/delayline.h ****         delay_ = static_cast<size_t>(int_delay) < max_size ? int_delay
 4171              		.loc 17 55 37 view .LVU1154
 4172 0048 F8EEE66A 		vcvt.f32.s32	s13, s13
 4173              	.LVL171:
  55:../../DaisySP/Source/Utility/delayline.h ****         delay_ = static_cast<size_t>(int_delay) < max_size ? int_delay
 4174              		.loc 17 55 37 view .LVU1155
 4175              	.LBE1248:
 4176              	.LBE1254:
 4177              	.LBB1255:
 4178              	.LBB1220:
  72:../../DaisySP/Source/Utility/delayline.h ****         T b = line_[(write_ptr_ + delay_ + 1) % max_size];
 4179              		.loc 17 72 33 view .LVU1156
 4180 004c 0394     		str	r4, [sp, #12]
 4181              	.LBE1220:
 4182              	.LBE1255:
 4183              	.LBB1256:
 4184              	.LBB1249:
  56:../../DaisySP/Source/Utility/delayline.h ****                                                            : max_size - 1;
 4185              		.loc 17 56 60 view .LVU1157
 4186 004e 9A45     		cmp	r10, r3
 4187              	.LBE1249:
 4188              	.LBE1256:
 4189              	.LBB1257:
 4190              	.LBB1215:
  55:../../DaisySP/Source/Utility/delayline.h ****         delay_ = static_cast<size_t>(int_delay) < max_size ? int_delay
 4191              		.loc 17 55 27 view .LVU1158
 4192 0050 86ED006A 		vstr.32	s12, [r6]
 4193              	.LBE1215:
 4194              	.LBE1257:
 4195              	.LBB1258:
ARM GAS  C:\Users\seanw\AppData\Local\Temp\ccbivcrf.s 			page 115


 4196              	.LBB1250:
  55:../../DaisySP/Source/Utility/delayline.h ****         delay_ = static_cast<size_t>(int_delay) < max_size ? int_delay
 4197              		.loc 17 55 35 view .LVU1159
 4198 0054 77EEE67A 		vsub.f32	s15, s15, s13
 4199              	.LVL172:
  56:../../DaisySP/Source/Utility/delayline.h ****                                                            : max_size - 1;
 4200              		.loc 17 56 60 view .LVU1160
 4201 0058 28BF     		it	cs
 4202 005a 9A46     		movcs	r10, r3
 4203              	.LVL173:
  56:../../DaisySP/Source/Utility/delayline.h ****                                                            : max_size - 1;
 4204              		.loc 17 56 60 view .LVU1161
 4205              	.LBE1250:
 4206              	.LBE1258:
 4207              	.LBB1259:
 4208              	.LBB1216:
  56:../../DaisySP/Source/Utility/delayline.h ****                                                            : max_size - 1;
 4209              		.loc 17 56 16 view .LVU1162
 4210 005c 47F23053 		movw	r3, #30000
 4211              	.LBE1216:
 4212              	.LBE1259:
 4213              	.LBB1260:
 4214              	.LBB1221:
  72:../../DaisySP/Source/Utility/delayline.h ****         T b = line_[(write_ptr_ + delay_ + 1) % max_size];
 4215              		.loc 17 72 33 view .LVU1163
 4216 0060 0AEB0408 		add	r8, r10, r4
 4217              	.LBE1221:
 4218              	.LBE1260:
 4219              	.LBB1261:
 4220              	.LBB1233:
 4221 0064 02EB030C 		add	ip, r2, r3
 4222              	.LBE1233:
 4223              	.LBE1261:
 4224              	.LBB1262:
 4225              	.LBB1217:
  56:../../DaisySP/Source/Utility/delayline.h ****                                                            : max_size - 1;
 4226              		.loc 17 56 16 view .LVU1164
 4227 0068 B360     		str	r3, [r6, #8]
 4228              	.LBE1217:
 4229              	.LBE1262:
 4230              	.LBB1263:
 4231              	.LBB1222:
  72:../../DaisySP/Source/Utility/delayline.h ****         T b = line_[(write_ptr_ + delay_ + 1) % max_size];
 4232              		.loc 17 72 43 view .LVU1165
 4233 006a 834B     		ldr	r3, .L85+32
  73:../../DaisySP/Source/Utility/delayline.h ****         return a + (b - a) * frac_;
 4234              		.loc 17 73 42 view .LVU1166
 4235 006c 08F10109 		add	r9, r8, #1
  72:../../DaisySP/Source/Utility/delayline.h ****         T b = line_[(write_ptr_ + delay_ + 1) % max_size];
 4236              		.loc 17 72 43 view .LVU1167
 4237 0070 824A     		ldr	r2, .L85+36
 4238 0072 A3FB081B 		umull	r1, fp, r3, r8
 4239              	.LVL174:
  72:../../DaisySP/Source/Utility/delayline.h ****         T b = line_[(write_ptr_ + delay_ + 1) % max_size];
 4240              		.loc 17 72 43 view .LVU1168
 4241              	.LBE1222:
 4242              	.LBE1263:
ARM GAS  C:\Users\seanw\AppData\Local\Temp\ccbivcrf.s 			page 116


 4243              	.LBB1264:
 4244              	.LBB1251:
  55:../../DaisySP/Source/Utility/delayline.h ****         delay_ = static_cast<size_t>(int_delay) < max_size ? int_delay
 4245              		.loc 17 55 27 view .LVU1169
 4246 0076 C5ED007A 		vstr.32	s15, [r5]
 4247              	.LBE1251:
 4248              	.LBE1264:
 4249              	.LBB1265:
 4250              	.LBB1223:
  72:../../DaisySP/Source/Utility/delayline.h ****         T b = line_[(write_ptr_ + delay_ + 1) % max_size];
 4251              		.loc 17 72 43 view .LVU1170
 4252 007a 4FEADB3B 		lsr	fp, fp, #15
 4253              	.LBE1223:
 4254              	.LBE1265:
 4255              	.LBB1266:
 4256              	.LBB1211:
  55:../../DaisySP/Source/Utility/delayline.h ****         delay_ = static_cast<size_t>(int_delay) < max_size ? int_delay
 4257              		.loc 17 55 27 view .LVU1171
 4258 007e C7ED007A 		vstr.32	s15, [r7]
 4259              	.LBE1211:
 4260              	.LBE1266:
 4261              	.LBB1267:
 4262              	.LBB1252:
  56:../../DaisySP/Source/Utility/delayline.h ****                                                            : max_size - 1;
 4263              		.loc 17 56 16 view .LVU1172
 4264 0082 C5F808A0 		str	r10, [r5, #8]
 4265              	.LVL175:
  56:../../DaisySP/Source/Utility/delayline.h ****                                                            : max_size - 1;
 4266              		.loc 17 56 16 view .LVU1173
 4267              	.LBE1252:
 4268              	.LBE1267:
 299:MultiEffect.cpp ****     delr2.SetDelay(20000.0f);
 4269              		.loc 18 299 5 is_stmt 1 view .LVU1174
 4270              	.LBB1268:
 4271              	.LBI1209:
  52:../../DaisySP/Source/Utility/delayline.h ****     {
 4272              		.loc 17 52 17 view .LVU1175
  52:../../DaisySP/Source/Utility/delayline.h ****     {
 4273              		.loc 17 52 17 is_stmt 0 view .LVU1176
 4274              	.LBE1268:
 4275              	.LBB1269:
 4276              	.LBB1224:
  72:../../DaisySP/Source/Utility/delayline.h ****         T b = line_[(write_ptr_ + delay_ + 1) % max_size];
 4277              		.loc 17 72 43 view .LVU1177
 4278 0086 02FB1B88 		mls	r8, r2, fp, r8
 4279              	.LBE1224:
 4280              	.LBE1269:
 4281              	.LBB1270:
 4282              	.LBB1271:
  73:../../DaisySP/Source/Utility/delayline.h ****         return a + (b - a) * frac_;
 4283              		.loc 17 73 42 view .LVU1178
 4284 008a 44F6216B 		movw	fp, #20001
 4285              	.LBE1271:
 4286              	.LBE1270:
 4287              	.LBB1279:
 4288              	.LBB1212:
  56:../../DaisySP/Source/Utility/delayline.h ****                                                            : max_size - 1;
ARM GAS  C:\Users\seanw\AppData\Local\Temp\ccbivcrf.s 			page 117


 4289              		.loc 17 56 16 view .LVU1179
 4290 008e C7F808A0 		str	r10, [r7, #8]
 4291              	.LVL176:
  56:../../DaisySP/Source/Utility/delayline.h ****                                                            : max_size - 1;
 4292              		.loc 17 56 16 view .LVU1180
 4293              	.LBE1212:
 4294              	.LBE1279:
 300:MultiEffect.cpp ****     dell2.SetDelay(30000.0f);
 4295              		.loc 18 300 5 is_stmt 1 view .LVU1181
 4296              	.LBB1280:
 4297              	.LBI1202:
  52:../../DaisySP/Source/Utility/delayline.h ****     {
 4298              		.loc 17 52 17 view .LVU1182
  52:../../DaisySP/Source/Utility/delayline.h ****     {
 4299              		.loc 17 52 17 is_stmt 0 view .LVU1183
 4300              	.LBE1280:
 4301              	.LBB1281:
 4302              	.LBB1225:
  72:../../DaisySP/Source/Utility/delayline.h ****         T b = line_[(write_ptr_ + delay_ + 1) % max_size];
 4303              		.loc 17 72 11 view .LVU1184
 4304 0092 07EB8808 		add	r8, r7, r8, lsl #2
 4305 0096 D8ED036A 		vldr.32	s13, [r8, #12]
  73:../../DaisySP/Source/Utility/delayline.h ****         return a + (b - a) * frac_;
 4306              		.loc 17 73 47 view .LVU1185
 4307 009a A3FB0918 		umull	r1, r8, r3, r9
 4308 009e 4FEAD838 		lsr	r8, r8, #15
 4309 00a2 02FB1899 		mls	r9, r2, r8, r9
 4310              	.LBE1225:
 4311              	.LBE1281:
 4312              	.LBB1282:
 4313              	.LBB1234:
  72:../../DaisySP/Source/Utility/delayline.h ****         T b = line_[(write_ptr_ + delay_ + 1) % max_size];
 4314              		.loc 17 72 43 view .LVU1186
 4315 00a6 A3FB0C18 		umull	r1, r8, r3, ip
 4316              	.LBE1234:
 4317              	.LBE1282:
 4318              	.LBB1283:
 4319              	.LBB1226:
  73:../../DaisySP/Source/Utility/delayline.h ****         return a + (b - a) * frac_;
 4320              		.loc 17 73 11 view .LVU1187
 4321 00aa 07EB8909 		add	r9, r7, r9, lsl #2
 4322              	.LBE1226:
 4323              	.LBE1283:
 4324              	.LBB1284:
 4325              	.LBB1235:
  72:../../DaisySP/Source/Utility/delayline.h ****         T b = line_[(write_ptr_ + delay_ + 1) % max_size];
 4326              		.loc 17 72 43 view .LVU1188
 4327 00ae 4FEAD838 		lsr	r8, r8, #15
 4328              	.LBE1235:
 4329              	.LBE1284:
 4330              	.LBB1285:
 4331              	.LBB1227:
 4332              		.loc 17 74 23 view .LVU1189
 4333 00b2 D9ED035A 		vldr.32	s11, [r9, #12]
 4334              	.LBE1227:
 4335              	.LBE1285:
 4336              	.LBB1286:
ARM GAS  C:\Users\seanw\AppData\Local\Temp\ccbivcrf.s 			page 118


 4337              	.LBB1236:
  72:../../DaisySP/Source/Utility/delayline.h ****         T b = line_[(write_ptr_ + delay_ + 1) % max_size];
 4338              		.loc 17 72 43 view .LVU1190
 4339 00b6 02FB18CC 		mls	ip, r2, r8, ip
 4340              	.LBE1236:
 4341              	.LBE1286:
 4342              	.LBB1287:
 4343              	.LBB1204:
  55:../../DaisySP/Source/Utility/delayline.h ****         delay_ = static_cast<size_t>(int_delay) < max_size ? int_delay
 4344              		.loc 17 55 27 view .LVU1191
 4345 00ba DFF8C491 		ldr	r9, .L85+40
 4346              	.LBE1204:
 4347              	.LBE1287:
 4348              	.LBB1288:
 4349              	.LBB1228:
 4350              		.loc 17 74 23 view .LVU1192
 4351 00be 75EEE65A 		vsub.f32	s11, s11, s13
 4352              	.LBE1228:
 4353              	.LBE1288:
 4354              	.LBB1289:
 4355              	.LBB1237:
  72:../../DaisySP/Source/Utility/delayline.h ****         T b = line_[(write_ptr_ + delay_ + 1) % max_size];
 4356              		.loc 17 72 11 view .LVU1193
 4357 00c2 06EB8C0C 		add	ip, r6, ip, lsl #2
 4358              	.LBE1237:
 4359              	.LBE1289:
 4360              	.LBB1290:
 4361              	.LBB1205:
  55:../../DaisySP/Source/Utility/delayline.h ****         delay_ = static_cast<size_t>(int_delay) < max_size ? int_delay
 4362              		.loc 17 55 27 view .LVU1194
 4363 00c6 89ED006A 		vstr.32	s12, [r9]
 4364              	.LBE1205:
 4365              	.LBE1290:
 4366              	.LBB1291:
 4367              	.LBB1229:
 4368              		.loc 17 74 30 view .LVU1195
 4369 00ca E7EEA56A 		vfma.f32	s13, s15, s11
 4370              	.LBE1229:
 4371              	.LBE1291:
 4372              	.LBB1292:
 4373              	.LBB1238:
  72:../../DaisySP/Source/Utility/delayline.h ****         T b = line_[(write_ptr_ + delay_ + 1) % max_size];
 4374              		.loc 17 72 11 view .LVU1196
 4375 00ce DCED037A 		vldr.32	s15, [ip, #12]
  73:../../DaisySP/Source/Utility/delayline.h ****         return a + (b - a) * frac_;
 4376              		.loc 17 73 47 view .LVU1197
 4377 00d2 A3FB0E1C 		umull	r1, ip, r3, lr
 4378              	.LBE1238:
 4379              	.LBE1292:
 4380              	.LBB1293:
 4381              	.LBB1294:
  72:../../DaisySP/Source/Utility/delayline.h ****         T b = line_[(write_ptr_ + delay_ + 1) % max_size];
 4382              		.loc 17 72 22 view .LVU1198
 4383 00d6 6968     		ldr	r1, [r5, #4]
 4384              	.LBE1294:
 4385              	.LBE1293:
 4386              	.LBB1306:
ARM GAS  C:\Users\seanw\AppData\Local\Temp\ccbivcrf.s 			page 119


 4387              	.LBB1239:
  73:../../DaisySP/Source/Utility/delayline.h ****         return a + (b - a) * frac_;
 4388              		.loc 17 73 47 view .LVU1199
 4389 00d8 4FEADC3C 		lsr	ip, ip, #15
 4390              	.LBE1239:
 4391              	.LBE1306:
 4392              	.LBB1307:
 4393              	.LBB1295:
  72:../../DaisySP/Source/Utility/delayline.h ****         T b = line_[(write_ptr_ + delay_ + 1) % max_size];
 4394              		.loc 17 72 33 view .LVU1200
 4395 00dc 8A44     		add	r10, r10, r1
 4396 00de 0191     		str	r1, [sp, #4]
 4397              	.LBE1295:
 4398              	.LBE1307:
 4399              	.LBB1308:
 4400              	.LBB1240:
  73:../../DaisySP/Source/Utility/delayline.h ****         return a + (b - a) * frac_;
 4401              		.loc 17 73 47 view .LVU1201
 4402 00e0 02FB1CEE 		mls	lr, r2, ip, lr
 4403              	.LBE1240:
 4404              	.LBE1308:
 4405              	.LBB1309:
 4406              	.LBB1296:
  73:../../DaisySP/Source/Utility/delayline.h ****         return a + (b - a) * frac_;
 4407              		.loc 17 73 42 view .LVU1202
 4408 00e4 0AF10108 		add	r8, r10, #1
  72:../../DaisySP/Source/Utility/delayline.h ****         T b = line_[(write_ptr_ + delay_ + 1) % max_size];
 4409              		.loc 17 72 43 view .LVU1203
 4410 00e8 A3FB0A41 		umull	r4, r1, r3, r10
 4411              	.LBE1296:
 4412              	.LBE1309:
 4413              	.LBB1310:
 4414              	.LBB1206:
  56:../../DaisySP/Source/Utility/delayline.h ****                                                            : max_size - 1;
 4415              		.loc 17 56 16 view .LVU1204
 4416 00ec 44F6206C 		movw	ip, #20000
 4417              	.LBE1206:
 4418              	.LBE1310:
 4419              	.LBB1311:
 4420              	.LBB1241:
  73:../../DaisySP/Source/Utility/delayline.h ****         return a + (b - a) * frac_;
 4421              		.loc 17 73 11 view .LVU1205
 4422 00f0 06EB8E0E 		add	lr, r6, lr, lsl #2
 4423              	.LBE1241:
 4424              	.LBE1311:
 4425              	.LBB1312:
 4426              	.LBB1297:
  72:../../DaisySP/Source/Utility/delayline.h ****         T b = line_[(write_ptr_ + delay_ + 1) % max_size];
 4427              		.loc 17 72 43 view .LVU1206
 4428 00f4 C90B     		lsrs	r1, r1, #15
 4429              	.LBE1297:
 4430              	.LBE1312:
 4431              	.LBB1313:
 4432              	.LBB1207:
  56:../../DaisySP/Source/Utility/delayline.h ****                                                            : max_size - 1;
 4433              		.loc 17 56 16 view .LVU1207
 4434 00f6 C9F808C0 		str	ip, [r9, #8]
ARM GAS  C:\Users\seanw\AppData\Local\Temp\ccbivcrf.s 			page 120


 4435              	.LBE1207:
 4436              	.LBE1313:
 4437              	.LBB1314:
 4438              	.LBB1242:
 4439              		.loc 17 74 23 view .LVU1208
 4440 00fa DEED035A 		vldr.32	s11, [lr, #12]
 4441              	.LBE1242:
 4442              	.LBE1314:
 4443              	.LBB1315:
 4444              	.LBB1298:
  72:../../DaisySP/Source/Utility/delayline.h ****         T b = line_[(write_ptr_ + delay_ + 1) % max_size];
 4445              		.loc 17 72 43 view .LVU1209
 4446 00fe 02FB11AA 		mls	r10, r2, r1, r10
 4447              	.LBE1298:
 4448              	.LBE1315:
 4449              	.LBB1316:
 4450              	.LBB1272:
  72:../../DaisySP/Source/Utility/delayline.h ****         T b = line_[(write_ptr_ + delay_ + 1) % max_size];
 4451              		.loc 17 72 22 view .LVU1210
 4452 0102 D9F804E0 		ldr	lr, [r9, #4]
 4453              	.LBE1272:
 4454              	.LBE1316:
 4455              	.LBB1317:
 4456              	.LBB1243:
 4457              		.loc 17 74 23 view .LVU1211
 4458 0106 75EEE75A 		vsub.f32	s11, s11, s15
 4459              	.LVL177:
 4460              		.loc 17 74 23 view .LVU1212
 4461              	.LBE1243:
 4462              	.LBE1317:
 301:MultiEffect.cpp ****     outl = dell.Read() + dell2.Read();
 4463              		.loc 18 301 5 is_stmt 1 view .LVU1213
 4464              	.LBB1318:
 4465              	.LBI1213:
  52:../../DaisySP/Source/Utility/delayline.h ****     {
 4466              		.loc 17 52 17 view .LVU1214
  52:../../DaisySP/Source/Utility/delayline.h ****     {
 4467              		.loc 17 52 17 is_stmt 0 view .LVU1215
 4468              	.LBE1318:
 302:MultiEffect.cpp ****     outr = delr.Read() + delr2.Read();
 4469              		.loc 18 302 5 is_stmt 1 view .LVU1216
 4470              	.LBB1319:
 4471              	.LBI1218:
  70:../../DaisySP/Source/Utility/delayline.h ****     {
 4472              		.loc 17 70 20 view .LVU1217
  70:../../DaisySP/Source/Utility/delayline.h ****     {
 4473              		.loc 17 70 20 is_stmt 0 view .LVU1218
 4474              	.LBE1319:
 4475              	.LBB1320:
 4476              	.LBI1230:
  70:../../DaisySP/Source/Utility/delayline.h ****     {
 4477              		.loc 17 70 20 is_stmt 1 view .LVU1219
  70:../../DaisySP/Source/Utility/delayline.h ****     {
 4478              		.loc 17 70 20 is_stmt 0 view .LVU1220
 4479              	.LBE1320:
 303:MultiEffect.cpp **** 
 4480              		.loc 18 303 10 view .LVU1221
ARM GAS  C:\Users\seanw\AppData\Local\Temp\ccbivcrf.s 			page 121


 4481 010a 0099     		ldr	r1, [sp]
 4482              	.LBB1321:
 4483              	.LBB1299:
  72:../../DaisySP/Source/Utility/delayline.h ****         T b = line_[(write_ptr_ + delay_ + 1) % max_size];
 4484              		.loc 17 72 11 view .LVU1222
 4485 010c 05EB8A0A 		add	r10, r5, r10, lsl #2
 4486              	.LBE1299:
 4487              	.LBE1321:
 4488              	.LBB1322:
 4489              	.LBB1273:
  72:../../DaisySP/Source/Utility/delayline.h ****         T b = line_[(write_ptr_ + delay_ + 1) % max_size];
 4490              		.loc 17 72 33 view .LVU1223
 4491 0110 F444     		add	ip, ip, lr
  73:../../DaisySP/Source/Utility/delayline.h ****         return a + (b - a) * frac_;
 4492              		.loc 17 73 42 view .LVU1224
 4493 0112 F344     		add	fp, fp, lr
 4494              	.LBE1273:
 4495              	.LBE1322:
 4496              	.LBB1323:
 4497              	.LBB1244:
 4498              		.loc 17 74 30 view .LVU1225
 4499 0114 E5EE867A 		vfma.f32	s15, s11, s12
 4500              	.LBE1244:
 4501              	.LBE1323:
 302:MultiEffect.cpp ****     outr = delr.Read() + delr2.Read();
 4502              		.loc 18 302 24 view .LVU1226
 4503 0118 77EEA67A 		vadd.f32	s15, s15, s13
 302:MultiEffect.cpp ****     outr = delr.Read() + delr2.Read();
 4504              		.loc 18 302 10 view .LVU1227
 4505 011c C0ED007A 		vstr.32	s15, [r0]
 303:MultiEffect.cpp **** 
 4506              		.loc 18 303 5 is_stmt 1 view .LVU1228
 4507              	.LVL178:
 4508              	.LBB1324:
 4509              	.LBI1293:
  70:../../DaisySP/Source/Utility/delayline.h ****     {
 4510              		.loc 17 70 20 view .LVU1229
 4511              	.LBB1300:
  72:../../DaisySP/Source/Utility/delayline.h ****         T b = line_[(write_ptr_ + delay_ + 1) % max_size];
 4512              		.loc 17 72 11 is_stmt 0 view .LVU1230
 4513 0120 DAED037A 		vldr.32	s15, [r10, #12]
 4514              	.LVL179:
  73:../../DaisySP/Source/Utility/delayline.h ****         return a + (b - a) * frac_;
 4515              		.loc 17 73 47 view .LVU1231
 4516 0124 A3FB084A 		umull	r4, r10, r3, r8
 4517              		.loc 17 74 30 view .LVU1232
 4518 0128 95ED005A 		vldr.32	s10, [r5]
  73:../../DaisySP/Source/Utility/delayline.h ****         return a + (b - a) * frac_;
 4519              		.loc 17 73 47 view .LVU1233
 4520 012c 4FEADA3A 		lsr	r10, r10, #15
 4521              	.LBE1300:
 4522              	.LBE1324:
 4523              	.LBB1325:
 4524              	.LBB1274:
 4525              		.loc 17 74 30 view .LVU1234
 4526 0130 D9ED005A 		vldr.32	s11, [r9]
 4527              	.LBE1274:
ARM GAS  C:\Users\seanw\AppData\Local\Temp\ccbivcrf.s 			page 122


 4528              	.LBE1325:
 4529              	.LBB1326:
 4530              	.LBB1301:
  73:../../DaisySP/Source/Utility/delayline.h ****         return a + (b - a) * frac_;
 4531              		.loc 17 73 47 view .LVU1235
 4532 0134 02FB1A88 		mls	r8, r2, r10, r8
 4533              	.LBE1301:
 4534              	.LBE1326:
 305:MultiEffect.cpp ****     dell2.Write((feedback * outl) + inl);
 4535              		.loc 18 305 26 view .LVU1236
 4536 0138 DFF848A1 		ldr	r10, .L85+44
 4537              	.LBB1327:
 4538              	.LBB1302:
  73:../../DaisySP/Source/Utility/delayline.h ****         return a + (b - a) * frac_;
 4539              		.loc 17 73 11 view .LVU1237
 4540 013c 05EB8808 		add	r8, r5, r8, lsl #2
 4541              		.loc 17 74 23 view .LVU1238
 4542 0140 98ED036A 		vldr.32	s12, [r8, #12]
 4543              	.LBE1302:
 4544              	.LBE1327:
 4545              	.LBB1328:
 4546              	.LBB1275:
  72:../../DaisySP/Source/Utility/delayline.h ****         T b = line_[(write_ptr_ + delay_ + 1) % max_size];
 4547              		.loc 17 72 43 view .LVU1239
 4548 0144 A3FB0C48 		umull	r4, r8, r3, ip
 4549              	.LBE1275:
 4550              	.LBE1328:
 4551              	.LBB1329:
 4552              	.LBB1303:
 4553              		.loc 17 74 23 view .LVU1240
 4554 0148 36EE676A 		vsub.f32	s12, s12, s15
 4555              	.LBE1303:
 4556              	.LBE1329:
 4557              	.LBB1330:
 4558              	.LBB1276:
  72:../../DaisySP/Source/Utility/delayline.h ****         T b = line_[(write_ptr_ + delay_ + 1) % max_size];
 4559              		.loc 17 72 43 view .LVU1241
 4560 014c 4FEAD838 		lsr	r8, r8, #15
 4561 0150 02FB18CC 		mls	ip, r2, r8, ip
 4562              	.LBE1276:
 4563              	.LBE1330:
 4564              	.LBB1331:
 4565              	.LBB1304:
 4566              		.loc 17 74 30 view .LVU1242
 4567 0154 E6EE057A 		vfma.f32	s15, s12, s10
 4568              	.LVL180:
 4569              		.loc 17 74 30 view .LVU1243
 4570              	.LBE1304:
 4571              	.LBE1331:
 4572              	.LBB1332:
 4573              	.LBB1277:
  72:../../DaisySP/Source/Utility/delayline.h ****         T b = line_[(write_ptr_ + delay_ + 1) % max_size];
 4574              		.loc 17 72 11 view .LVU1244
 4575 0158 09EB8C0C 		add	ip, r9, ip, lsl #2
 4576              	.LBE1277:
 4577              	.LBE1332:
 4578              	.LBB1333:
ARM GAS  C:\Users\seanw\AppData\Local\Temp\ccbivcrf.s 			page 123


 4579              	.LBB1305:
 4580              		.loc 17 74 30 view .LVU1245
 4581 015c F0EE676A 		vmov.f32	s13, s15
 4582              	.LVL181:
 4583              		.loc 17 74 30 view .LVU1246
 4584              	.LBE1305:
 4585              	.LBE1333:
 4586              	.LBB1334:
 4587              	.LBI1270:
  70:../../DaisySP/Source/Utility/delayline.h ****     {
 4588              		.loc 17 70 20 is_stmt 1 view .LVU1247
 4589              	.LBB1278:
  72:../../DaisySP/Source/Utility/delayline.h ****         T b = line_[(write_ptr_ + delay_ + 1) % max_size];
 4590              		.loc 17 72 11 is_stmt 0 view .LVU1248
 4591 0160 DCED037A 		vldr.32	s15, [ip, #12]
 4592              	.LVL182:
  73:../../DaisySP/Source/Utility/delayline.h ****         return a + (b - a) * frac_;
 4593              		.loc 17 73 47 view .LVU1249
 4594 0164 A3FB0B4C 		umull	r4, ip, r3, fp
 4595 0168 4FEADC3C 		lsr	ip, ip, #15
 4596 016c 02FB1CBC 		mls	ip, r2, ip, fp
  73:../../DaisySP/Source/Utility/delayline.h ****         return a + (b - a) * frac_;
 4597              		.loc 17 73 11 view .LVU1250
 4598 0170 09EB8C0C 		add	ip, r9, ip, lsl #2
 4599              		.loc 17 74 23 view .LVU1251
 4600 0174 9CED036A 		vldr.32	s12, [ip, #12]
 4601 0178 36EE676A 		vsub.f32	s12, s12, s15
 4602              		.loc 17 74 30 view .LVU1252
 4603 017c E6EE257A 		vfma.f32	s15, s12, s11
 4604              	.LVL183:
 4605              		.loc 17 74 30 view .LVU1253
 4606              	.LBE1278:
 4607              	.LBE1334:
 305:MultiEffect.cpp ****     dell2.Write((feedback * outl) + inl);
 4608              		.loc 18 305 15 view .LVU1254
 4609 0180 B0EE406A 		vmov.f32	s12, s0
 303:MultiEffect.cpp **** 
 4610              		.loc 18 303 24 view .LVU1255
 4611 0184 77EEA67A 		vadd.f32	s15, s15, s13
 303:MultiEffect.cpp **** 
 4612              		.loc 18 303 10 view .LVU1256
 4613 0188 C1ED007A 		vstr.32	s15, [r1]
 305:MultiEffect.cpp ****     dell2.Write((feedback * outl) + inl);
 4614              		.loc 18 305 5 is_stmt 1 view .LVU1257
 305:MultiEffect.cpp ****     dell2.Write((feedback * outl) + inl);
 4615              		.loc 18 305 15 is_stmt 0 view .LVU1258
 4616 018c D0ED007A 		vldr.32	s15, [r0]
 305:MultiEffect.cpp ****     dell2.Write((feedback * outl) + inl);
 4617              		.loc 18 305 26 view .LVU1259
 4618 0190 DAED006A 		vldr.32	s13, [r10]
 4619              	.LBB1335:
 4620              	.LBB1336:
  64:../../DaisySP/Source/Utility/delayline.h ****         write_ptr_        = (write_ptr_ - 1 + max_size) % max_size;
 4621              		.loc 17 64 27 view .LVU1260
 4622 0194 039C     		ldr	r4, [sp, #12]
 4623              	.LBE1336:
 4624              	.LBE1335:
ARM GAS  C:\Users\seanw\AppData\Local\Temp\ccbivcrf.s 			page 124


 305:MultiEffect.cpp ****     dell2.Write((feedback * outl) + inl);
 4625              		.loc 18 305 15 view .LVU1261
 4626 0196 A7EEA66A 		vfma.f32	s12, s15, s13
 4627              	.LVL184:
 4628              	.LBB1341:
 4629              	.LBI1335:
  62:../../DaisySP/Source/Utility/delayline.h ****     {
 4630              		.loc 17 62 17 is_stmt 1 view .LVU1262
 4631              	.LBE1341:
 4632              	.LBB1342:
 4633              	.LBB1343:
  64:../../DaisySP/Source/Utility/delayline.h ****         write_ptr_        = (write_ptr_ - 1 + max_size) % max_size;
 4634              		.loc 17 64 27 is_stmt 0 view .LVU1263
 4635 019a 0299     		ldr	r1, [sp, #8]
 4636              	.LBE1343:
 4637              	.LBE1342:
 4638              	.LBB1349:
 4639              	.LBB1337:
 4640 019c 07EB840C 		add	ip, r7, r4, lsl #2
 4641              	.LBE1337:
 4642              	.LBE1349:
 4643              		.loc 18 307 39 view .LVU1264
 4644 01a0 77EE667A 		vsub.f32	s15, s14, s13
 4645              		.loc 18 307 51 view .LVU1265
 4646 01a4 67EE807A 		vmul.f32	s15, s15, s0
 4647              	.LBB1350:
 4648              	.LBB1338:
  64:../../DaisySP/Source/Utility/delayline.h ****         write_ptr_        = (write_ptr_ - 1 + max_size) % max_size;
 4649              		.loc 17 64 27 view .LVU1266
 4650 01a8 8CED036A 		vstr.32	s12, [ip, #12]
  65:../../DaisySP/Source/Utility/delayline.h ****     }
 4651              		.loc 17 65 45 view .LVU1267
 4652 01ac DFF8C0C0 		ldr	ip, .L85+24
 4653              	.LBE1338:
 4654              	.LBE1350:
 306:MultiEffect.cpp ****     outl = (feedback * outl) + ((1.0f - feedback) * inl);
 4655              		.loc 18 306 16 view .LVU1268
 4656 01b0 90ED006A 		vldr.32	s12, [r0]
 4657              	.LVL185:
 4658              	.LBB1351:
 4659              	.LBB1339:
  65:../../DaisySP/Source/Utility/delayline.h ****     }
 4660              		.loc 17 65 45 view .LVU1269
 4661 01b4 A444     		add	ip, r4, ip
 4662              	.LBE1339:
 4663              	.LBE1351:
 306:MultiEffect.cpp ****     outl = (feedback * outl) + ((1.0f - feedback) * inl);
 4664              		.loc 18 306 16 view .LVU1270
 4665 01b6 A6EE860A 		vfma.f32	s0, s13, s12
 4666              	.LVL186:
 4667              	.LBB1352:
 4668              	.LBB1340:
  65:../../DaisySP/Source/Utility/delayline.h ****     }
 4669              		.loc 17 65 57 view .LVU1271
 4670 01ba A3FB0C48 		umull	r4, r8, r3, ip
 4671              	.LVL187:
  65:../../DaisySP/Source/Utility/delayline.h ****     }
ARM GAS  C:\Users\seanw\AppData\Local\Temp\ccbivcrf.s 			page 125


 4672              		.loc 17 65 57 view .LVU1272
 4673 01be 4FEAD838 		lsr	r8, r8, #15
 4674 01c2 02FB18CC 		mls	ip, r2, r8, ip
  65:../../DaisySP/Source/Utility/delayline.h ****     }
 4675              		.loc 17 65 27 view .LVU1273
 4676 01c6 C7F804C0 		str	ip, [r7, #4]
 4677              	.LVL188:
  65:../../DaisySP/Source/Utility/delayline.h ****     }
 4678              		.loc 17 65 27 view .LVU1274
 4679              	.LBE1340:
 4680              	.LBE1352:
 306:MultiEffect.cpp ****     outl = (feedback * outl) + ((1.0f - feedback) * inl);
 4681              		.loc 18 306 5 is_stmt 1 view .LVU1275
 4682              	.LBB1353:
 4683              	.LBI1342:
  62:../../DaisySP/Source/Utility/delayline.h ****     {
 4684              		.loc 17 62 17 view .LVU1276
 4685              	.LBB1344:
  64:../../DaisySP/Source/Utility/delayline.h ****         write_ptr_        = (write_ptr_ - 1 + max_size) % max_size;
 4686              		.loc 17 64 27 is_stmt 0 view .LVU1277
 4687 01ca 06EB8107 		add	r7, r6, r1, lsl #2
 4688 01ce 87ED030A 		vstr.32	s0, [r7, #12]
  65:../../DaisySP/Source/Utility/delayline.h ****     }
 4689              		.loc 17 65 45 view .LVU1278
 4690 01d2 274F     		ldr	r7, .L85+24
 4691              	.LBE1344:
 4692              	.LBE1353:
 4693              		.loc 18 307 30 view .LVU1279
 4694 01d4 90ED006A 		vldr.32	s12, [r0]
 4695              	.LBB1354:
 4696              	.LBB1345:
  65:../../DaisySP/Source/Utility/delayline.h ****     }
 4697              		.loc 17 65 45 view .LVU1280
 4698 01d8 CF19     		adds	r7, r1, r7
 4699              	.LBE1345:
 4700              	.LBE1354:
 4701              	.LBB1355:
 4702              	.LBB1356:
  64:../../DaisySP/Source/Utility/delayline.h ****         write_ptr_        = (write_ptr_ - 1 + max_size) % max_size;
 4703              		.loc 17 64 27 view .LVU1281
 4704 01da 0199     		ldr	r1, [sp, #4]
 4705              	.LBE1356:
 4706              	.LBE1355:
 4707              		.loc 18 307 30 view .LVU1282
 4708 01dc E6EE867A 		vfma.f32	s15, s13, s12
 4709              	.LBB1364:
 4710              	.LBB1346:
  65:../../DaisySP/Source/Utility/delayline.h ****     }
 4711              		.loc 17 65 57 view .LVU1283
 4712 01e0 A3FB074C 		umull	r4, ip, r3, r7
 4713              	.LBE1346:
 4714              	.LBE1364:
 308:MultiEffect.cpp **** 
 309:MultiEffect.cpp ****     delr.Write((feedback * outr) + inr);
 4715              		.loc 18 309 15 view .LVU1284
 4716 01e4 F0EE606A 		vmov.f32	s13, s1
 4717              	.LBB1365:
ARM GAS  C:\Users\seanw\AppData\Local\Temp\ccbivcrf.s 			page 126


 4718              	.LBB1366:
  65:../../DaisySP/Source/Utility/delayline.h ****     }
 4719              		.loc 17 65 45 view .LVU1285
 4720 01e8 214C     		ldr	r4, .L85+24
 4721              	.LBE1366:
 4722              	.LBE1365:
 4723              	.LBB1372:
 4724              	.LBB1347:
  65:../../DaisySP/Source/Utility/delayline.h ****     }
 4725              		.loc 17 65 57 view .LVU1286
 4726 01ea 4FEADC3C 		lsr	ip, ip, #15
 4727              	.LBE1347:
 4728              	.LBE1372:
 4729              	.LBB1373:
 4730              	.LBB1367:
  65:../../DaisySP/Source/Utility/delayline.h ****     }
 4731              		.loc 17 65 45 view .LVU1287
 4732 01ee 7444     		add	r4, lr, r4
  64:../../DaisySP/Source/Utility/delayline.h ****         write_ptr_        = (write_ptr_ - 1 + max_size) % max_size;
 4733              		.loc 17 64 27 view .LVU1288
 4734 01f0 09EB8E0E 		add	lr, r9, lr, lsl #2
 4735              	.LBE1367:
 4736              	.LBE1373:
 4737              	.LBB1374:
 4738              	.LBB1348:
  65:../../DaisySP/Source/Utility/delayline.h ****     }
 4739              		.loc 17 65 57 view .LVU1289
 4740 01f4 02FB1C77 		mls	r7, r2, ip, r7
  65:../../DaisySP/Source/Utility/delayline.h ****     }
 4741              		.loc 17 65 27 view .LVU1290
 4742 01f8 7760     		str	r7, [r6, #4]
 4743              	.LVL189:
  65:../../DaisySP/Source/Utility/delayline.h ****     }
 4744              		.loc 17 65 27 view .LVU1291
 4745              	.LBE1348:
 4746              	.LBE1374:
 307:MultiEffect.cpp **** 
 4747              		.loc 18 307 5 is_stmt 1 view .LVU1292
 4748              		.loc 18 309 15 is_stmt 0 view .LVU1293
 4749 01fa 009F     		ldr	r7, [sp]
 307:MultiEffect.cpp **** 
 4750              		.loc 18 307 10 view .LVU1294
 4751 01fc C0ED007A 		vstr.32	s15, [r0]
 4752              		.loc 18 309 5 is_stmt 1 view .LVU1295
 4753              	.LBB1375:
 4754              	.LBB1357:
  64:../../DaisySP/Source/Utility/delayline.h ****         write_ptr_        = (write_ptr_ - 1 + max_size) % max_size;
 4755              		.loc 17 64 27 is_stmt 0 view .LVU1296
 4756 0200 05EB8100 		add	r0, r5, r1, lsl #2
 4757              	.LVL190:
  64:../../DaisySP/Source/Utility/delayline.h ****         write_ptr_        = (write_ptr_ - 1 + max_size) % max_size;
 4758              		.loc 17 64 27 view .LVU1297
 4759              	.LBE1357:
 4760              	.LBE1375:
 4761              		.loc 18 309 15 view .LVU1298
 4762 0204 97ED006A 		vldr.32	s12, [r7]
 4763              		.loc 18 309 26 view .LVU1299
ARM GAS  C:\Users\seanw\AppData\Local\Temp\ccbivcrf.s 			page 127


 4764 0208 DAED007A 		vldr.32	s15, [r10]
 4765              		.loc 18 309 15 view .LVU1300
 4766 020c E6EE276A 		vfma.f32	s13, s12, s15
 4767              	.LVL191:
 4768              	.LBB1376:
 4769              	.LBI1355:
  62:../../DaisySP/Source/Utility/delayline.h ****     {
 4770              		.loc 17 62 17 is_stmt 1 view .LVU1301
 4771              	.LBE1376:
 310:MultiEffect.cpp ****     delr2.Write((feedback * outr) + inr);
 311:MultiEffect.cpp ****     outr = (feedback * outr) + ((1.0f - feedback) * inr);
 4772              		.loc 18 311 39 is_stmt 0 view .LVU1302
 4773 0210 37EE677A 		vsub.f32	s14, s14, s15
 4774              		.loc 18 311 51 view .LVU1303
 4775 0214 27EE207A 		vmul.f32	s14, s14, s1
 4776              	.LBB1377:
 4777              	.LBB1358:
  64:../../DaisySP/Source/Utility/delayline.h ****         write_ptr_        = (write_ptr_ - 1 + max_size) % max_size;
 4778              		.loc 17 64 27 view .LVU1304
 4779 0218 C0ED036A 		vstr.32	s13, [r0, #12]
 4780              	.LBE1358:
 4781              	.LBE1377:
 310:MultiEffect.cpp ****     delr2.Write((feedback * outr) + inr);
 4782              		.loc 18 310 16 view .LVU1305
 4783 021c D7ED006A 		vldr.32	s13, [r7]
 4784              	.LVL192:
 4785              	.LBB1378:
 4786              	.LBB1359:
  65:../../DaisySP/Source/Utility/delayline.h ****     }
 4787              		.loc 17 65 45 view .LVU1306
 4788 0220 1348     		ldr	r0, .L85+24
 4789              	.LVL193:
  65:../../DaisySP/Source/Utility/delayline.h ****     }
 4790              		.loc 17 65 45 view .LVU1307
 4791              	.LBE1359:
 4792              	.LBE1378:
 310:MultiEffect.cpp ****     delr2.Write((feedback * outr) + inr);
 4793              		.loc 18 310 16 view .LVU1308
 4794 0222 E7EEA60A 		vfma.f32	s1, s15, s13
 4795              	.LVL194:
 4796              	.LBB1379:
 4797              	.LBB1360:
  65:../../DaisySP/Source/Utility/delayline.h ****     }
 4798              		.loc 17 65 45 view .LVU1309
 4799 0226 0818     		adds	r0, r1, r0
  65:../../DaisySP/Source/Utility/delayline.h ****     }
 4800              		.loc 17 65 57 view .LVU1310
 4801 0228 A3FB0016 		umull	r1, r6, r3, r0
 4802              	.LBE1360:
 4803              	.LBE1379:
 4804              	.LBB1380:
 4805              	.LBB1368:
 4806 022c A3FB0413 		umull	r1, r3, r3, r4
 4807              	.LBE1368:
 4808              	.LBE1380:
 4809              	.LBB1381:
 4810              	.LBB1361:
ARM GAS  C:\Users\seanw\AppData\Local\Temp\ccbivcrf.s 			page 128


 4811 0230 F60B     		lsrs	r6, r6, #15
 4812              	.LBE1361:
 4813              	.LBE1381:
 4814              	.LBB1382:
 4815              	.LBB1369:
  64:../../DaisySP/Source/Utility/delayline.h ****         write_ptr_        = (write_ptr_ - 1 + max_size) % max_size;
 4816              		.loc 17 64 27 view .LVU1311
 4817 0232 CEED030A 		vstr.32	s1, [lr, #12]
  65:../../DaisySP/Source/Utility/delayline.h ****     }
 4818              		.loc 17 65 57 view .LVU1312
 4819 0236 DB0B     		lsrs	r3, r3, #15
 4820              	.LBE1369:
 4821              	.LBE1382:
 4822              		.loc 18 311 30 view .LVU1313
 4823 0238 D7ED006A 		vldr.32	s13, [r7]
 4824              	.LBB1383:
 4825              	.LBB1362:
  65:../../DaisySP/Source/Utility/delayline.h ****     }
 4826              		.loc 17 65 57 view .LVU1314
 4827 023c 02FB1600 		mls	r0, r2, r6, r0
 4828              	.LBE1362:
 4829              	.LBE1383:
 4830              	.LBB1384:
 4831              	.LBB1370:
 4832 0240 02FB1344 		mls	r4, r2, r3, r4
 4833              	.LBE1370:
 4834              	.LBE1384:
 4835              		.loc 18 311 30 view .LVU1315
 4836 0244 A7EEA67A 		vfma.f32	s14, s15, s13
 4837              	.LBB1385:
 4838              	.LBB1363:
  65:../../DaisySP/Source/Utility/delayline.h ****     }
 4839              		.loc 17 65 27 view .LVU1316
 4840 0248 6860     		str	r0, [r5, #4]
 4841              	.LVL195:
  65:../../DaisySP/Source/Utility/delayline.h ****     }
 4842              		.loc 17 65 27 view .LVU1317
 4843              	.LBE1363:
 4844              	.LBE1385:
 310:MultiEffect.cpp ****     delr2.Write((feedback * outr) + inr);
 4845              		.loc 18 310 5 is_stmt 1 view .LVU1318
 4846              	.LBB1386:
 4847              	.LBI1365:
  62:../../DaisySP/Source/Utility/delayline.h ****     {
 4848              		.loc 17 62 17 view .LVU1319
 4849              	.LBB1371:
  65:../../DaisySP/Source/Utility/delayline.h ****     }
 4850              		.loc 17 65 27 is_stmt 0 view .LVU1320
 4851 024a C9F80440 		str	r4, [r9, #4]
 4852              	.LVL196:
  65:../../DaisySP/Source/Utility/delayline.h ****     }
 4853              		.loc 17 65 27 view .LVU1321
 4854              	.LBE1371:
 4855              	.LBE1386:
 4856              		.loc 18 311 5 is_stmt 1 view .LVU1322
 4857              		.loc 18 311 10 is_stmt 0 view .LVU1323
 4858 024e 87ED007A 		vstr.32	s14, [r7]
ARM GAS  C:\Users\seanw\AppData\Local\Temp\ccbivcrf.s 			page 129


 312:MultiEffect.cpp **** }
 4859              		.loc 18 312 1 view .LVU1324
 4860 0252 05B0     		add	sp, sp, #20
 4861              		.cfi_def_cfa_offset 36
 4862              	.LVL197:
 4863              		.loc 18 312 1 view .LVU1325
 4864              		@ sp needed
 4865 0254 BDE8F08F 		pop	{r4, r5, r6, r7, r8, r9, r10, fp, pc}
 4866              	.LVL198:
 4867              	.L86:
 4868              		.loc 18 312 1 view .LVU1326
 4869              		.align	2
 4870              	.L85:
 4871 0258 00000000 		.word	.LANCHOR2
 4872 025c 00000000 		.word	.LANCHOR1
 4873 0260 F7CC9238 		.word	949144823
 4874 0264 00000000 		.word	0
 4875 0268 24F91500 		.word	_ZL4dell
 4876 026c 0C530700 		.word	_ZL5dell2
 4877 0270 BFD40100 		.word	119999
 4878 0274 18A60E00 		.word	_ZL4delr
 4879 0278 73B2E745 		.word	1172812403
 4880 027c C0D40100 		.word	120000
 4881 0280 00000000 		.word	_ZL5delr2
 4882 0284 00000000 		.word	.LANCHOR11
 4883              		.cfi_endproc
 4884              	.LFE4410:
 4886              		.section	.text._Z15GetChorusSampleRfS_ff,"ax",%progbits
 4887              		.align	1
 4888              		.p2align 2,,3
 4889              		.global	_Z15GetChorusSampleRfS_ff
 4890              		.syntax unified
 4891              		.thumb
 4892              		.thumb_func
 4893              		.fpu fpv5-d16
 4895              	_Z15GetChorusSampleRfS_ff:
 4896              	.LVL199:
 4897              	.LFB4411:
 313:MultiEffect.cpp **** 
 314:MultiEffect.cpp **** 
 315:MultiEffect.cpp **** // process audio adding in chorus 
 316:MultiEffect.cpp **** void GetChorusSample(float &outl, float &outr, float inl, float inr)
 317:MultiEffect.cpp **** {
 4898              		.loc 18 317 1 is_stmt 1 view -0
 4899              		.cfi_startproc
 4900              		@ args = 0, pretend = 0, frame = 0
 4901              		@ frame_needed = 0, uses_anonymous_args = 0
 318:MultiEffect.cpp **** 
 319:MultiEffect.cpp ****     crs.Process(inl);
 4902              		.loc 18 319 5 view .LVU1328
 317:MultiEffect.cpp **** 
 4903              		.loc 18 317 1 is_stmt 0 view .LVU1329
 4904 0000 2DE9F047 		push	{r4, r5, r6, r7, r8, r9, r10, lr}
 4905              		.cfi_def_cfa_offset 32
 4906              		.cfi_offset 4, -32
 4907              		.cfi_offset 5, -28
 4908              		.cfi_offset 6, -24
ARM GAS  C:\Users\seanw\AppData\Local\Temp\ccbivcrf.s 			page 130


 4909              		.cfi_offset 7, -20
 4910              		.cfi_offset 8, -16
 4911              		.cfi_offset 9, -12
 4912              		.cfi_offset 10, -8
 4913              		.cfi_offset 14, -4
 4914              		.loc 18 319 16 view .LVU1330
 4915 0004 DFF8E0A0 		ldr	r10, .L89+8
 317:MultiEffect.cpp **** 
 4916              		.loc 18 317 1 view .LVU1331
 4917 0008 0646     		mov	r6, r0
 320:MultiEffect.cpp ****     crs2.Process(inr);
 4918              		.loc 18 320 17 view .LVU1332
 4919 000a DFF8E080 		ldr	r8, .L89+12
 317:MultiEffect.cpp **** 
 4920              		.loc 18 317 1 view .LVU1333
 4921 000e 0D46     		mov	r5, r1
 319:MultiEffect.cpp ****     crs2.Process(inr);
 4922              		.loc 18 319 16 view .LVU1334
 4923 0010 5046     		mov	r0, r10
 4924              	.LVL200:
 321:MultiEffect.cpp ****     crs3.Process(inl);
 4925              		.loc 18 321 17 view .LVU1335
 4926 0012 DFF8DC90 		ldr	r9, .L89+16
 322:MultiEffect.cpp ****     crs4.Process(inr);
 4927              		.loc 18 322 17 view .LVU1336
 4928 0016 324F     		ldr	r7, .L89
 323:MultiEffect.cpp ****     
 324:MultiEffect.cpp ****     
 325:MultiEffect.cpp ****     outl = crs.GetLeft() * drywet *2.5  + crs3.GetLeft() * drywet*2.5 +  inl * (0.5f - drywet);
 4929              		.loc 18 325 26 view .LVU1337
 4930 0018 324C     		ldr	r4, .L89+4
 317:MultiEffect.cpp **** 
 4931              		.loc 18 317 1 view .LVU1338
 4932 001a 2DED088B 		vpush.64	{d8, d9, d10, d11}
 4933              		.cfi_def_cfa_offset 64
 4934              		.cfi_offset 80, -64
 4935              		.cfi_offset 81, -60
 4936              		.cfi_offset 82, -56
 4937              		.cfi_offset 83, -52
 4938              		.cfi_offset 84, -48
 4939              		.cfi_offset 85, -44
 4940              		.cfi_offset 86, -40
 4941              		.cfi_offset 87, -36
 317:MultiEffect.cpp **** 
 4942              		.loc 18 317 1 view .LVU1339
 4943 001e F0EE608A 		vmov.f32	s17, s1
 4944 0022 B0EE40BA 		vmov.f32	s22, s0
 319:MultiEffect.cpp ****     crs2.Process(inr);
 4945              		.loc 18 319 16 view .LVU1340
 4946 0026 FFF7FEFF 		bl	_ZN7daisysp6Chorus7ProcessEf
 4947              	.LVL201:
 320:MultiEffect.cpp ****     crs3.Process(inl);
 4948              		.loc 18 320 5 is_stmt 1 view .LVU1341
 320:MultiEffect.cpp ****     crs3.Process(inl);
 4949              		.loc 18 320 17 is_stmt 0 view .LVU1342
 4950 002a 4046     		mov	r0, r8
 4951              		.loc 18 325 66 view .LVU1343
ARM GAS  C:\Users\seanw\AppData\Local\Temp\ccbivcrf.s 			page 131


 4952 002c B0EE049B 		vmov.f64	d9, #2.5e+0
 320:MultiEffect.cpp ****     crs3.Process(inl);
 4953              		.loc 18 320 17 view .LVU1344
 4954 0030 B0EE680A 		vmov.f32	s0, s17
 4955 0034 FFF7FEFF 		bl	_ZN7daisysp6Chorus7ProcessEf
 4956              	.LVL202:
 321:MultiEffect.cpp ****     crs4.Process(inr);
 4957              		.loc 18 321 5 is_stmt 1 view .LVU1345
 321:MultiEffect.cpp ****     crs4.Process(inr);
 4958              		.loc 18 321 17 is_stmt 0 view .LVU1346
 4959 0038 B0EE4B0A 		vmov.f32	s0, s22
 4960 003c 4846     		mov	r0, r9
 4961              		.loc 18 325 86 view .LVU1347
 4962 003e B6EE008A 		vmov.f32	s16, #5.0e-1
 321:MultiEffect.cpp ****     crs4.Process(inr);
 4963              		.loc 18 321 17 view .LVU1348
 4964 0042 FFF7FEFF 		bl	_ZN7daisysp6Chorus7ProcessEf
 4965              	.LVL203:
 322:MultiEffect.cpp ****     
 4966              		.loc 18 322 5 is_stmt 1 view .LVU1349
 322:MultiEffect.cpp ****     
 4967              		.loc 18 322 17 is_stmt 0 view .LVU1350
 4968 0046 B0EE680A 		vmov.f32	s0, s17
 4969 004a 3846     		mov	r0, r7
 4970 004c FFF7FEFF 		bl	_ZN7daisysp6Chorus7ProcessEf
 4971              	.LVL204:
 4972              		.loc 18 325 5 is_stmt 1 view .LVU1351
 4973              		.loc 18 325 23 is_stmt 0 view .LVU1352
 4974 0050 5046     		mov	r0, r10
 4975 0052 FFF7FEFF 		bl	_ZN7daisysp6Chorus7GetLeftEv
 4976              	.LVL205:
 4977              		.loc 18 325 26 view .LVU1353
 4978 0056 94ED00AA 		vldr.32	s20, [r4]
 4979              		.loc 18 325 55 view .LVU1354
 4980 005a 4846     		mov	r0, r9
 4981              		.loc 18 325 26 view .LVU1355
 4982 005c 20EE0A0A 		vmul.f32	s0, s0, s20
 4983 0060 B7EEC0AA 		vcvt.f64.f32	d10, s0
 4984              		.loc 18 325 55 view .LVU1356
 4985 0064 FFF7FEFF 		bl	_ZN7daisysp6Chorus7GetLeftEv
 4986              	.LVL206:
 4987              		.loc 18 325 58 view .LVU1357
 4988 0068 D4ED007A 		vldr.32	s15, [r4]
 326:MultiEffect.cpp ****     outr =  crs2.GetRight() * drywet*2.5 + + crs4.GetRight() * drywet*2.5 + inr * (0.5f - drywet);
 4989              		.loc 18 326 26 view .LVU1358
 4990 006c 4046     		mov	r0, r8
 325:MultiEffect.cpp ****     outr =  crs2.GetRight() * drywet*2.5 + + crs4.GetRight() * drywet*2.5 + inr * (0.5f - drywet);
 4991              		.loc 18 325 58 view .LVU1359
 4992 006e 20EE275A 		vmul.f32	s10, s0, s15
 325:MultiEffect.cpp ****     outr =  crs2.GetRight() * drywet*2.5 + + crs4.GetRight() * drywet*2.5 + inr * (0.5f - drywet);
 4993              		.loc 18 325 86 view .LVU1360
 4994 0072 78EE677A 		vsub.f32	s15, s16, s15
 325:MultiEffect.cpp ****     outr =  crs2.GetRight() * drywet*2.5 + + crs4.GetRight() * drywet*2.5 + inr * (0.5f - drywet);
 4995              		.loc 18 325 58 view .LVU1361
 4996 0076 B7EEC55A 		vcvt.f64.f32	d5, s10
 325:MultiEffect.cpp ****     outr =  crs2.GetRight() * drywet*2.5 + + crs4.GetRight() * drywet*2.5 + inr * (0.5f - drywet);
 4997              		.loc 18 325 78 view .LVU1362
ARM GAS  C:\Users\seanw\AppData\Local\Temp\ccbivcrf.s 			page 132


 4998 007a 27EE8B4A 		vmul.f32	s8, s15, s22
 325:MultiEffect.cpp ****     outr =  crs2.GetRight() * drywet*2.5 + + crs4.GetRight() * drywet*2.5 + inr * (0.5f - drywet);
 4999              		.loc 18 325 66 view .LVU1363
 5000 007e 25EE095B 		vmul.f64	d5, d5, d9
 325:MultiEffect.cpp ****     outr =  crs2.GetRight() * drywet*2.5 + + crs4.GetRight() * drywet*2.5 + inr * (0.5f - drywet);
 5001              		.loc 18 325 78 view .LVU1364
 5002 0082 B7EEC44A 		vcvt.f64.f32	d4, s8
 325:MultiEffect.cpp ****     outr =  crs2.GetRight() * drywet*2.5 + + crs4.GetRight() * drywet*2.5 + inr * (0.5f - drywet);
 5003              		.loc 18 325 41 view .LVU1365
 5004 0086 AAEE095B 		vfma.f64	d5, d10, d9
 325:MultiEffect.cpp ****     outr =  crs2.GetRight() * drywet*2.5 + + crs4.GetRight() * drywet*2.5 + inr * (0.5f - drywet);
 5005              		.loc 18 325 71 view .LVU1366
 5006 008a 34EE055B 		vadd.f64	d5, d4, d5
 5007 008e B7EEC55B 		vcvt.f32.f64	s10, d5
 5008 0092 86ED005A 		vstr.32	s10, [r6]
 5009              		.loc 18 326 5 is_stmt 1 view .LVU1367
 5010              		.loc 18 326 26 is_stmt 0 view .LVU1368
 5011 0096 FFF7FEFF 		bl	_ZN7daisysp6Chorus8GetRightEv
 5012              	.LVL207:
 5013              		.loc 18 326 29 view .LVU1369
 5014 009a 94ED00AA 		vldr.32	s20, [r4]
 5015              		.loc 18 326 59 view .LVU1370
 5016 009e 3846     		mov	r0, r7
 5017              		.loc 18 326 29 view .LVU1371
 5018 00a0 20EE0A0A 		vmul.f32	s0, s0, s20
 5019 00a4 B7EEC0AA 		vcvt.f64.f32	d10, s0
 5020              		.loc 18 326 59 view .LVU1372
 5021 00a8 FFF7FEFF 		bl	_ZN7daisysp6Chorus8GetRightEv
 5022              	.LVL208:
 5023              		.loc 18 326 62 view .LVU1373
 5024 00ac 94ED006A 		vldr.32	s12, [r4]
 5025 00b0 20EE067A 		vmul.f32	s14, s0, s12
 5026              		.loc 18 326 89 view .LVU1374
 5027 00b4 38EE466A 		vsub.f32	s12, s16, s12
 5028              		.loc 18 326 62 view .LVU1375
 5029 00b8 B7EEC77A 		vcvt.f64.f32	d7, s14
 5030              		.loc 18 326 81 view .LVU1376
 5031 00bc 66EE280A 		vmul.f32	s1, s12, s17
 5032              		.loc 18 326 70 view .LVU1377
 5033 00c0 27EE097B 		vmul.f64	d7, d7, d9
 5034              		.loc 18 326 81 view .LVU1378
 5035 00c4 B7EEE06A 		vcvt.f64.f32	d6, s1
 5036              		.loc 18 326 42 view .LVU1379
 5037 00c8 AAEE097B 		vfma.f64	d7, d10, d9
 327:MultiEffect.cpp **** }
 5038              		.loc 18 327 1 view .LVU1380
 5039 00cc BDEC088B 		vldm	sp!, {d8-d11}
 5040              		.cfi_restore 86
 5041              		.cfi_restore 87
 5042              		.cfi_restore 84
 5043              		.cfi_restore 85
 5044              		.cfi_restore 82
 5045              		.cfi_restore 83
 5046              		.cfi_restore 80
 5047              		.cfi_restore 81
 5048              		.cfi_def_cfa_offset 32
 5049              	.LVL209:
ARM GAS  C:\Users\seanw\AppData\Local\Temp\ccbivcrf.s 			page 133


 326:MultiEffect.cpp ****     outr =  crs2.GetRight() * drywet*2.5 + + crs4.GetRight() * drywet*2.5 + inr * (0.5f - drywet);
 5050              		.loc 18 326 75 view .LVU1381
 5051 00d0 36EE077B 		vadd.f64	d7, d6, d7
 5052 00d4 B7EEC77B 		vcvt.f32.f64	s14, d7
 5053 00d8 85ED007A 		vstr.32	s14, [r5]
 5054              		.loc 18 327 1 view .LVU1382
 5055 00dc BDE8F087 		pop	{r4, r5, r6, r7, r8, r9, r10, pc}
 5056              	.LVL210:
 5057              	.L90:
 5058              		.loc 18 327 1 view .LVU1383
 5059              		.align	2
 5060              	.L89:
 5061 00e0 00000000 		.word	_ZL4crs4
 5062 00e4 00000000 		.word	.LANCHOR10
 5063 00e8 00000000 		.word	_ZL3crs
 5064 00ec 00000000 		.word	_ZL4crs2
 5065 00f0 00000000 		.word	_ZL4crs3
 5066              		.cfi_endproc
 5067              	.LFE4411:
 5069              		.section	.text._Z15GetPhaserSampleRfS_ff,"ax",%progbits
 5070              		.align	1
 5071              		.p2align 2,,3
 5072              		.global	_Z15GetPhaserSampleRfS_ff
 5073              		.syntax unified
 5074              		.thumb
 5075              		.thumb_func
 5076              		.fpu fpv5-d16
 5078              	_Z15GetPhaserSampleRfS_ff:
 5079              	.LVL211:
 5080              	.LFB4412:
 328:MultiEffect.cpp **** 
 329:MultiEffect.cpp **** void GetPhaserSample(float &outl, float &outr, float inl, float inr){
 5081              		.loc 18 329 69 is_stmt 1 view -0
 5082              		.cfi_startproc
 5083              		@ args = 0, pretend = 0, frame = 0
 5084              		@ frame_needed = 0, uses_anonymous_args = 0
 330:MultiEffect.cpp ****            
 331:MultiEffect.cpp ****             freq = 7000.0f;
 5085              		.loc 18 331 13 view .LVU1385
 332:MultiEffect.cpp ****             fonepole(freq, freqtarget, .0001f); //smooth at audio rate
 5086              		.loc 18 332 13 view .LVU1386
 5087              	.LBB1387:
 5088              	.LBI1387:
 135:../../DaisySP/Source/Utility/dsp.h **** {
 5089              		.loc 20 135 13 view .LVU1387
 5090              	.LBB1388:
 5091              		.loc 20 137 5 view .LVU1388
 5092              	.LBE1388:
 5093              	.LBE1387:
 329:MultiEffect.cpp ****            
 5094              		.loc 18 329 69 is_stmt 0 view .LVU1389
 5095 0000 2DE9F84F 		push	{r3, r4, r5, r6, r7, r8, r9, r10, fp, lr}
 5096              		.cfi_def_cfa_offset 40
 5097              		.cfi_offset 3, -40
 5098              		.cfi_offset 4, -36
 5099              		.cfi_offset 5, -32
 5100              		.cfi_offset 6, -28
ARM GAS  C:\Users\seanw\AppData\Local\Temp\ccbivcrf.s 			page 134


 5101              		.cfi_offset 7, -24
 5102              		.cfi_offset 8, -20
 5103              		.cfi_offset 9, -16
 5104              		.cfi_offset 10, -12
 5105              		.cfi_offset 11, -8
 5106              		.cfi_offset 14, -4
 5107              		.loc 18 332 21 view .LVU1390
 5108 0004 DFF898B1 		ldr	fp, .L93+48
 329:MultiEffect.cpp ****            
 5109              		.loc 18 329 69 view .LVU1391
 5110 0008 8046     		mov	r8, r0
 5111              	.LBB1396:
 5112              	.LBB1389:
 5113              		.loc 20 137 24 view .LVU1392
 5114 000a DFED5B6A 		vldr.32	s13, .L93+8
 5115              	.LBE1389:
 5116              	.LBE1396:
 329:MultiEffect.cpp ****            
 5117              		.loc 18 329 69 view .LVU1393
 5118 000e 0E46     		mov	r6, r1
 5119              	.LBB1397:
 5120              	.LBB1390:
 5121              		.loc 20 137 24 view .LVU1394
 5122 0010 DBED007A 		vldr.32	s15, [fp]
 5123              	.LBE1390:
 5124              	.LBE1397:
 333:MultiEffect.cpp ****             psr.SetFreq(freq);
 5125              		.loc 18 333 24 view .LVU1395
 5126 0014 594F     		ldr	r7, .L93+12
 5127              	.LBB1398:
 5128              	.LBB1391:
 5129              		.loc 20 137 24 view .LVU1396
 5130 0016 77EEE65A 		vsub.f32	s11, s15, s13
 5131              	.LBE1391:
 5132              	.LBE1398:
 5133              	.LBB1399:
 5134              	.LBB1400:
 5135              		.loc 20 137 9 view .LVU1397
 5136 001a 594D     		ldr	r5, .L93+16
 5137              	.LBE1400:
 5138              	.LBE1399:
 334:MultiEffect.cpp ****             fonepole(lfo, lfotarget, .0001f); //smooth at audio rate
 5139              		.loc 18 334 21 view .LVU1398
 5140 001c DFF88491 		ldr	r9, .L93+52
 333:MultiEffect.cpp ****             psr.SetFreq(freq);
 5141              		.loc 18 333 24 view .LVU1399
 5142 0020 3846     		mov	r0, r7
 5143              	.LVL212:
 5144              	.LBB1403:
 5145              	.LBB1392:
 5146              		.loc 20 137 9 view .LVU1400
 5147 0022 DFF884A1 		ldr	r10, .L93+56
 5148              	.LBE1392:
 5149              	.LBE1403:
 335:MultiEffect.cpp ****             psr.SetLfoDepth(lfo);
 336:MultiEffect.cpp ****             psr.SetFeedback(.2f);
 337:MultiEffect.cpp ****             psr2.SetFeedback(.3f);
ARM GAS  C:\Users\seanw\AppData\Local\Temp\ccbivcrf.s 			page 135


 5150              		.loc 18 337 29 view .LVU1401
 5151 0026 574C     		ldr	r4, .L93+20
 329:MultiEffect.cpp ****            
 5152              		.loc 18 329 69 view .LVU1402
 5153 0028 2DED068B 		vpush.64	{d8, d9, d10}
 5154              		.cfi_def_cfa_offset 64
 5155              		.cfi_offset 80, -64
 5156              		.cfi_offset 81, -60
 5157              		.cfi_offset 82, -56
 5158              		.cfi_offset 83, -52
 5159              		.cfi_offset 84, -48
 5160              		.cfi_offset 85, -44
 5161              	.LBB1404:
 5162              	.LBB1393:
 5163              		.loc 20 137 9 view .LVU1403
 5164 002c 9FED569A 		vldr.32	s18, .L93+24
 5165              	.LBE1393:
 5166              	.LBE1404:
 329:MultiEffect.cpp ****            
 5167              		.loc 18 329 69 view .LVU1404
 5168 0030 B0EE40AA 		vmov.f32	s20, s0
 5169 0034 F0EE608A 		vmov.f32	s17, s1
 5170              	.LBB1405:
 5171              	.LBB1394:
 5172              		.loc 20 137 9 view .LVU1405
 5173 0038 E5EE896A 		vfma.f32	s13, s11, s18
 5174              	.LBE1394:
 5175              	.LBE1405:
 338:MultiEffect.cpp ****             psr.SetLfoFreq(30.0f);
 339:MultiEffect.cpp ****             psr2.SetLfoFreq(40.0f);
 340:MultiEffect.cpp **** 
 341:MultiEffect.cpp ****             freq = 4000.0f;
 342:MultiEffect.cpp ****             fonepole(freq, freqtarget, .0001f); //smooth at audio rate
 343:MultiEffect.cpp ****             psr2.SetFreq(freq);
 344:MultiEffect.cpp ****             fonepole(lfo, lfotarget, .0001f); //smooth at audio rate
 345:MultiEffect.cpp ****             psr2.SetLfoDepth(lfo);
 346:MultiEffect.cpp ****             crs.Process(inl);
 347:MultiEffect.cpp **** 
 348:MultiEffect.cpp ****             outl = crs.GetLeft() * drywet*0.5 + psr.Process(inl) * drywet + inl * (1.f - drywet);
 5176              		.loc 18 348 88 view .LVU1406
 5177 003c B7EE008A 		vmov.f32	s16, #1.0e+0
 5178              	.LBB1406:
 5179              	.LBB1395:
 5180              		.loc 20 137 9 view .LVU1407
 5181 0040 B0EE660A 		vmov.f32	s0, s13
 5182              	.LVL213:
 5183              		.loc 20 137 9 view .LVU1408
 5184 0044 CAED006A 		vstr.32	s13, [r10]
 5185              	.LVL214:
 5186              		.loc 20 137 9 view .LVU1409
 5187              	.LBE1395:
 5188              	.LBE1406:
 333:MultiEffect.cpp ****             fonepole(lfo, lfotarget, .0001f); //smooth at audio rate
 5189              		.loc 18 333 13 is_stmt 1 view .LVU1410
 333:MultiEffect.cpp ****             fonepole(lfo, lfotarget, .0001f); //smooth at audio rate
 5190              		.loc 18 333 24 is_stmt 0 view .LVU1411
 5191 0048 FFF7FEFF 		bl	_ZN7daisysp6Phaser7SetFreqEf
ARM GAS  C:\Users\seanw\AppData\Local\Temp\ccbivcrf.s 			page 136


 5192              	.LVL215:
 334:MultiEffect.cpp ****             psr.SetLfoDepth(lfo);
 5193              		.loc 18 334 13 is_stmt 1 view .LVU1412
 5194              	.LBB1407:
 5195              	.LBI1399:
 135:../../DaisySP/Source/Utility/dsp.h **** {
 5196              		.loc 20 135 13 view .LVU1413
 5197              	.LBB1401:
 5198              		.loc 20 137 5 view .LVU1414
 5199              		.loc 20 137 9 is_stmt 0 view .LVU1415
 5200 004c 95ED000A 		vldr.32	s0, [r5]
 5201              		.loc 20 137 24 view .LVU1416
 5202 0050 D9ED007A 		vldr.32	s15, [r9]
 5203              	.LBE1401:
 5204              	.LBE1407:
 335:MultiEffect.cpp ****             psr.SetFeedback(.2f);
 5205              		.loc 18 335 28 view .LVU1417
 5206 0054 3846     		mov	r0, r7
 5207              	.LBB1408:
 5208              	.LBB1402:
 5209              		.loc 20 137 24 view .LVU1418
 5210 0056 77EEC07A 		vsub.f32	s15, s15, s0
 5211              		.loc 20 137 9 view .LVU1419
 5212 005a A7EE890A 		vfma.f32	s0, s15, s18
 5213 005e 85ED000A 		vstr.32	s0, [r5]
 5214              	.LVL216:
 5215              		.loc 20 137 9 view .LVU1420
 5216              	.LBE1402:
 5217              	.LBE1408:
 335:MultiEffect.cpp ****             psr.SetFeedback(.2f);
 5218              		.loc 18 335 13 is_stmt 1 view .LVU1421
 335:MultiEffect.cpp ****             psr.SetFeedback(.2f);
 5219              		.loc 18 335 28 is_stmt 0 view .LVU1422
 5220 0062 FFF7FEFF 		bl	_ZN7daisysp6Phaser11SetLfoDepthEf
 5221              	.LVL217:
 336:MultiEffect.cpp ****             psr2.SetFeedback(.3f);
 5222              		.loc 18 336 13 is_stmt 1 view .LVU1423
 336:MultiEffect.cpp ****             psr2.SetFeedback(.3f);
 5223              		.loc 18 336 28 is_stmt 0 view .LVU1424
 5224 0066 9FED490A 		vldr.32	s0, .L93+28
 5225 006a 3846     		mov	r0, r7
 5226 006c FFF7FEFF 		bl	_ZN7daisysp6Phaser11SetFeedbackEf
 5227              	.LVL218:
 337:MultiEffect.cpp ****             psr.SetLfoFreq(30.0f);
 5228              		.loc 18 337 13 is_stmt 1 view .LVU1425
 337:MultiEffect.cpp ****             psr.SetLfoFreq(30.0f);
 5229              		.loc 18 337 29 is_stmt 0 view .LVU1426
 5230 0070 9FED470A 		vldr.32	s0, .L93+32
 5231 0074 2046     		mov	r0, r4
 5232 0076 FFF7FEFF 		bl	_ZN7daisysp6Phaser11SetFeedbackEf
 5233              	.LVL219:
 338:MultiEffect.cpp ****             psr2.SetLfoFreq(40.0f);
 5234              		.loc 18 338 13 is_stmt 1 view .LVU1427
 338:MultiEffect.cpp ****             psr2.SetLfoFreq(40.0f);
 5235              		.loc 18 338 27 is_stmt 0 view .LVU1428
 5236 007a B3EE0E0A 		vmov.f32	s0, #3.0e+1
 5237 007e 3846     		mov	r0, r7
ARM GAS  C:\Users\seanw\AppData\Local\Temp\ccbivcrf.s 			page 137


 5238 0080 FFF7FEFF 		bl	_ZN7daisysp6Phaser10SetLfoFreqEf
 5239              	.LVL220:
 339:MultiEffect.cpp **** 
 5240              		.loc 18 339 13 is_stmt 1 view .LVU1429
 339:MultiEffect.cpp **** 
 5241              		.loc 18 339 28 is_stmt 0 view .LVU1430
 5242 0084 9FED430A 		vldr.32	s0, .L93+36
 5243 0088 2046     		mov	r0, r4
 5244 008a FFF7FEFF 		bl	_ZN7daisysp6Phaser10SetLfoFreqEf
 5245              	.LVL221:
 341:MultiEffect.cpp ****             fonepole(freq, freqtarget, .0001f); //smooth at audio rate
 5246              		.loc 18 341 13 is_stmt 1 view .LVU1431
 342:MultiEffect.cpp ****             psr2.SetFreq(freq);
 5247              		.loc 18 342 13 view .LVU1432
 5248              	.LBB1409:
 5249              	.LBI1409:
 135:../../DaisySP/Source/Utility/dsp.h **** {
 5250              		.loc 20 135 13 view .LVU1433
 5251              	.LBB1410:
 5252              		.loc 20 137 5 view .LVU1434
 5253              		.loc 20 137 24 is_stmt 0 view .LVU1435
 5254 008e DBED007A 		vldr.32	s15, [fp]
 5255 0092 9FED410A 		vldr.32	s0, .L93+40
 5256              	.LBE1410:
 5257              	.LBE1409:
 343:MultiEffect.cpp ****             fonepole(lfo, lfotarget, .0001f); //smooth at audio rate
 5258              		.loc 18 343 25 view .LVU1436
 5259 0096 2046     		mov	r0, r4
 5260              	.LBB1412:
 5261              	.LBB1411:
 5262              		.loc 20 137 24 view .LVU1437
 5263 0098 77EEC07A 		vsub.f32	s15, s15, s0
 5264              		.loc 20 137 9 view .LVU1438
 5265 009c A7EE890A 		vfma.f32	s0, s15, s18
 5266 00a0 8AED000A 		vstr.32	s0, [r10]
 5267              	.LVL222:
 5268              		.loc 20 137 9 view .LVU1439
 5269              	.LBE1411:
 5270              	.LBE1412:
 343:MultiEffect.cpp ****             fonepole(lfo, lfotarget, .0001f); //smooth at audio rate
 5271              		.loc 18 343 13 is_stmt 1 view .LVU1440
 343:MultiEffect.cpp ****             fonepole(lfo, lfotarget, .0001f); //smooth at audio rate
 5272              		.loc 18 343 25 is_stmt 0 view .LVU1441
 5273 00a4 FFF7FEFF 		bl	_ZN7daisysp6Phaser7SetFreqEf
 5274              	.LVL223:
 344:MultiEffect.cpp ****             psr2.SetLfoDepth(lfo);
 5275              		.loc 18 344 13 is_stmt 1 view .LVU1442
 5276              	.LBB1413:
 5277              	.LBI1413:
 135:../../DaisySP/Source/Utility/dsp.h **** {
 5278              		.loc 20 135 13 view .LVU1443
 5279              	.LBB1414:
 5280              		.loc 20 137 5 view .LVU1444
 5281              		.loc 20 137 9 is_stmt 0 view .LVU1445
 5282 00a8 95ED000A 		vldr.32	s0, [r5]
 5283              	.LBE1414:
 5284              	.LBE1413:
ARM GAS  C:\Users\seanw\AppData\Local\Temp\ccbivcrf.s 			page 138


 345:MultiEffect.cpp ****             crs.Process(inl);
 5285              		.loc 18 345 29 view .LVU1446
 5286 00ac 2046     		mov	r0, r4
 5287              	.LBB1417:
 5288              	.LBB1415:
 5289              		.loc 20 137 24 view .LVU1447
 5290 00ae D9ED007A 		vldr.32	s15, [r9]
 5291              	.LBE1415:
 5292              	.LBE1417:
 346:MultiEffect.cpp **** 
 5293              		.loc 18 346 24 view .LVU1448
 5294 00b2 DFF8F890 		ldr	r9, .L93+60
 5295              	.LBB1418:
 5296              	.LBB1416:
 5297              		.loc 20 137 24 view .LVU1449
 5298 00b6 77EEC07A 		vsub.f32	s15, s15, s0
 5299              		.loc 20 137 9 view .LVU1450
 5300 00ba A7EE890A 		vfma.f32	s0, s15, s18
 5301 00be 85ED000A 		vstr.32	s0, [r5]
 5302              	.LVL224:
 5303              		.loc 20 137 9 view .LVU1451
 5304              	.LBE1416:
 5305              	.LBE1418:
 345:MultiEffect.cpp ****             crs.Process(inl);
 5306              		.loc 18 345 13 is_stmt 1 view .LVU1452
 345:MultiEffect.cpp ****             crs.Process(inl);
 5307              		.loc 18 345 29 is_stmt 0 view .LVU1453
 5308 00c2 FFF7FEFF 		bl	_ZN7daisysp6Phaser11SetLfoDepthEf
 5309              	.LVL225:
 346:MultiEffect.cpp **** 
 5310              		.loc 18 346 13 is_stmt 1 view .LVU1454
 5311              		.loc 18 348 34 is_stmt 0 view .LVU1455
 5312 00c6 354D     		ldr	r5, .L93+44
 346:MultiEffect.cpp **** 
 5313              		.loc 18 346 24 view .LVU1456
 5314 00c8 B0EE4A0A 		vmov.f32	s0, s20
 5315 00cc 4846     		mov	r0, r9
 5316 00ce FFF7FEFF 		bl	_ZN7daisysp6Chorus7ProcessEf
 5317              	.LVL226:
 5318              		.loc 18 348 13 is_stmt 1 view .LVU1457
 5319              		.loc 18 348 31 is_stmt 0 view .LVU1458
 5320 00d2 4846     		mov	r0, r9
 5321 00d4 FFF7FEFF 		bl	_ZN7daisysp6Chorus7GetLeftEv
 5322              	.LVL227:
 5323              		.loc 18 348 34 view .LVU1459
 5324 00d8 95ED009A 		vldr.32	s18, [r5]
 5325              		.loc 18 348 60 view .LVU1460
 5326 00dc 3846     		mov	r0, r7
 5327              		.loc 18 348 34 view .LVU1461
 5328 00de 20EE099A 		vmul.f32	s18, s0, s18
 5329              		.loc 18 348 60 view .LVU1462
 5330 00e2 B0EE4A0A 		vmov.f32	s0, s20
 5331 00e6 FFF7FEFF 		bl	_ZN7daisysp6Phaser7ProcessEf
 5332              	.LVL228:
 5333              		.loc 18 348 66 view .LVU1463
 5334 00ea D5ED007A 		vldr.32	s15, [r5]
 5335              		.loc 18 348 47 view .LVU1464
ARM GAS  C:\Users\seanw\AppData\Local\Temp\ccbivcrf.s 			page 139


 5336 00ee B6EE005B 		vmov.f64	d5, #5.0e-1
 349:MultiEffect.cpp ****             outr = crs.GetRight() * drywet*0.3 + psr2.Process(inr) * drywet + inr * (1.f - drywet);
 5337              		.loc 18 349 32 view .LVU1465
 5338 00f2 4846     		mov	r0, r9
 348:MultiEffect.cpp ****             outr = crs.GetRight() * drywet*0.3 + psr2.Process(inr) * drywet + inr * (1.f - drywet);
 5339              		.loc 18 348 66 view .LVU1466
 5340 00f4 20EE277A 		vmul.f32	s14, s0, s15
 348:MultiEffect.cpp ****             outr = crs.GetRight() * drywet*0.3 + psr2.Process(inr) * drywet + inr * (1.f - drywet);
 5341              		.loc 18 348 88 view .LVU1467
 5342 00f8 78EE677A 		vsub.f32	s15, s16, s15
 348:MultiEffect.cpp ****             outr = crs.GetRight() * drywet*0.3 + psr2.Process(inr) * drywet + inr * (1.f - drywet);
 5343              		.loc 18 348 34 view .LVU1468
 5344 00fc B7EEC99A 		vcvt.f64.f32	d9, s18
 348:MultiEffect.cpp ****             outr = crs.GetRight() * drywet*0.3 + psr2.Process(inr) * drywet + inr * (1.f - drywet);
 5345              		.loc 18 348 81 view .LVU1469
 5346 0100 27EE8A0A 		vmul.f32	s0, s15, s20
 348:MultiEffect.cpp ****             outr = crs.GetRight() * drywet*0.3 + psr2.Process(inr) * drywet + inr * (1.f - drywet);
 5347              		.loc 18 348 66 view .LVU1470
 5348 0104 B7EEC77A 		vcvt.f64.f32	d7, s14
 348:MultiEffect.cpp ****             outr = crs.GetRight() * drywet*0.3 + psr2.Process(inr) * drywet + inr * (1.f - drywet);
 5349              		.loc 18 348 81 view .LVU1471
 5350 0108 B7EEC06A 		vcvt.f64.f32	d6, s0
 348:MultiEffect.cpp ****             outr = crs.GetRight() * drywet*0.3 + psr2.Process(inr) * drywet + inr * (1.f - drywet);
 5351              		.loc 18 348 47 view .LVU1472
 5352 010c A9EE057B 		vfma.f64	d7, d9, d5
 348:MultiEffect.cpp ****             outr = crs.GetRight() * drywet*0.3 + psr2.Process(inr) * drywet + inr * (1.f - drywet);
 5353              		.loc 18 348 75 view .LVU1473
 5354 0110 36EE076B 		vadd.f64	d6, d6, d7
 5355 0114 B7EEC66B 		vcvt.f32.f64	s12, d6
 5356 0118 88ED006A 		vstr.32	s12, [r8]
 5357              		.loc 18 349 13 is_stmt 1 view .LVU1474
 5358              		.loc 18 349 32 is_stmt 0 view .LVU1475
 5359 011c FFF7FEFF 		bl	_ZN7daisysp6Chorus8GetRightEv
 5360              	.LVL229:
 5361 0120 B0EE409A 		vmov.f32	s18, s0
 5362              		.loc 18 349 35 view .LVU1476
 5363 0124 D5ED007A 		vldr.32	s15, [r5]
 5364              		.loc 18 349 62 view .LVU1477
 5365 0128 B0EE680A 		vmov.f32	s0, s17
 5366 012c 2046     		mov	r0, r4
 5367              		.loc 18 349 35 view .LVU1478
 5368 012e 29EE279A 		vmul.f32	s18, s18, s15
 5369              		.loc 18 349 62 view .LVU1479
 5370 0132 FFF7FEFF 		bl	_ZN7daisysp6Phaser7ProcessEf
 5371              	.LVL230:
 5372              		.loc 18 349 68 view .LVU1480
 5373 0136 D5ED000A 		vldr.32	s1, [r5]
 5374 013a 20EE200A 		vmul.f32	s0, s0, s1
 5375              		.loc 18 349 35 view .LVU1481
 5376 013e B7EEC99A 		vcvt.f64.f32	d9, s18
 5377              		.loc 18 349 90 view .LVU1482
 5378 0142 38EE608A 		vsub.f32	s16, s16, s1
 5379              		.loc 18 349 68 view .LVU1483
 5380 0146 B7EEC06A 		vcvt.f64.f32	d6, s0
 5381              		.loc 18 349 48 view .LVU1484
 5382 014a 9FED095B 		vldr.64	d5, .L93
 5383              		.loc 18 349 83 view .LVU1485
ARM GAS  C:\Users\seanw\AppData\Local\Temp\ccbivcrf.s 			page 140


 5384 014e 68EE280A 		vmul.f32	s1, s16, s17
 5385              		.loc 18 349 48 view .LVU1486
 5386 0152 A9EE056B 		vfma.f64	d6, d9, d5
 5387              		.loc 18 349 83 view .LVU1487
 5388 0156 B7EEE07A 		vcvt.f64.f32	d7, s1
 350:MultiEffect.cpp **** 
 351:MultiEffect.cpp ****     
 352:MultiEffect.cpp ****             //outl =  psr.Process(inl * drywet) + inl*(1.0f-drywet);
 353:MultiEffect.cpp ****            // outr =  psr.Process(inr * drywet) + inr*((1.0f-drywet));
 354:MultiEffect.cpp ****             
 355:MultiEffect.cpp **** }
 5389              		.loc 18 355 1 view .LVU1488
 5390 015a BDEC068B 		vldm	sp!, {d8-d10}
 5391              		.cfi_restore 84
 5392              		.cfi_restore 85
 5393              		.cfi_restore 82
 5394              		.cfi_restore 83
 5395              		.cfi_restore 80
 5396              		.cfi_restore 81
 5397              		.cfi_def_cfa_offset 40
 5398              	.LVL231:
 349:MultiEffect.cpp **** 
 5399              		.loc 18 349 77 view .LVU1489
 5400 015e 37EE067B 		vadd.f64	d7, d7, d6
 5401 0162 B7EEC77B 		vcvt.f32.f64	s14, d7
 5402 0166 86ED007A 		vstr.32	s14, [r6]
 5403              		.loc 18 355 1 view .LVU1490
 5404 016a BDE8F88F 		pop	{r3, r4, r5, r6, r7, r8, r9, r10, fp, pc}
 5405              	.LVL232:
 5406              	.L94:
 5407              		.loc 18 355 1 view .LVU1491
 5408 016e 00BF     		.align	3
 5409              	.L93:
 5410 0170 33333333 		.word	858993459
 5411 0174 3333D33F 		.word	1070805811
 5412 0178 00C0DA45 		.word	1171963904
 5413 017c 00000000 		.word	_ZL3psr
 5414 0180 00000000 		.word	.LANCHOR6
 5415 0184 00000000 		.word	_ZL4psr2
 5416 0188 17B7D138 		.word	953267991
 5417 018c CDCC4C3E 		.word	1045220557
 5418 0190 9A99993E 		.word	1050253722
 5419 0194 00002042 		.word	1109393408
 5420 0198 00007A45 		.word	1165623296
 5421 019c 00000000 		.word	.LANCHOR10
 5422 01a0 00000000 		.word	.LANCHOR5
 5423 01a4 00000000 		.word	.LANCHOR7
 5424 01a8 00000000 		.word	.LANCHOR4
 5425 01ac 00000000 		.word	_ZL3crs
 5426              		.cfi_endproc
 5427              	.LFE4412:
 5429              		.section	.text._Z15GetOctaveSampleRfS_ff,"ax",%progbits
 5430              		.align	1
 5431              		.p2align 2,,3
 5432              		.global	_Z15GetOctaveSampleRfS_ff
 5433              		.syntax unified
 5434              		.thumb
ARM GAS  C:\Users\seanw\AppData\Local\Temp\ccbivcrf.s 			page 141


 5435              		.thumb_func
 5436              		.fpu fpv5-d16
 5438              	_Z15GetOctaveSampleRfS_ff:
 5439              	.LVL233:
 5440              	.LFB4413:
 356:MultiEffect.cpp **** 
 357:MultiEffect.cpp ****             void GetOctaveSample(float &outl, float &outr, float inl, float inr){
 5441              		.loc 18 357 81 is_stmt 1 view -0
 5442              		.cfi_startproc
 5443              		@ args = 0, pretend = 0, frame = 8
 5444              		@ frame_needed = 0, uses_anonymous_args = 0
 358:MultiEffect.cpp **** 
 359:MultiEffect.cpp ****             outl = crs.GetLeft() * drywet*0.2 + pst.Process(inl) * drywet + inl * (1.f - drywet);
 5445              		.loc 18 359 13 view .LVU1493
 357:MultiEffect.cpp **** 
 5446              		.loc 18 357 81 is_stmt 0 view .LVU1494
 5447 0000 2DE9F041 		push	{r4, r5, r6, r7, r8, lr}
 5448              		.cfi_def_cfa_offset 24
 5449              		.cfi_offset 4, -24
 5450              		.cfi_offset 5, -20
 5451              		.cfi_offset 6, -16
 5452              		.cfi_offset 7, -12
 5453              		.cfi_offset 8, -8
 5454              		.cfi_offset 14, -4
 5455              		.loc 18 359 31 view .LVU1495
 5456 0004 DFF8C880 		ldr	r8, .L97+16
 357:MultiEffect.cpp **** 
 5457              		.loc 18 357 81 view .LVU1496
 5458 0008 0646     		mov	r6, r0
 5459              		.loc 18 359 34 view .LVU1497
 5460 000a 2F4C     		ldr	r4, .L97+8
 357:MultiEffect.cpp **** 
 5461              		.loc 18 357 81 view .LVU1498
 5462 000c 0D46     		mov	r5, r1
 5463              		.loc 18 359 31 view .LVU1499
 5464 000e 4046     		mov	r0, r8
 5465              	.LVL234:
 5466              		.loc 18 359 60 view .LVU1500
 5467 0010 2E4F     		ldr	r7, .L97+12
 357:MultiEffect.cpp **** 
 5468              		.loc 18 357 81 view .LVU1501
 5469 0012 2DED068B 		vpush.64	{d8, d9, d10}
 5470              		.cfi_def_cfa_offset 48
 5471              		.cfi_offset 80, -48
 5472              		.cfi_offset 81, -44
 5473              		.cfi_offset 82, -40
 5474              		.cfi_offset 83, -36
 5475              		.cfi_offset 84, -32
 5476              		.cfi_offset 85, -28
 5477 0016 82B0     		sub	sp, sp, #8
 5478              		.cfi_def_cfa_offset 56
 5479              		.loc 18 359 88 view .LVU1502
 5480 0018 B7EE008A 		vmov.f32	s16, #1.0e+0
 357:MultiEffect.cpp **** 
 5481              		.loc 18 357 81 view .LVU1503
 5482 001c CDED000A 		vstr.32	s1, [sp]
 5483 0020 8DED010A 		vstr.32	s0, [sp, #4]
ARM GAS  C:\Users\seanw\AppData\Local\Temp\ccbivcrf.s 			page 142


 5484              		.loc 18 359 31 view .LVU1504
 5485 0024 FFF7FEFF 		bl	_ZN7daisysp6Chorus7GetLeftEv
 5486              	.LVL235:
 5487              		.loc 18 359 34 view .LVU1505
 5488 0028 94ED00AA 		vldr.32	s20, [r4]
 5489              		.loc 18 359 60 view .LVU1506
 5490 002c 01A9     		add	r1, sp, #4
 5491 002e 3846     		mov	r0, r7
 5492              		.loc 18 359 34 view .LVU1507
 5493 0030 20EE0A0A 		vmul.f32	s0, s0, s20
 5494              		.loc 18 359 47 view .LVU1508
 5495 0034 9FED229B 		vldr.64	d9, .L97
 5496              		.loc 18 359 34 view .LVU1509
 5497 0038 B7EEC0AA 		vcvt.f64.f32	d10, s0
 5498              		.loc 18 359 60 view .LVU1510
 5499 003c FFF7FEFF 		bl	_ZN7daisysp12PitchShifter7ProcessERf
 5500              	.LVL236:
 5501              		.loc 18 359 66 view .LVU1511
 5502 0040 D4ED007A 		vldr.32	s15, [r4]
 360:MultiEffect.cpp ****             outr = crs.GetRight() * drywet*0.2 + pst.Process(inr) * drywet + inr * (1.f - drywet);
 5503              		.loc 18 360 32 view .LVU1512
 5504 0044 4046     		mov	r0, r8
 359:MultiEffect.cpp ****             outr = crs.GetRight() * drywet*0.2 + pst.Process(inr) * drywet + inr * (1.f - drywet);
 5505              		.loc 18 359 81 view .LVU1513
 5506 0046 9DED017A 		vldr.32	s14, [sp, #4]
 359:MultiEffect.cpp ****             outr = crs.GetRight() * drywet*0.2 + pst.Process(inr) * drywet + inr * (1.f - drywet);
 5507              		.loc 18 359 66 view .LVU1514
 5508 004a 20EE270A 		vmul.f32	s0, s0, s15
 359:MultiEffect.cpp ****             outr = crs.GetRight() * drywet*0.2 + pst.Process(inr) * drywet + inr * (1.f - drywet);
 5509              		.loc 18 359 88 view .LVU1515
 5510 004e 78EE677A 		vsub.f32	s15, s16, s15
 359:MultiEffect.cpp ****             outr = crs.GetRight() * drywet*0.2 + pst.Process(inr) * drywet + inr * (1.f - drywet);
 5511              		.loc 18 359 66 view .LVU1516
 5512 0052 B7EEC00A 		vcvt.f64.f32	d0, s0
 359:MultiEffect.cpp ****             outr = crs.GetRight() * drywet*0.2 + pst.Process(inr) * drywet + inr * (1.f - drywet);
 5513              		.loc 18 359 81 view .LVU1517
 5514 0056 67EE877A 		vmul.f32	s15, s15, s14
 359:MultiEffect.cpp ****             outr = crs.GetRight() * drywet*0.2 + pst.Process(inr) * drywet + inr * (1.f - drywet);
 5515              		.loc 18 359 47 view .LVU1518
 5516 005a AAEE090B 		vfma.f64	d0, d10, d9
 359:MultiEffect.cpp ****             outr = crs.GetRight() * drywet*0.2 + pst.Process(inr) * drywet + inr * (1.f - drywet);
 5517              		.loc 18 359 81 view .LVU1519
 5518 005e B7EEE77A 		vcvt.f64.f32	d7, s15
 359:MultiEffect.cpp ****             outr = crs.GetRight() * drywet*0.2 + pst.Process(inr) * drywet + inr * (1.f - drywet);
 5519              		.loc 18 359 75 view .LVU1520
 5520 0062 37EE007B 		vadd.f64	d7, d7, d0
 5521 0066 B7EEC77B 		vcvt.f32.f64	s14, d7
 5522 006a 86ED007A 		vstr.32	s14, [r6]
 5523              		.loc 18 360 13 is_stmt 1 view .LVU1521
 5524              		.loc 18 360 32 is_stmt 0 view .LVU1522
 5525 006e FFF7FEFF 		bl	_ZN7daisysp6Chorus8GetRightEv
 5526              	.LVL237:
 5527              		.loc 18 360 35 view .LVU1523
 5528 0072 94ED00AA 		vldr.32	s20, [r4]
 5529              		.loc 18 360 61 view .LVU1524
 5530 0076 6946     		mov	r1, sp
 5531 0078 3846     		mov	r0, r7
ARM GAS  C:\Users\seanw\AppData\Local\Temp\ccbivcrf.s 			page 143


 5532              		.loc 18 360 35 view .LVU1525
 5533 007a 20EE0A0A 		vmul.f32	s0, s0, s20
 5534 007e B7EEC0AA 		vcvt.f64.f32	d10, s0
 5535              		.loc 18 360 61 view .LVU1526
 5536 0082 FFF7FEFF 		bl	_ZN7daisysp12PitchShifter7ProcessERf
 5537              	.LVL238:
 5538              		.loc 18 360 67 view .LVU1527
 5539 0086 D4ED007A 		vldr.32	s15, [r4]
 5540              		.loc 18 360 82 view .LVU1528
 5541 008a DDED006A 		vldr.32	s13, [sp]
 5542              		.loc 18 360 67 view .LVU1529
 5543 008e 20EE270A 		vmul.f32	s0, s0, s15
 5544              		.loc 18 360 89 view .LVU1530
 5545 0092 38EE678A 		vsub.f32	s16, s16, s15
 5546              		.loc 18 360 67 view .LVU1531
 5547 0096 B7EEC00A 		vcvt.f64.f32	d0, s0
 5548              		.loc 18 360 82 view .LVU1532
 5549 009a 28EE268A 		vmul.f32	s16, s16, s13
 5550              		.loc 18 360 48 view .LVU1533
 5551 009e AAEE090B 		vfma.f64	d0, d10, d9
 5552              		.loc 18 360 82 view .LVU1534
 5553 00a2 B7EEC87A 		vcvt.f64.f32	d7, s16
 5554              		.loc 18 360 76 view .LVU1535
 5555 00a6 37EE007B 		vadd.f64	d7, d7, d0
 5556 00aa B7EEC77B 		vcvt.f32.f64	s14, d7
 5557 00ae 85ED007A 		vstr.32	s14, [r5]
 361:MultiEffect.cpp **** 
 362:MultiEffect.cpp **** 
 363:MultiEffect.cpp ****             }
 5558              		.loc 18 363 13 view .LVU1536
 5559 00b2 02B0     		add	sp, sp, #8
 5560              		.cfi_def_cfa_offset 48
 5561              		@ sp needed
 5562 00b4 BDEC068B 		vldm	sp!, {d8-d10}
 5563              		.cfi_restore 84
 5564              		.cfi_restore 85
 5565              		.cfi_restore 82
 5566              		.cfi_restore 83
 5567              		.cfi_restore 80
 5568              		.cfi_restore 81
 5569              		.cfi_def_cfa_offset 24
 5570 00b8 BDE8F081 		pop	{r4, r5, r6, r7, r8, pc}
 5571              	.LVL239:
 5572              	.L98:
 5573              		.loc 18 363 13 view .LVU1537
 5574 00bc AFF30080 		.align	3
 5575              	.L97:
 5576 00c0 9A999999 		.word	-1717986918
 5577 00c4 9999C93F 		.word	1070176665
 5578 00c8 00000000 		.word	.LANCHOR10
 5579 00cc 00000000 		.word	_ZL3pst
 5580 00d0 00000000 		.word	_ZL3crs
 5581              		.cfi_endproc
 5582              	.LFE4413:
 5584              		.section	.text._Z13AudioCallbackPKfPfj,"ax",%progbits
 5585              		.align	1
 5586              		.p2align 2,,3
ARM GAS  C:\Users\seanw\AppData\Local\Temp\ccbivcrf.s 			page 144


 5587              		.global	_Z13AudioCallbackPKfPfj
 5588              		.syntax unified
 5589              		.thumb
 5590              		.thumb_func
 5591              		.fpu fpv5-d16
 5593              	_Z13AudioCallbackPKfPfj:
 5594              	.LVL240:
 5595              	.LFB4403:
  60:MultiEffect.cpp ****     float outl, outr, inl, inr;
 5596              		.loc 18 60 1 is_stmt 1 view -0
 5597              		.cfi_startproc
 5598              		@ args = 0, pretend = 0, frame = 8
 5599              		@ frame_needed = 0, uses_anonymous_args = 0
  61:MultiEffect.cpp **** 
 5600              		.loc 18 61 5 view .LVU1539
  63:MultiEffect.cpp **** 
 5601              		.loc 18 63 5 view .LVU1540
  60:MultiEffect.cpp ****     float outl, outr, inl, inr;
 5602              		.loc 18 60 1 is_stmt 0 view .LVU1541
 5603 0000 2DE9F041 		push	{r4, r5, r6, r7, r8, lr}
 5604              		.cfi_def_cfa_offset 24
 5605              		.cfi_offset 4, -24
 5606              		.cfi_offset 5, -20
 5607              		.cfi_offset 6, -16
 5608              		.cfi_offset 7, -12
 5609              		.cfi_offset 8, -8
 5610              		.cfi_offset 14, -4
 5611 0004 1746     		mov	r7, r2
 5612 0006 82B0     		sub	sp, sp, #8
 5613              		.cfi_def_cfa_offset 32
  60:MultiEffect.cpp ****     float outl, outr, inl, inr;
 5614              		.loc 18 60 1 view .LVU1542
 5615 0008 0546     		mov	r5, r0
 5616 000a 0C46     		mov	r4, r1
  63:MultiEffect.cpp **** 
 5617              		.loc 18 63 13 view .LVU1543
 5618 000c FFF7FEFF 		bl	_Z8Controlsv
 5619              	.LVL241:
  66:MultiEffect.cpp ****     {
 5620              		.loc 18 66 5 is_stmt 1 view .LVU1544
 5621              	.LBB1419:
  66:MultiEffect.cpp ****     {
 5622              		.loc 18 66 25 view .LVU1545
 5623 0010 17B3     		cbz	r7, .L99
 5624 0012 013F     		subs	r7, r7, #1
 5625              	.LVL242:
  66:MultiEffect.cpp ****     {
 5626              		.loc 18 66 25 is_stmt 0 view .LVU1546
 5627 0014 0026     		movs	r6, #0
 5628 0016 DFF88880 		ldr	r8, .L112
 5629 001a 7F08     		lsrs	r7, r7, #1
 5630              	.LVL243:
 5631              	.L110:
  68:MultiEffect.cpp ****         inr = in[i + 1];
 5632              		.loc 18 68 9 is_stmt 1 view .LVU1547
 5633 001c D8F80030 		ldr	r3, [r8]
  68:MultiEffect.cpp ****         inr = in[i + 1];
ARM GAS  C:\Users\seanw\AppData\Local\Temp\ccbivcrf.s 			page 145


 5634              		.loc 18 68 13 is_stmt 0 view .LVU1548
 5635 0020 95ED000A 		vldr.32	s0, [r5]
 5636              	.LVL244:
  69:MultiEffect.cpp **** 
 5637              		.loc 18 69 9 is_stmt 1 view .LVU1549
  69:MultiEffect.cpp **** 
 5638              		.loc 18 69 13 is_stmt 0 view .LVU1550
 5639 0024 D5ED010A 		vldr.32	s1, [r5, #4]
 5640              	.LVL245:
  71:MultiEffect.cpp ****         {
 5641              		.loc 18 71 9 is_stmt 1 view .LVU1551
 5642 0028 042B     		cmp	r3, #4
 5643 002a 34D8     		bhi	.L101
 5644 002c DFE803F0 		tbb	[pc, r3]
 5645              	.L103:
 5646 0030 2C       		.byte	(.L107-.L103)/2
 5647 0031 25       		.byte	(.L106-.L103)/2
 5648 0032 1E       		.byte	(.L105-.L103)/2
 5649 0033 17       		.byte	(.L104-.L103)/2
 5650 0034 03       		.byte	(.L102-.L103)/2
 5651 0035 00       		.p2align 1
 5652              	.L102:
  77:MultiEffect.cpp ****             default: outl = outr = 0;
 5653              		.loc 18 77 13 view .LVU1552
  77:MultiEffect.cpp ****             default: outl = outr = 0;
 5654              		.loc 18 77 23 view .LVU1553
  77:MultiEffect.cpp ****             default: outl = outr = 0;
 5655              		.loc 18 77 38 is_stmt 0 view .LVU1554
 5656 0036 01A9     		add	r1, sp, #4
 5657 0038 6846     		mov	r0, sp
 5658 003a FFF7FEFF 		bl	_Z15GetOctaveSampleRfS_ff
 5659              	.LVL246:
  77:MultiEffect.cpp ****             default: outl = outr = 0;
 5660              		.loc 18 77 62 is_stmt 1 view .LVU1555
  82:MultiEffect.cpp **** 
 5661              		.loc 18 82 16 is_stmt 0 view .LVU1556
 5662 003e 009A     		ldr	r2, [sp]	@ float
  85:MultiEffect.cpp ****     }
 5663              		.loc 18 85 20 view .LVU1557
 5664 0040 019B     		ldr	r3, [sp, #4]	@ float
 5665              	.L108:
  82:MultiEffect.cpp **** 
 5666              		.loc 18 82 9 is_stmt 1 discriminator 2 view .LVU1558
  85:MultiEffect.cpp ****     }
 5667              		.loc 18 85 20 is_stmt 0 discriminator 2 view .LVU1559
 5668 0042 6360     		str	r3, [r4, #4]	@ float
  66:MultiEffect.cpp ****     {
 5669              		.loc 18 66 25 discriminator 2 view .LVU1560
 5670 0044 BE42     		cmp	r6, r7
 5671 0046 06F10103 		add	r3, r6, #1
  82:MultiEffect.cpp **** 
 5672              		.loc 18 82 16 discriminator 2 view .LVU1561
 5673 004a 2260     		str	r2, [r4]	@ float
  85:MultiEffect.cpp ****     }
 5674              		.loc 18 85 9 is_stmt 1 discriminator 2 view .LVU1562
  66:MultiEffect.cpp ****     {
 5675              		.loc 18 66 5 discriminator 2 view .LVU1563
ARM GAS  C:\Users\seanw\AppData\Local\Temp\ccbivcrf.s 			page 146


 5676              	.LVL247:
  66:MultiEffect.cpp ****     {
 5677              		.loc 18 66 25 discriminator 2 view .LVU1564
 5678 004c 05F10805 		add	r5, r5, #8
 5679 0050 04F10804 		add	r4, r4, #8
 5680 0054 1E46     		mov	r6, r3
 5681              	.LVL248:
  66:MultiEffect.cpp ****     {
 5682              		.loc 18 66 25 is_stmt 0 discriminator 2 view .LVU1565
 5683 0056 E1D1     		bne	.L110
 5684              	.LVL249:
 5685              	.L99:
  66:MultiEffect.cpp ****     {
 5686              		.loc 18 66 25 discriminator 2 view .LVU1566
 5687              	.LBE1419:
  87:MultiEffect.cpp **** int main(void)
 5688              		.loc 18 87 1 view .LVU1567
 5689 0058 02B0     		add	sp, sp, #8
 5690              		.cfi_remember_state
 5691              		.cfi_def_cfa_offset 24
 5692              		@ sp needed
 5693 005a BDE8F081 		pop	{r4, r5, r6, r7, r8, pc}
 5694              	.LVL250:
 5695              	.L104:
 5696              		.cfi_restore_state
 5697              	.LBB1420:
  76:MultiEffect.cpp ****             case OCT: GetOctaveSample(outl, outr, inl, inr); break;
 5698              		.loc 18 76 13 is_stmt 1 view .LVU1568
  76:MultiEffect.cpp ****             case OCT: GetOctaveSample(outl, outr, inl, inr); break;
 5699              		.loc 18 76 23 view .LVU1569
  76:MultiEffect.cpp ****             case OCT: GetOctaveSample(outl, outr, inl, inr); break;
 5700              		.loc 18 76 38 is_stmt 0 view .LVU1570
 5701 005e 01A9     		add	r1, sp, #4
 5702 0060 6846     		mov	r0, sp
 5703 0062 FFF7FEFF 		bl	_Z15GetPhaserSampleRfS_ff
 5704              	.LVL251:
  76:MultiEffect.cpp ****             case OCT: GetOctaveSample(outl, outr, inl, inr); break;
 5705              		.loc 18 76 62 is_stmt 1 view .LVU1571
  82:MultiEffect.cpp **** 
 5706              		.loc 18 82 16 is_stmt 0 view .LVU1572
 5707 0066 009A     		ldr	r2, [sp]	@ float
  85:MultiEffect.cpp ****     }
 5708              		.loc 18 85 20 view .LVU1573
 5709 0068 019B     		ldr	r3, [sp, #4]	@ float
  76:MultiEffect.cpp ****             case OCT: GetOctaveSample(outl, outr, inl, inr); break;
 5710              		.loc 18 76 62 view .LVU1574
 5711 006a EAE7     		b	.L108
 5712              	.LVL252:
 5713              	.L105:
  75:MultiEffect.cpp ****             case PHR: GetPhaserSample(outl, outr, inl, inr); break;
 5714              		.loc 18 75 13 is_stmt 1 view .LVU1575
  75:MultiEffect.cpp ****             case PHR: GetPhaserSample(outl, outr, inl, inr); break;
 5715              		.loc 18 75 23 view .LVU1576
  75:MultiEffect.cpp ****             case PHR: GetPhaserSample(outl, outr, inl, inr); break;
 5716              		.loc 18 75 38 is_stmt 0 view .LVU1577
 5717 006c 01A9     		add	r1, sp, #4
 5718 006e 6846     		mov	r0, sp
ARM GAS  C:\Users\seanw\AppData\Local\Temp\ccbivcrf.s 			page 147


 5719 0070 FFF7FEFF 		bl	_Z15GetChorusSampleRfS_ff
 5720              	.LVL253:
  75:MultiEffect.cpp ****             case PHR: GetPhaserSample(outl, outr, inl, inr); break;
 5721              		.loc 18 75 62 is_stmt 1 view .LVU1578
  82:MultiEffect.cpp **** 
 5722              		.loc 18 82 16 is_stmt 0 view .LVU1579
 5723 0074 009A     		ldr	r2, [sp]	@ float
  85:MultiEffect.cpp ****     }
 5724              		.loc 18 85 20 view .LVU1580
 5725 0076 019B     		ldr	r3, [sp, #4]	@ float
  75:MultiEffect.cpp ****             case PHR: GetPhaserSample(outl, outr, inl, inr); break;
 5726              		.loc 18 75 62 view .LVU1581
 5727 0078 E3E7     		b	.L108
 5728              	.LVL254:
 5729              	.L106:
  74:MultiEffect.cpp ****             case COR: GetChorusSample(outl, outr, inl, inr); break;
 5730              		.loc 18 74 13 is_stmt 1 view .LVU1582
  74:MultiEffect.cpp ****             case COR: GetChorusSample(outl, outr, inl, inr); break;
 5731              		.loc 18 74 23 view .LVU1583
  74:MultiEffect.cpp ****             case COR: GetChorusSample(outl, outr, inl, inr); break;
 5732              		.loc 18 74 37 is_stmt 0 view .LVU1584
 5733 007a 01A9     		add	r1, sp, #4
 5734 007c 6846     		mov	r0, sp
 5735 007e FFF7FEFF 		bl	_Z14GetDelaySampleRfS_ff
 5736              	.LVL255:
  74:MultiEffect.cpp ****             case COR: GetChorusSample(outl, outr, inl, inr); break;
 5737              		.loc 18 74 61 is_stmt 1 view .LVU1585
  82:MultiEffect.cpp **** 
 5738              		.loc 18 82 16 is_stmt 0 view .LVU1586
 5739 0082 009A     		ldr	r2, [sp]	@ float
  85:MultiEffect.cpp ****     }
 5740              		.loc 18 85 20 view .LVU1587
 5741 0084 019B     		ldr	r3, [sp, #4]	@ float
  74:MultiEffect.cpp ****             case COR: GetChorusSample(outl, outr, inl, inr); break;
 5742              		.loc 18 74 61 view .LVU1588
 5743 0086 DCE7     		b	.L108
 5744              	.LVL256:
 5745              	.L107:
  73:MultiEffect.cpp ****             case DEL: GetDelaySample(outl, outr, inl, inr); break;
 5746              		.loc 18 73 13 is_stmt 1 view .LVU1589
  73:MultiEffect.cpp ****             case DEL: GetDelaySample(outl, outr, inl, inr); break;
 5747              		.loc 18 73 26 view .LVU1590
  73:MultiEffect.cpp ****             case DEL: GetDelaySample(outl, outr, inl, inr); break;
 5748              		.loc 18 73 41 is_stmt 0 view .LVU1591
 5749 0088 01A9     		add	r1, sp, #4
 5750 008a 6846     		mov	r0, sp
 5751 008c FFF7FEFF 		bl	_Z15GetReverbSampleRfS_ff
 5752              	.LVL257:
  73:MultiEffect.cpp ****             case DEL: GetDelaySample(outl, outr, inl, inr); break;
 5753              		.loc 18 73 65 is_stmt 1 view .LVU1592
  82:MultiEffect.cpp **** 
 5754              		.loc 18 82 16 is_stmt 0 view .LVU1593
 5755 0090 009A     		ldr	r2, [sp]	@ float
  85:MultiEffect.cpp ****     }
 5756              		.loc 18 85 20 view .LVU1594
 5757 0092 019B     		ldr	r3, [sp, #4]	@ float
  73:MultiEffect.cpp ****             case DEL: GetDelaySample(outl, outr, inl, inr); break;
ARM GAS  C:\Users\seanw\AppData\Local\Temp\ccbivcrf.s 			page 148


 5758              		.loc 18 73 65 view .LVU1595
 5759 0094 D5E7     		b	.L108
 5760              	.LVL258:
 5761              	.L101:
  78:MultiEffect.cpp ****         }
 5762              		.loc 18 78 13 is_stmt 1 view .LVU1596
  78:MultiEffect.cpp ****         }
 5763              		.loc 18 78 22 view .LVU1597
  78:MultiEffect.cpp ****         }
 5764              		.loc 18 78 34 is_stmt 0 view .LVU1598
 5765 0096 0023     		movs	r3, #0
  78:MultiEffect.cpp ****         }
 5766              		.loc 18 78 27 view .LVU1599
 5767 0098 1A46     		mov	r2, r3	@ float
  78:MultiEffect.cpp ****         }
 5768              		.loc 18 78 34 view .LVU1600
 5769 009a 0193     		str	r3, [sp, #4]	@ float
  78:MultiEffect.cpp ****         }
 5770              		.loc 18 78 27 view .LVU1601
 5771 009c 0093     		str	r3, [sp]	@ float
 5772 009e D0E7     		b	.L108
 5773              	.L113:
 5774              		.align	2
 5775              	.L112:
 5776 00a0 00000000 		.word	.LANCHOR9
 5777              	.LBE1420:
 5778              		.cfi_endproc
 5779              	.LFE4403:
 5781              		.section	.text.startup._GLOBAL__sub_I_mode,"ax",%progbits
 5782              		.align	1
 5783              		.p2align 2,,3
 5784              		.syntax unified
 5785              		.thumb
 5786              		.thumb_func
 5787              		.fpu fpv5-d16
 5789              	_GLOBAL__sub_I_mode:
 5790              	.LFB4996:
 5791              		.loc 18 363 13 is_stmt 1 view -0
 5792              		.cfi_startproc
 5793              		@ args = 0, pretend = 0, frame = 0
 5794              		@ frame_needed = 0, uses_anonymous_args = 0
 5795              	.LBB1526:
 5796              	.LBI1526:
 5797              		.loc 18 363 13 view .LVU1603
 5798              	.LVL259:
 5799              	.LBB1527:
 5800              	.LBB1528:
 5801              	.LBI1528:
  35:../../libDaisy/src/daisy_pod.h ****     ~DaisyPod() {}
 5802              		.loc 6 35 5 view .LVU1604
 5803              	.LBB1529:
 5804              	.LBB1530:
 5805              	.LBI1530:
  21:../../libDaisy/src/daisy_seed.h ****     ~DaisySeed() {}
 5806              		.loc 12 21 5 view .LVU1605
 5807              	.LBB1531:
 5808              	.LBB1532:
ARM GAS  C:\Users\seanw\AppData\Local\Temp\ccbivcrf.s 			page 149


 5809              	.LBI1532:
 5810              		.file 21 "../../libDaisy/src/per/qspi.h"
   1:../../libDaisy/src/per/qspi.h **** #ifndef DSY_QSPI
   2:../../libDaisy/src/per/qspi.h **** #define DSY_QSPI /**< Macro */
   3:../../libDaisy/src/per/qspi.h **** 
   4:../../libDaisy/src/per/qspi.h **** #ifndef UNIT_TEST // for unit tests, a dummy implementation
   5:../../libDaisy/src/per/qspi.h **** 
   6:../../libDaisy/src/per/qspi.h **** #include <cstdint>
   7:../../libDaisy/src/per/qspi.h **** #include "daisy_core.h" // Added for dsy_gpio_pin typedef
   8:../../libDaisy/src/per/qspi.h **** 
   9:../../libDaisy/src/per/qspi.h **** #define DSY_QSPI_TEXT       \
  10:../../libDaisy/src/per/qspi.h ****     __attribute__((section( \
  11:../../libDaisy/src/per/qspi.h ****         ".qspiflash_text"))) /**< used for reading memory in memory_mapped mode. */
  12:../../libDaisy/src/per/qspi.h **** #define DSY_QSPI_DATA       \
  13:../../libDaisy/src/per/qspi.h ****     __attribute__((section( \
  14:../../libDaisy/src/per/qspi.h ****         ".qspiflash_data"))) /**< used for reading memory in memory_mapped mode. */
  15:../../libDaisy/src/per/qspi.h **** #define DSY_QSPI_BSS        \
  16:../../libDaisy/src/per/qspi.h ****     __attribute__((section( \
  17:../../libDaisy/src/per/qspi.h ****         ".qspiflash_bss"))) /**< used for reading memory in memory_mapped mode. */
  18:../../libDaisy/src/per/qspi.h **** 
  19:../../libDaisy/src/per/qspi.h **** namespace daisy
  20:../../libDaisy/src/per/qspi.h **** {
  21:../../libDaisy/src/per/qspi.h **** /** @addtogroup serial
  22:../../libDaisy/src/per/qspi.h **** @{
  23:../../libDaisy/src/per/qspi.h **** */
  24:../../libDaisy/src/per/qspi.h **** 
  25:../../libDaisy/src/per/qspi.h **** /** 
  26:../../libDaisy/src/per/qspi.h ****  Driver for QSPI peripheral to interface with external flash memory. \n 
  27:../../libDaisy/src/per/qspi.h ****     Currently supported QSPI Devices: \n 
  28:../../libDaisy/src/per/qspi.h ****     * IS25LP080D
  29:../../libDaisy/src/per/qspi.h **** */
  30:../../libDaisy/src/per/qspi.h **** class QSPIHandle
  31:../../libDaisy/src/per/qspi.h **** {
  32:../../libDaisy/src/per/qspi.h ****   public:
  33:../../libDaisy/src/per/qspi.h ****     enum Result
  34:../../libDaisy/src/per/qspi.h ****     {
  35:../../libDaisy/src/per/qspi.h ****         OK = 0,
  36:../../libDaisy/src/per/qspi.h ****         ERR
  37:../../libDaisy/src/per/qspi.h ****     };
  38:../../libDaisy/src/per/qspi.h **** 
  39:../../libDaisy/src/per/qspi.h ****     /** Indicates the current status of the module. 
  40:../../libDaisy/src/per/qspi.h ****          *  Warnings are indicated by a leading W.
  41:../../libDaisy/src/per/qspi.h ****          *  Errors are indicated by a leading E and cause an immediate exit.
  42:../../libDaisy/src/per/qspi.h ****          * 
  43:../../libDaisy/src/per/qspi.h ****          *  \param GOOD - No errors have been reported.
  44:../../libDaisy/src/per/qspi.h ****          *  \param E_HAL_ERROR - HAL code did not return HAL_OK.
  45:../../libDaisy/src/per/qspi.h ****          *  \param E_SWITCHING_MODES - An error was encountered while switching QSPI peripheral mod
  46:../../libDaisy/src/per/qspi.h ****          *  \param E_INVALID_MODE - QSPI should not be written to while the program is executing fr
  47:../../libDaisy/src/per/qspi.h ****          */
  48:../../libDaisy/src/per/qspi.h ****     enum Status
  49:../../libDaisy/src/per/qspi.h ****     {
  50:../../libDaisy/src/per/qspi.h ****         GOOD = 0,
  51:../../libDaisy/src/per/qspi.h ****         E_HAL_ERROR,
  52:../../libDaisy/src/per/qspi.h ****         E_SWITCHING_MODES,
  53:../../libDaisy/src/per/qspi.h ****         E_INVALID_MODE,
  54:../../libDaisy/src/per/qspi.h ****     };
  55:../../libDaisy/src/per/qspi.h **** 
ARM GAS  C:\Users\seanw\AppData\Local\Temp\ccbivcrf.s 			page 150


  56:../../libDaisy/src/per/qspi.h ****     /** Configuration structure for interfacing with QSPI Driver */
  57:../../libDaisy/src/per/qspi.h ****     struct Config
  58:../../libDaisy/src/per/qspi.h ****     {
  59:../../libDaisy/src/per/qspi.h ****         /** Flash Devices supported. (Both of these are more-or-less the same, just different sizes
  60:../../libDaisy/src/per/qspi.h ****         enum Device
  61:../../libDaisy/src/per/qspi.h ****         {
  62:../../libDaisy/src/per/qspi.h ****             IS25LP080D,  /**< & */
  63:../../libDaisy/src/per/qspi.h ****             IS25LP064A,  /**< & */
  64:../../libDaisy/src/per/qspi.h ****             DEVICE_LAST, /**< & */
  65:../../libDaisy/src/per/qspi.h ****         };
  66:../../libDaisy/src/per/qspi.h **** 
  67:../../libDaisy/src/per/qspi.h ****         /** 
  68:../../libDaisy/src/per/qspi.h ****         Modes of operation.
  69:../../libDaisy/src/per/qspi.h ****         Memory Mapped mode: QSPI configured so that the QSPI can be
  70:../../libDaisy/src/per/qspi.h ****         read from starting address 0x90000000. Writing is not
  71:../../libDaisy/src/per/qspi.h ****         possible in this mode. \n 
  72:../../libDaisy/src/per/qspi.h ****         Indirect Polling mode: Device driver enabled. 
  73:../../libDaisy/src/per/qspi.h ****         */
  74:../../libDaisy/src/per/qspi.h ****         enum Mode
  75:../../libDaisy/src/per/qspi.h ****         {
  76:../../libDaisy/src/per/qspi.h ****             MEMORY_MAPPED,    /**< & */
  77:../../libDaisy/src/per/qspi.h ****             INDIRECT_POLLING, /**< & */
  78:../../libDaisy/src/per/qspi.h ****             MODE_LAST,
  79:../../libDaisy/src/per/qspi.h ****         };
  80:../../libDaisy/src/per/qspi.h **** 
  81:../../libDaisy/src/per/qspi.h ****         //SCK,  CE# (active low)
  82:../../libDaisy/src/per/qspi.h ****         struct
  83:../../libDaisy/src/per/qspi.h ****         {
  84:../../libDaisy/src/per/qspi.h ****             dsy_gpio_pin io0; /**< & */
  85:../../libDaisy/src/per/qspi.h ****             dsy_gpio_pin io1; /**< & */
  86:../../libDaisy/src/per/qspi.h ****             dsy_gpio_pin io2; /**< & */
  87:../../libDaisy/src/per/qspi.h ****             dsy_gpio_pin io3; /**< & */
  88:../../libDaisy/src/per/qspi.h ****             dsy_gpio_pin clk; /**< & */
  89:../../libDaisy/src/per/qspi.h ****             dsy_gpio_pin ncs; /**< & */
  90:../../libDaisy/src/per/qspi.h ****         } pin_config;
  91:../../libDaisy/src/per/qspi.h **** 
  92:../../libDaisy/src/per/qspi.h ****         Device device;
  93:../../libDaisy/src/per/qspi.h ****         Mode   mode;
  94:../../libDaisy/src/per/qspi.h ****     };
  95:../../libDaisy/src/per/qspi.h **** 
  96:../../libDaisy/src/per/qspi.h ****     /** 
  97:../../libDaisy/src/per/qspi.h ****         Initializes QSPI peripheral, and Resets, and prepares memory for access.
  98:../../libDaisy/src/per/qspi.h ****         \param config should be populated with the mode, device and pin_config before calling this 
  99:../../libDaisy/src/per/qspi.h ****         \return Result::OK or Result::ERR
 100:../../libDaisy/src/per/qspi.h ****         */
 101:../../libDaisy/src/per/qspi.h ****     Result Init(const Config& config);
 102:../../libDaisy/src/per/qspi.h **** 
 103:../../libDaisy/src/per/qspi.h ****     /** Returns the current config. */
 104:../../libDaisy/src/per/qspi.h ****     const Config& GetConfig() const;
 105:../../libDaisy/src/per/qspi.h **** 
 106:../../libDaisy/src/per/qspi.h ****     // Couldn't this just be called before anything else in init? That
 107:../../libDaisy/src/per/qspi.h ****     // would make manually calling it unnecessary.
 108:../../libDaisy/src/per/qspi.h ****     /** 
 109:../../libDaisy/src/per/qspi.h ****         Deinitializes the peripheral
 110:../../libDaisy/src/per/qspi.h ****         This should be called before reinitializing QSPI in a different mode.
 111:../../libDaisy/src/per/qspi.h ****         \return Result::OK or Result::ERR
 112:../../libDaisy/src/per/qspi.h ****         */
ARM GAS  C:\Users\seanw\AppData\Local\Temp\ccbivcrf.s 			page 151


 113:../../libDaisy/src/per/qspi.h ****     Result DeInit();
 114:../../libDaisy/src/per/qspi.h **** 
 115:../../libDaisy/src/per/qspi.h ****     /** 
 116:../../libDaisy/src/per/qspi.h ****         Writes a single page to to the specified address on the QSPI chip.
 117:../../libDaisy/src/per/qspi.h ****         For IS25LP*, page size is 256 bytes.
 118:../../libDaisy/src/per/qspi.h ****         \param address Address to write to
 119:../../libDaisy/src/per/qspi.h ****         \param size Buffer size
 120:../../libDaisy/src/per/qspi.h ****         \param buffer Buffer to write
 121:../../libDaisy/src/per/qspi.h ****         \return Result::OK or Result::ERR
 122:../../libDaisy/src/per/qspi.h ****         */
 123:../../libDaisy/src/per/qspi.h ****     Result WritePage(uint32_t address, uint32_t size, uint8_t* buffer);
 124:../../libDaisy/src/per/qspi.h **** 
 125:../../libDaisy/src/per/qspi.h ****     /** 
 126:../../libDaisy/src/per/qspi.h ****         Writes data in buffer to to the QSPI. Starting at address to address+size 
 127:../../libDaisy/src/per/qspi.h ****         \param address Address to write to
 128:../../libDaisy/src/per/qspi.h ****         \param size Buffer size
 129:../../libDaisy/src/per/qspi.h ****         \param buffer Buffer to write
 130:../../libDaisy/src/per/qspi.h ****         \return Result::OK or Result::ERR
 131:../../libDaisy/src/per/qspi.h ****         */
 132:../../libDaisy/src/per/qspi.h ****     Result Write(uint32_t address, uint32_t size, uint8_t* buffer);
 133:../../libDaisy/src/per/qspi.h **** 
 134:../../libDaisy/src/per/qspi.h ****     /** 
 135:../../libDaisy/src/per/qspi.h ****         Erases the area specified on the chip.
 136:../../libDaisy/src/per/qspi.h ****         Erasures will happen by 4K, 32K or 64K increments.
 137:../../libDaisy/src/per/qspi.h ****         Smallest erase possible is 4kB at a time. (on IS25LP*)
 138:../../libDaisy/src/per/qspi.h ****         \param start_addr Address to begin erasing from
 139:../../libDaisy/src/per/qspi.h ****         \param end_addr  Address to stop erasing at
 140:../../libDaisy/src/per/qspi.h ****         \return Result::OK or Result::ERR
 141:../../libDaisy/src/per/qspi.h ****         */
 142:../../libDaisy/src/per/qspi.h ****     Result Erase(uint32_t start_addr, uint32_t end_addr);
 143:../../libDaisy/src/per/qspi.h **** 
 144:../../libDaisy/src/per/qspi.h ****     /**  
 145:../../libDaisy/src/per/qspi.h ****          Erases a single sector of the chip.  
 146:../../libDaisy/src/per/qspi.h ****         TODO: Document the size of this function. 
 147:../../libDaisy/src/per/qspi.h ****         \param addr Address of sector to erase
 148:../../libDaisy/src/per/qspi.h ****         \return Result::OK or Result::ERR
 149:../../libDaisy/src/per/qspi.h ****         */
 150:../../libDaisy/src/per/qspi.h ****     Result EraseSector(uint32_t address);
 151:../../libDaisy/src/per/qspi.h **** 
 152:../../libDaisy/src/per/qspi.h ****     /** Returns the current class status. Useful for debugging.
 153:../../libDaisy/src/per/qspi.h ****      *  \returns Status
 154:../../libDaisy/src/per/qspi.h ****      */
 155:../../libDaisy/src/per/qspi.h ****     Status GetStatus();
 156:../../libDaisy/src/per/qspi.h **** 
 157:../../libDaisy/src/per/qspi.h ****     /** Returns a pointer to the actual memory used 
 158:../../libDaisy/src/per/qspi.h ****      *  The memory at this address is read-only
 159:../../libDaisy/src/per/qspi.h ****      *  to write to it use the Write function.
 160:../../libDaisy/src/per/qspi.h ****      * 
 161:../../libDaisy/src/per/qspi.h ****      *  \param offset returns the pointer starting this 
 162:../../libDaisy/src/per/qspi.h ****      *                many bytes into the memory
 163:../../libDaisy/src/per/qspi.h ****     */
 164:../../libDaisy/src/per/qspi.h ****     void* GetData(uint32_t offset = 0);
 165:../../libDaisy/src/per/qspi.h **** 
 166:../../libDaisy/src/per/qspi.h ****     QSPIHandle() : pimpl_(nullptr) {}
 5811              		.loc 21 166 5 view .LVU1606
 5812              	.LBB1533:
 5813              	.LBB1534:
ARM GAS  C:\Users\seanw\AppData\Local\Temp\ccbivcrf.s 			page 152


 5814              		.loc 21 166 34 is_stmt 0 view .LVU1607
 5815 0000 3248     		ldr	r0, .L116
 5816 0002 0022     		movs	r2, #0
 5817              	.LBE1534:
 5818              	.LBE1533:
 5819              	.LBE1532:
 5820              	.LBE1531:
 5821              	.LBE1530:
 5822              	.LBB1550:
 5823              	.LBB1551:
 5824              	.LBB1552:
 5825              	.LBB1553:
 5826              	.LBB1554:
 5827              	.LBB1555:
 5828              	.LBB1556:
  37:../../libDaisy/src/hid/midi.h ****             tx     = {DSY_GPIOB, 6};
 5829              		.loc 7 37 20 view .LVU1608
 5830 0004 3249     		ldr	r1, .L116+4
 5831              	.LBE1556:
 5832              	.LBE1555:
 5833              	.LBE1554:
 5834              	.LBE1553:
 5835              	.LBE1552:
 5836              	.LBE1551:
 5837              	.LBE1550:
 5838              	.LBE1529:
 5839              	.LBE1528:
 5840              	.LBE1527:
 5841              	.LBE1526:
 5842              		.loc 18 363 13 view .LVU1609
 5843 0006 38B5     		push	{r3, r4, r5, lr}
 5844              		.cfi_def_cfa_offset 16
 5845              		.cfi_offset 3, -16
 5846              		.cfi_offset 4, -12
 5847              		.cfi_offset 5, -8
 5848              		.cfi_offset 14, -4
 5849              	.LBB1659:
 5850              	.LBB1650:
 5851              	.LBB1632:
 5852              	.LBB1628:
 5853              	.LBB1603:
 5854              	.LBB1597:
 5855              	.LBB1591:
 5856              	.LBB1575:
 5857              	.LBB1569:
 5858              	.LBB1563:
 5859              	.LBB1557:
  36:../../libDaisy/src/hid/midi.h ****             rx     = {DSY_GPIOB, 7};
 5860              		.loc 7 36 20 view .LVU1610
 5861 0008 00F51043 		add	r3, r0, #36864
 5862              	.LBE1557:
 5863              	.LBE1563:
 5864              	.LBE1569:
 5865              	.LBE1575:
 5866              	.LBE1591:
 5867              	.LBE1597:
 5868              	.LBE1603:
ARM GAS  C:\Users\seanw\AppData\Local\Temp\ccbivcrf.s 			page 153


 5869              	.LBB1604:
 5870              	.LBB1548:
 5871              	.LBB1537:
 5872              	.LBB1536:
 5873              	.LBB1535:
 5874              		.loc 21 166 34 view .LVU1611
 5875 000c 0260     		str	r2, [r0]
 5876              	.LVL260:
 5877              		.loc 21 166 34 view .LVU1612
 5878              	.LBE1535:
 5879              	.LBE1536:
 5880              	.LBE1537:
 5881              	.LBB1538:
 5882              	.LBI1538:
  62:../../libDaisy/src/hid/audio.h ****     ~AudioHandle() {}
 5883              		.loc 16 62 5 is_stmt 1 view .LVU1613
 5884              	.LBB1539:
 5885              	.LBB1540:
  62:../../libDaisy/src/hid/audio.h ****     ~AudioHandle() {}
 5886              		.loc 16 62 35 is_stmt 0 view .LVU1614
 5887 000e 4261     		str	r2, [r0, #20]
 5888              	.LVL261:
  62:../../libDaisy/src/hid/audio.h ****     ~AudioHandle() {}
 5889              		.loc 16 62 35 view .LVU1615
 5890              	.LBE1540:
 5891              	.LBE1539:
 5892              	.LBE1538:
 5893              	.LBB1541:
 5894              	.LBI1541:
  84:../../libDaisy/src/per/adc.h ****     ~AdcHandle() {}
 5895              		.loc 15 84 5 is_stmt 1 view .LVU1616
  84:../../libDaisy/src/per/adc.h ****     ~AdcHandle() {}
 5896              		.loc 15 84 5 is_stmt 0 view .LVU1617
 5897              	.LBE1541:
 5898              	.LBB1542:
 5899              	.LBI1542:
 5900              		.file 22 "../../libDaisy/src/per/dac.h"
   1:../../libDaisy/src/per/dac.h **** #pragma once
   2:../../libDaisy/src/per/dac.h **** #ifndef DSY_DAC_H
   3:../../libDaisy/src/per/dac.h **** #define DSY_DAC_H
   4:../../libDaisy/src/per/dac.h **** 
   5:../../libDaisy/src/per/dac.h **** #include "daisy_core.h"
   6:../../libDaisy/src/per/dac.h **** 
   7:../../libDaisy/src/per/dac.h **** namespace daisy
   8:../../libDaisy/src/per/dac.h **** {
   9:../../libDaisy/src/per/dac.h **** /** DAC handle for Built-in DAC Peripheral 
  10:../../libDaisy/src/per/dac.h ****  ** 
  11:../../libDaisy/src/per/dac.h ****  ** For now only Normal Mode is supported,
  12:../../libDaisy/src/per/dac.h ****  ** Sample and hold mode provides reduced power consumption, but requires a bit more setup.
  13:../../libDaisy/src/per/dac.h ****  **
  14:../../libDaisy/src/per/dac.h ****  ** For now connecting the DAC through other internal periphearls is also not supported.
  15:../../libDaisy/src/per/dac.h ****  **
  16:../../libDaisy/src/per/dac.h ****  ** Since the DAC channels have dedicated pins we don't need to pass in a pin config like with
  17:../../libDaisy/src/per/dac.h ****  ** other modules. However, it is still important to not try to use the DAC pins for anything else.
  18:../../libDaisy/src/per/dac.h ****  ** DAC Channel 1 is on PA4, and DAC Channel 2 is on PA5
  19:../../libDaisy/src/per/dac.h ****  ***/
  20:../../libDaisy/src/per/dac.h **** class DacHandle
ARM GAS  C:\Users\seanw\AppData\Local\Temp\ccbivcrf.s 			page 154


  21:../../libDaisy/src/per/dac.h **** {
  22:../../libDaisy/src/per/dac.h ****   public:
  23:../../libDaisy/src/per/dac.h ****     /** Return Values for the DacHandle class */
  24:../../libDaisy/src/per/dac.h ****     enum class Result
  25:../../libDaisy/src/per/dac.h ****     {
  26:../../libDaisy/src/per/dac.h ****         OK,
  27:../../libDaisy/src/per/dac.h ****         ERR,
  28:../../libDaisy/src/per/dac.h ****     };
  29:../../libDaisy/src/per/dac.h **** 
  30:../../libDaisy/src/per/dac.h ****     /** Selects which channel(s) will be configured for use. */
  31:../../libDaisy/src/per/dac.h ****     enum class Channel
  32:../../libDaisy/src/per/dac.h ****     {
  33:../../libDaisy/src/per/dac.h ****         ONE,
  34:../../libDaisy/src/per/dac.h ****         TWO,
  35:../../libDaisy/src/per/dac.h ****         BOTH,
  36:../../libDaisy/src/per/dac.h ****     };
  37:../../libDaisy/src/per/dac.h **** 
  38:../../libDaisy/src/per/dac.h ****     /** Sets the Mode for the DAC channels.
  39:../../libDaisy/src/per/dac.h ****      **
  40:../../libDaisy/src/per/dac.h ****      ** Polling mode uses the blocking mode to transmit a single value at a time.
  41:../../libDaisy/src/per/dac.h ****      **
  42:../../libDaisy/src/per/dac.h ****      ** DMA mode uses a buffer, and periodically transmits it triggering a 
  43:../../libDaisy/src/per/dac.h ****      ** callback to fill the buffer when it is ready for more samples.
  44:../../libDaisy/src/per/dac.h ****      ***/
  45:../../libDaisy/src/per/dac.h ****     enum class Mode
  46:../../libDaisy/src/per/dac.h ****     {
  47:../../libDaisy/src/per/dac.h ****         POLLING,
  48:../../libDaisy/src/per/dac.h ****         DMA,
  49:../../libDaisy/src/per/dac.h ****     };
  50:../../libDaisy/src/per/dac.h **** 
  51:../../libDaisy/src/per/dac.h ****     /** Sets the number of bits per sample transmitted out of the DAC.
  52:../../libDaisy/src/per/dac.h ****      ** The output range will be: 0V - VDDA
  53:../../libDaisy/src/per/dac.h ****      ** The resolution will be roughly: bitdepth / (VDDA - 0V) 
  54:../../libDaisy/src/per/dac.h ****      ***/
  55:../../libDaisy/src/per/dac.h ****     enum class BitDepth
  56:../../libDaisy/src/per/dac.h ****     {
  57:../../libDaisy/src/per/dac.h ****         BITS_8,
  58:../../libDaisy/src/per/dac.h ****         BITS_12
  59:../../libDaisy/src/per/dac.h ****     };
  60:../../libDaisy/src/per/dac.h **** 
  61:../../libDaisy/src/per/dac.h ****     /** Sets whether the DAC output is buffered for higher drive ability. */
  62:../../libDaisy/src/per/dac.h ****     enum class BufferState
  63:../../libDaisy/src/per/dac.h ****     {
  64:../../libDaisy/src/per/dac.h ****         ENABLED,
  65:../../libDaisy/src/per/dac.h ****         DISABLED,
  66:../../libDaisy/src/per/dac.h ****     };
  67:../../libDaisy/src/per/dac.h **** 
  68:../../libDaisy/src/per/dac.h ****     /** Configuration structure for initializing the DAC structure. */
  69:../../libDaisy/src/per/dac.h ****     struct Config
  70:../../libDaisy/src/per/dac.h ****     {
  71:../../libDaisy/src/per/dac.h ****         /** Target Samplerate in Hz used to configure the internal 
  72:../../libDaisy/src/per/dac.h ****          ** timebase for DMA mode. Does nothing in POLLING mode.
  73:../../libDaisy/src/per/dac.h ****          ** If the value is 0 at Init time this will default to 48000Hz 
  74:../../libDaisy/src/per/dac.h ****          ** otherwise the driver will attempt meet the target.*/
  75:../../libDaisy/src/per/dac.h ****         uint32_t target_samplerate;
  76:../../libDaisy/src/per/dac.h **** 
  77:../../libDaisy/src/per/dac.h ****         Channel     chn;
ARM GAS  C:\Users\seanw\AppData\Local\Temp\ccbivcrf.s 			page 155


  78:../../libDaisy/src/per/dac.h ****         Mode        mode;
  79:../../libDaisy/src/per/dac.h ****         BitDepth    bitdepth;
  80:../../libDaisy/src/per/dac.h ****         BufferState buff_state;
  81:../../libDaisy/src/per/dac.h ****     };
  82:../../libDaisy/src/per/dac.h **** 
  83:../../libDaisy/src/per/dac.h ****     DacHandle() : pimpl_(nullptr) {}
 5901              		.loc 22 83 5 is_stmt 1 view .LVU1618
 5902              	.LBE1542:
 5903              	.LBE1548:
 5904              	.LBE1604:
 5905              	.LBB1605:
 5906              	.LBB1598:
 5907              	.LBB1592:
 5908              	.LBB1576:
 5909              	.LBB1570:
 5910              	.LBB1564:
 5911              	.LBB1558:
  36:../../libDaisy/src/hid/midi.h ****             rx     = {DSY_GPIOB, 7};
 5912              		.loc 7 36 20 is_stmt 0 view .LVU1619
 5913 0010 C3F81022 		str	r2, [r3, #528]
 5914              	.LBE1558:
 5915              	.LBE1564:
 5916              	.LBE1570:
 5917              	.LBE1576:
 5918              	.LBB1577:
 5919              	.LBB1578:
 5920              	.LBB1579:
 5921              	.LBB1580:
 5922              		.file 23 "../../libDaisy/src/per/uart.h"
   1:../../libDaisy/src/per/uart.h **** /* 
   2:../../libDaisy/src/per/uart.h **** TODO
   3:../../libDaisy/src/per/uart.h **** - UART1 defaults to DMA, add flexible config for DMA on all periphs
   4:../../libDaisy/src/per/uart.h **** - Transmit function improvements.
   5:../../libDaisy/src/per/uart.h **** - Overflow handling, etc. for Rx Queue.
   6:../../libDaisy/src/per/uart.h **** */
   7:../../libDaisy/src/per/uart.h **** 
   8:../../libDaisy/src/per/uart.h **** #pragma once
   9:../../libDaisy/src/per/uart.h **** #ifndef DSY_UART_H
  10:../../libDaisy/src/per/uart.h **** #define DSY_UART_H /**< macro */
  11:../../libDaisy/src/per/uart.h **** #include "daisy_core.h"
  12:../../libDaisy/src/per/uart.h **** 
  13:../../libDaisy/src/per/uart.h **** 
  14:../../libDaisy/src/per/uart.h **** namespace daisy
  15:../../libDaisy/src/per/uart.h **** {
  16:../../libDaisy/src/per/uart.h **** /** @addtogroup serial
  17:../../libDaisy/src/per/uart.h ****     @{
  18:../../libDaisy/src/per/uart.h ****     */
  19:../../libDaisy/src/per/uart.h **** 
  20:../../libDaisy/src/per/uart.h **** /** 
  21:../../libDaisy/src/per/uart.h ****     Uart Peripheral
  22:../../libDaisy/src/per/uart.h ****     @author shensley
  23:../../libDaisy/src/per/uart.h ****     @date March 2020
  24:../../libDaisy/src/per/uart.h ****     */
  25:../../libDaisy/src/per/uart.h **** class UartHandler
  26:../../libDaisy/src/per/uart.h **** {
  27:../../libDaisy/src/per/uart.h ****   public:
  28:../../libDaisy/src/per/uart.h ****     struct Config
ARM GAS  C:\Users\seanw\AppData\Local\Temp\ccbivcrf.s 			page 156


  29:../../libDaisy/src/per/uart.h ****     {
  30:../../libDaisy/src/per/uart.h ****         enum class Peripheral
  31:../../libDaisy/src/per/uart.h ****         {
  32:../../libDaisy/src/per/uart.h ****             USART_1,
  33:../../libDaisy/src/per/uart.h ****             USART_2,
  34:../../libDaisy/src/per/uart.h ****             USART_3,
  35:../../libDaisy/src/per/uart.h ****             UART_4,
  36:../../libDaisy/src/per/uart.h ****             UART_5,
  37:../../libDaisy/src/per/uart.h ****             USART_6,
  38:../../libDaisy/src/per/uart.h ****             UART_7,
  39:../../libDaisy/src/per/uart.h ****             UART_8,
  40:../../libDaisy/src/per/uart.h ****             LPUART_1,
  41:../../libDaisy/src/per/uart.h ****         };
  42:../../libDaisy/src/per/uart.h **** 
  43:../../libDaisy/src/per/uart.h ****         enum class StopBits
  44:../../libDaisy/src/per/uart.h ****         {
  45:../../libDaisy/src/per/uart.h ****             BITS_0_5,
  46:../../libDaisy/src/per/uart.h ****             BITS_1,
  47:../../libDaisy/src/per/uart.h ****             BITS_1_5,
  48:../../libDaisy/src/per/uart.h ****             BITS_2,
  49:../../libDaisy/src/per/uart.h ****         };
  50:../../libDaisy/src/per/uart.h **** 
  51:../../libDaisy/src/per/uart.h ****         enum class Parity
  52:../../libDaisy/src/per/uart.h ****         {
  53:../../libDaisy/src/per/uart.h ****             NONE,
  54:../../libDaisy/src/per/uart.h ****             EVEN,
  55:../../libDaisy/src/per/uart.h ****             ODD,
  56:../../libDaisy/src/per/uart.h ****         };
  57:../../libDaisy/src/per/uart.h **** 
  58:../../libDaisy/src/per/uart.h ****         enum class Mode
  59:../../libDaisy/src/per/uart.h ****         {
  60:../../libDaisy/src/per/uart.h ****             RX,
  61:../../libDaisy/src/per/uart.h ****             TX,
  62:../../libDaisy/src/per/uart.h ****             TX_RX,
  63:../../libDaisy/src/per/uart.h ****         };
  64:../../libDaisy/src/per/uart.h **** 
  65:../../libDaisy/src/per/uart.h ****         enum class WordLength
  66:../../libDaisy/src/per/uart.h ****         {
  67:../../libDaisy/src/per/uart.h ****             BITS_7,
  68:../../libDaisy/src/per/uart.h ****             BITS_8,
  69:../../libDaisy/src/per/uart.h ****             BITS_9,
  70:../../libDaisy/src/per/uart.h ****         };
  71:../../libDaisy/src/per/uart.h **** 
  72:../../libDaisy/src/per/uart.h ****         struct
  73:../../libDaisy/src/per/uart.h ****         {
  74:../../libDaisy/src/per/uart.h ****             dsy_gpio_pin tx; /**< & */
  75:../../libDaisy/src/per/uart.h ****             dsy_gpio_pin rx; /**< & */
  76:../../libDaisy/src/per/uart.h ****         } pin_config;        /**< & */
  77:../../libDaisy/src/per/uart.h **** 
  78:../../libDaisy/src/per/uart.h ****         Peripheral periph;
  79:../../libDaisy/src/per/uart.h ****         StopBits   stopbits;
  80:../../libDaisy/src/per/uart.h ****         Parity     parity;
  81:../../libDaisy/src/per/uart.h ****         Mode       mode;
  82:../../libDaisy/src/per/uart.h ****         WordLength wordlength;
  83:../../libDaisy/src/per/uart.h ****         uint32_t   baudrate;
  84:../../libDaisy/src/per/uart.h ****     };
  85:../../libDaisy/src/per/uart.h **** 
ARM GAS  C:\Users\seanw\AppData\Local\Temp\ccbivcrf.s 			page 157


  86:../../libDaisy/src/per/uart.h **** 
  87:../../libDaisy/src/per/uart.h ****     UartHandler() : pimpl_(nullptr) {}
 5923              		.loc 23 87 35 view .LVU1620
 5924 0014 C3F81822 		str	r2, [r3, #536]
 5925              	.LBE1580:
 5926              	.LBE1579:
 5927              	.LBE1578:
 5928              	.LBE1577:
 5929              	.LBE1592:
 5930              	.LBE1598:
 5931              	.LBE1605:
 5932              	.LBB1606:
 5933              	.LBB1549:
 5934              	.LBB1545:
 5935              	.LBB1543:
 5936              	.LBB1544:
 5937              		.loc 22 83 33 view .LVU1621
 5938 0018 0262     		str	r2, [r0, #32]
 5939              	.LVL262:
 5940              		.loc 22 83 33 view .LVU1622
 5941              	.LBE1544:
 5942              	.LBE1543:
 5943              	.LBE1545:
 5944              	.LBB1546:
 5945              	.LBI1546:
  40:../../libDaisy/src/hid/usb.h **** 
 5946              		.loc 14 40 5 is_stmt 1 view .LVU1623
  40:../../libDaisy/src/hid/usb.h **** 
 5947              		.loc 14 40 5 is_stmt 0 view .LVU1624
 5948              	.LBE1546:
 5949              	.LBB1547:
 5950              	.LBI1547:
  77:../../libDaisy/src/sys/system.h ****     ~System() {}
 5951              		.loc 13 77 5 is_stmt 1 view .LVU1625
  77:../../libDaisy/src/sys/system.h ****     ~System() {}
 5952              		.loc 13 77 5 is_stmt 0 view .LVU1626
 5953              	.LBE1547:
 5954              	.LBE1549:
 5955              	.LBE1606:
 5956              	.LBB1607:
 5957              	.LBI1607:
  20:../../libDaisy/src/hid/encoder.h ****     ~Encoder() {}
 5958              		.loc 11 20 5 is_stmt 1 view .LVU1627
 5959              	.LBB1608:
 5960              	.LBB1609:
 5961              	.LBI1609:
  41:../../libDaisy/src/hid/switch.h ****     ~Switch() {}
 5962              		.loc 10 41 5 view .LVU1628
  41:../../libDaisy/src/hid/switch.h ****     ~Switch() {}
 5963              		.loc 10 41 5 is_stmt 0 view .LVU1629
 5964              	.LBE1609:
 5965              	.LBE1608:
 5966              	.LBE1607:
 5967              	.LBB1610:
 5968              	.LBI1610:
  21:../../libDaisy/src/hid/ctrl.h ****     /** destructor */
 5969              		.loc 5 21 5 is_stmt 1 view .LVU1630
ARM GAS  C:\Users\seanw\AppData\Local\Temp\ccbivcrf.s 			page 158


  21:../../libDaisy/src/hid/ctrl.h ****     /** destructor */
 5970              		.loc 5 21 5 is_stmt 0 view .LVU1631
 5971              	.LBE1610:
 5972              	.LBB1611:
 5973              	.LBI1611:
  21:../../libDaisy/src/hid/ctrl.h ****     /** destructor */
 5974              		.loc 5 21 5 is_stmt 1 view .LVU1632
  21:../../libDaisy/src/hid/ctrl.h ****     /** destructor */
 5975              		.loc 5 21 5 is_stmt 0 view .LVU1633
 5976              	.LBE1611:
 5977              	.LBB1612:
 5978              	.LBI1612:
  41:../../libDaisy/src/hid/switch.h ****     ~Switch() {}
 5979              		.loc 10 41 5 is_stmt 1 view .LVU1634
  41:../../libDaisy/src/hid/switch.h ****     ~Switch() {}
 5980              		.loc 10 41 5 is_stmt 0 view .LVU1635
 5981              	.LBE1612:
 5982              	.LBB1613:
 5983              	.LBI1613:
  41:../../libDaisy/src/hid/switch.h ****     ~Switch() {}
 5984              		.loc 10 41 5 is_stmt 1 view .LVU1636
  41:../../libDaisy/src/hid/switch.h ****     ~Switch() {}
 5985              		.loc 10 41 5 is_stmt 0 view .LVU1637
 5986              	.LBE1613:
 5987              	.LBB1614:
 5988              	.LBI1614:
  17:../../libDaisy/src/hid/rgb_led.h ****     ~RgbLed() {}
 5989              		.loc 8 17 5 is_stmt 1 view .LVU1638
 5990              	.LBB1615:
 5991              	.LBB1616:
 5992              	.LBI1616:
  24:../../libDaisy/src/hid/led.h ****     ~Led() {}
 5993              		.loc 9 24 5 view .LVU1639
  24:../../libDaisy/src/hid/led.h ****     ~Led() {}
 5994              		.loc 9 24 5 is_stmt 0 view .LVU1640
 5995              	.LBE1616:
 5996              	.LBB1617:
 5997              	.LBI1617:
  24:../../libDaisy/src/hid/led.h ****     ~Led() {}
 5998              		.loc 9 24 5 is_stmt 1 view .LVU1641
  24:../../libDaisy/src/hid/led.h ****     ~Led() {}
 5999              		.loc 9 24 5 is_stmt 0 view .LVU1642
 6000              	.LBE1617:
 6001              	.LBB1618:
 6002              	.LBI1618:
  24:../../libDaisy/src/hid/led.h ****     ~Led() {}
 6003              		.loc 9 24 5 is_stmt 1 view .LVU1643
  24:../../libDaisy/src/hid/led.h ****     ~Led() {}
 6004              		.loc 9 24 5 is_stmt 0 view .LVU1644
 6005              	.LBE1618:
 6006              	.LBE1615:
 6007              	.LBE1614:
 6008              	.LBB1619:
 6009              	.LBI1619:
  17:../../libDaisy/src/hid/rgb_led.h ****     ~RgbLed() {}
 6010              		.loc 8 17 5 is_stmt 1 view .LVU1645
 6011              	.LBB1620:
ARM GAS  C:\Users\seanw\AppData\Local\Temp\ccbivcrf.s 			page 159


 6012              	.LBB1621:
 6013              	.LBI1621:
  24:../../libDaisy/src/hid/led.h ****     ~Led() {}
 6014              		.loc 9 24 5 view .LVU1646
  24:../../libDaisy/src/hid/led.h ****     ~Led() {}
 6015              		.loc 9 24 5 is_stmt 0 view .LVU1647
 6016              	.LBE1621:
 6017              	.LBB1622:
 6018              	.LBI1622:
  24:../../libDaisy/src/hid/led.h ****     ~Led() {}
 6019              		.loc 9 24 5 is_stmt 1 view .LVU1648
  24:../../libDaisy/src/hid/led.h ****     ~Led() {}
 6020              		.loc 9 24 5 is_stmt 0 view .LVU1649
 6021              	.LBE1622:
 6022              	.LBB1623:
 6023              	.LBI1623:
  24:../../libDaisy/src/hid/led.h ****     ~Led() {}
 6024              		.loc 9 24 5 is_stmt 1 view .LVU1650
  24:../../libDaisy/src/hid/led.h ****     ~Led() {}
 6025              		.loc 9 24 5 is_stmt 0 view .LVU1651
 6026              	.LBE1623:
 6027              	.LBE1620:
 6028              	.LBE1619:
 6029              	.LBB1624:
 6030              	.LBI1550:
  83:../../libDaisy/src/hid/midi.h ****     ~MidiHandler() {}
 6031              		.loc 7 83 5 is_stmt 1 view .LVU1652
 6032              	.LBB1599:
 6033              	.LBB1593:
 6034              	.LBB1582:
 6035              	.LBI1582:
 6036              		.loc 23 87 5 view .LVU1653
 6037              	.LBB1583:
 6038              	.LBB1584:
 6039              		.loc 23 87 35 is_stmt 0 view .LVU1654
 6040 001a C0F86821 		str	r2, [r0, #360]
 6041              	.LVL263:
 6042              		.loc 23 87 35 view .LVU1655
 6043              	.LBE1584:
 6044              	.LBE1583:
 6045              	.LBE1582:
 6046              	.LBB1585:
 6047              	.LBI1585:
 6048              		.file 24 "../../libDaisy/src/util/ringbuffer.h"
   1:../../libDaisy/src/util/ringbuffer.h **** #pragma once
   2:../../libDaisy/src/util/ringbuffer.h **** #ifndef DSY_RINGBUFFER_H
   3:../../libDaisy/src/util/ringbuffer.h **** #define DSY_RINGBUFFER_H
   4:../../libDaisy/src/util/ringbuffer.h **** 
   5:../../libDaisy/src/util/ringbuffer.h **** #include <algorithm>
   6:../../libDaisy/src/util/ringbuffer.h **** 
   7:../../libDaisy/src/util/ringbuffer.h **** namespace daisy
   8:../../libDaisy/src/util/ringbuffer.h **** {
   9:../../libDaisy/src/util/ringbuffer.h **** /** @addtogroup utility
  10:../../libDaisy/src/util/ringbuffer.h ****     @{
  11:../../libDaisy/src/util/ringbuffer.h **** */
  12:../../libDaisy/src/util/ringbuffer.h **** 
  13:../../libDaisy/src/util/ringbuffer.h **** /**
ARM GAS  C:\Users\seanw\AppData\Local\Temp\ccbivcrf.s 			page 160


  14:../../libDaisy/src/util/ringbuffer.h **** Utility Ring Buffer \n 
  15:../../libDaisy/src/util/ringbuffer.h **** imported from pichenettes/stmlib
  16:../../libDaisy/src/util/ringbuffer.h **** */
  17:../../libDaisy/src/util/ringbuffer.h **** template <typename T, size_t size>
  18:../../libDaisy/src/util/ringbuffer.h **** class RingBuffer
  19:../../libDaisy/src/util/ringbuffer.h **** {
  20:../../libDaisy/src/util/ringbuffer.h ****   public:
  21:../../libDaisy/src/util/ringbuffer.h ****     RingBuffer() {}
 6049              		.loc 24 21 5 is_stmt 1 view .LVU1656
 6050              		.loc 24 21 5 is_stmt 0 view .LVU1657
 6051              	.LBE1585:
 6052              	.LBB1586:
 6053              	.LBI1553:
  85:../../libDaisy/src/hid/midi.h **** 
  86:../../libDaisy/src/hid/midi.h ****     struct Config
 6054              		.loc 7 86 12 is_stmt 1 view .LVU1658
 6055              	.LBB1571:
 6056              	.LBI1554:
  34:../../libDaisy/src/hid/midi.h ****         {
 6057              		.loc 7 34 9 view .LVU1659
 6058              	.LBB1565:
 6059              	.LBB1559:
  36:../../libDaisy/src/hid/midi.h ****             rx     = {DSY_GPIOB, 7};
 6060              		.loc 7 36 13 view .LVU1660
  37:../../libDaisy/src/hid/midi.h ****             tx     = {DSY_GPIOB, 6};
 6061              		.loc 7 37 13 view .LVU1661
 6062              	.LBE1559:
 6063              	.LBE1565:
 6064              	.LBE1571:
 6065              	.LBE1586:
  83:../../libDaisy/src/hid/midi.h ****     ~MidiHandler() {}
 6066              		.loc 7 83 19 is_stmt 0 view .LVU1662
 6067 001e 2D4A     		ldr	r2, .L116+8
 6068              	.LBE1593:
 6069              	.LBE1599:
 6070              	.LBE1624:
 6071              	.LBE1628:
 6072              	.LBE1632:
  16:MultiEffect.cpp **** 
 6073              		.loc 18 16 17 view .LVU1663
 6074 0020 2D4C     		ldr	r4, .L116+12
 6075              	.LBB1633:
 6076              	.LBB1629:
 6077              	.LBB1625:
 6078              	.LBB1600:
 6079              	.LBB1594:
  83:../../libDaisy/src/hid/midi.h ****     ~MidiHandler() {}
 6080              		.loc 7 83 19 view .LVU1664
 6081 0022 C3F81C22 		str	r2, [r3, #540]
 6082 0026 4FF60F02 		movw	r2, #63503
 6083              	.LBB1587:
 6084              	.LBB1572:
 6085              	.LBB1566:
 6086              	.LBB1560:
  37:../../libDaisy/src/hid/midi.h ****             tx     = {DSY_GPIOB, 6};
 6087              		.loc 7 37 20 view .LVU1665
 6088 002a B1F800C0 		ldrh	ip, [r1]
ARM GAS  C:\Users\seanw\AppData\Local\Temp\ccbivcrf.s 			page 161


 6089              	.LBE1560:
 6090              	.LBE1566:
 6091              	.LBE1572:
 6092              	.LBE1587:
  83:../../libDaisy/src/hid/midi.h ****     ~MidiHandler() {}
 6093              		.loc 7 83 19 view .LVU1666
 6094 002e A3F82022 		strh	r2, [r3, #544]	@ movhi
 6095 0032 0722     		movs	r2, #7
 6096              	.LBB1588:
 6097              	.LBB1573:
 6098              	.LBB1567:
 6099              	.LBB1561:
  38:../../libDaisy/src/hid/midi.h ****         }
 6100              		.loc 7 38 20 view .LVU1667
 6101 0034 8988     		ldrh	r1, [r1, #4]
 6102              	.LBE1561:
 6103              	.LBE1567:
 6104              	.LBE1573:
 6105              	.LBE1588:
 6106              	.LBE1594:
 6107              	.LBE1600:
 6108              	.LBE1625:
 6109              	.LBE1629:
 6110              	.LBE1633:
  19:MultiEffect.cpp **** static Chorus                                    crs2;
 6111              		.loc 18 19 50 view .LVU1668
 6112 0036 294D     		ldr	r5, .L116+16
 6113              	.LBB1634:
 6114              	.LBB1630:
 6115              	.LBB1626:
 6116              	.LBB1601:
 6117              	.LBB1595:
  83:../../libDaisy/src/hid/midi.h ****     ~MidiHandler() {}
 6118              		.loc 7 83 19 view .LVU1669
 6119 0038 83F82222 		strb	r2, [r3, #546]
 6120              	.LBE1595:
 6121              	.LBE1601:
 6122              	.LBE1626:
 6123              	.LBE1630:
 6124              	.LBE1634:
  16:MultiEffect.cpp **** 
 6125              		.loc 18 16 17 view .LVU1670
 6126 003c 2246     		mov	r2, r4
 6127              	.LBB1635:
 6128              	.LBB1631:
 6129              	.LBB1627:
 6130              	.LBB1602:
 6131              	.LBB1596:
 6132              	.LBB1589:
 6133              	.LBB1574:
 6134              	.LBB1568:
 6135              	.LBB1562:
  38:../../libDaisy/src/hid/midi.h ****         }
 6136              		.loc 7 38 20 view .LVU1671
 6137 003e A3F81612 		strh	r1, [r3, #534]	@ movhi
  37:../../libDaisy/src/hid/midi.h ****             tx     = {DSY_GPIOB, 6};
 6138              		.loc 7 37 20 view .LVU1672
ARM GAS  C:\Users\seanw\AppData\Local\Temp\ccbivcrf.s 			page 162


 6139 0042 A3F814C2 		strh	ip, [r3, #532]	@ movhi
  38:../../libDaisy/src/hid/midi.h ****         }
 6140              		.loc 7 38 13 is_stmt 1 view .LVU1673
 6141              	.LVL264:
  38:../../libDaisy/src/hid/midi.h ****         }
 6142              		.loc 7 38 13 is_stmt 0 view .LVU1674
 6143              	.LBE1562:
 6144              	.LBE1568:
 6145              	.LBE1574:
 6146              	.LBE1589:
 6147              	.LBB1590:
 6148              	.LBI1577:
  25:../../libDaisy/src/hid/midi.h ****     ~MidiUartTransport() {}
 6149              		.loc 7 25 5 is_stmt 1 view .LVU1675
 6150              	.LBB1581:
 6151              	.LBI1578:
 6152              		.loc 23 87 5 view .LVU1676
 6153              		.loc 23 87 5 is_stmt 0 view .LVU1677
 6154              	.LBE1581:
 6155              	.LBE1590:
 6156              	.LBE1596:
 6157              	.LBE1602:
 6158              	.LBE1627:
 6159              	.LBE1631:
 6160              	.LBE1635:
  16:MultiEffect.cpp **** 
 6161              		.loc 18 16 17 view .LVU1678
 6162 0046 2649     		ldr	r1, .L116+20
 6163 0048 FFF7FEFF 		bl	__aeabi_atexit
 6164              	.LVL265:
 6165              	.LBB1636:
 6166              	.LBI1636:
  88:../../DaisySP/Source/Effects/chorus.h ****     ~Chorus() {}
 6167              		.loc 1 88 5 is_stmt 1 view .LVU1679
 6168              	.LBE1636:
 6169              	.LBE1650:
 6170              	.LBE1659:
  88:../../DaisySP/Source/Effects/chorus.h ****     ~Chorus() {}
 6171              		.loc 1 88 14 view .LVU1680
 6172              	.LBB1660:
 6173              	.LBB1651:
  19:MultiEffect.cpp **** static Chorus                                    crs2;
 6174              		.loc 18 19 50 is_stmt 0 view .LVU1681
 6175 004c 2246     		mov	r2, r4
 6176 004e 2946     		mov	r1, r5
 6177 0050 2448     		ldr	r0, .L116+24
 6178 0052 FFF7FEFF 		bl	__aeabi_atexit
 6179              	.LVL266:
 6180              	.LBB1637:
 6181              	.LBI1637:
  88:../../DaisySP/Source/Effects/chorus.h ****     ~Chorus() {}
 6182              		.loc 1 88 5 is_stmt 1 view .LVU1682
 6183              	.LBE1637:
 6184              	.LBE1651:
 6185              	.LBE1660:
  88:../../DaisySP/Source/Effects/chorus.h ****     ~Chorus() {}
 6186              		.loc 1 88 14 view .LVU1683
ARM GAS  C:\Users\seanw\AppData\Local\Temp\ccbivcrf.s 			page 163


 6187              	.LBB1661:
 6188              	.LBB1652:
  20:MultiEffect.cpp **** static Chorus                                    crs3;
 6189              		.loc 18 20 50 is_stmt 0 view .LVU1684
 6190 0056 2246     		mov	r2, r4
 6191 0058 2946     		mov	r1, r5
 6192 005a 2348     		ldr	r0, .L116+28
 6193 005c FFF7FEFF 		bl	__aeabi_atexit
 6194              	.LVL267:
 6195              	.LBB1638:
 6196              	.LBI1638:
  88:../../DaisySP/Source/Effects/chorus.h ****     ~Chorus() {}
 6197              		.loc 1 88 5 is_stmt 1 view .LVU1685
 6198              	.LBE1638:
 6199              	.LBE1652:
 6200              	.LBE1661:
  88:../../DaisySP/Source/Effects/chorus.h ****     ~Chorus() {}
 6201              		.loc 1 88 14 view .LVU1686
 6202              	.LBB1662:
 6203              	.LBB1653:
  21:MultiEffect.cpp **** static Chorus                                    crs4;
 6204              		.loc 18 21 50 is_stmt 0 view .LVU1687
 6205 0060 2246     		mov	r2, r4
 6206 0062 2946     		mov	r1, r5
 6207 0064 2148     		ldr	r0, .L116+32
 6208 0066 FFF7FEFF 		bl	__aeabi_atexit
 6209              	.LVL268:
 6210              	.LBB1639:
 6211              	.LBI1639:
  88:../../DaisySP/Source/Effects/chorus.h ****     ~Chorus() {}
 6212              		.loc 1 88 5 is_stmt 1 view .LVU1688
 6213              	.LBE1639:
 6214              	.LBE1653:
 6215              	.LBE1662:
  88:../../DaisySP/Source/Effects/chorus.h ****     ~Chorus() {}
 6216              		.loc 1 88 14 view .LVU1689
 6217              	.LBB1663:
 6218              	.LBB1654:
  22:MultiEffect.cpp **** static PitchShifter                              pst;
 6219              		.loc 18 22 50 is_stmt 0 view .LVU1690
 6220 006a 2246     		mov	r2, r4
 6221 006c 2946     		mov	r1, r5
 6222 006e 2048     		ldr	r0, .L116+36
  25:MultiEffect.cpp **** static Phaser                                    psr2;
 6223              		.loc 18 25 50 view .LVU1691
 6224 0070 204D     		ldr	r5, .L116+40
  22:MultiEffect.cpp **** static PitchShifter                              pst;
 6225              		.loc 18 22 50 view .LVU1692
 6226 0072 FFF7FEFF 		bl	__aeabi_atexit
 6227              	.LVL269:
 6228              	.LBB1640:
 6229              	.LBI1640:
  59:../../DaisySP/Source/Effects/pitchshifter.h ****     ~PitchShifter() {}
 6230              		.loc 3 59 5 is_stmt 1 view .LVU1693
 6231              	.LBE1640:
 6232              	.LBE1654:
 6233              	.LBE1663:
ARM GAS  C:\Users\seanw\AppData\Local\Temp\ccbivcrf.s 			page 164


  59:../../DaisySP/Source/Effects/pitchshifter.h ****     ~PitchShifter() {}
 6234              		.loc 3 59 20 view .LVU1694
  59:../../DaisySP/Source/Effects/pitchshifter.h ****     ~PitchShifter() {}
 6235              		.loc 3 59 20 view .LVU1695
 6236              	.LBB1664:
 6237              	.LBB1655:
  23:MultiEffect.cpp **** 
 6238              		.loc 18 23 50 is_stmt 0 view .LVU1696
 6239 0076 2246     		mov	r2, r4
 6240 0078 1F49     		ldr	r1, .L116+44
 6241 007a 2048     		ldr	r0, .L116+48
 6242 007c FFF7FEFF 		bl	__aeabi_atexit
 6243              	.LVL270:
 6244              	.LBB1641:
 6245              	.LBI1641:
  85:../../DaisySP/Source/Effects/phaser.h ****     ~Phaser() {}
 6246              		.loc 2 85 5 is_stmt 1 view .LVU1697
 6247              	.LBE1641:
 6248              	.LBE1655:
 6249              	.LBE1664:
  85:../../DaisySP/Source/Effects/phaser.h ****     ~Phaser() {}
 6250              		.loc 2 85 14 view .LVU1698
 6251              	.LBB1665:
 6252              	.LBB1656:
  25:MultiEffect.cpp **** static Phaser                                    psr2;
 6253              		.loc 18 25 50 is_stmt 0 view .LVU1699
 6254 0080 2246     		mov	r2, r4
 6255 0082 2946     		mov	r1, r5
 6256 0084 1E48     		ldr	r0, .L116+52
 6257 0086 FFF7FEFF 		bl	__aeabi_atexit
 6258              	.LVL271:
 6259              	.LBB1642:
 6260              	.LBI1642:
  85:../../DaisySP/Source/Effects/phaser.h ****     ~Phaser() {}
 6261              		.loc 2 85 5 is_stmt 1 view .LVU1700
 6262              	.LBE1642:
 6263              	.LBE1656:
 6264              	.LBE1665:
  85:../../DaisySP/Source/Effects/phaser.h ****     ~Phaser() {}
 6265              		.loc 2 85 14 view .LVU1701
 6266              	.LBB1666:
 6267              	.LBB1657:
  26:MultiEffect.cpp **** static DelayLine<float, MAX_DELAY> DSY_SDRAM_BSS dell;
 6268              		.loc 18 26 50 is_stmt 0 view .LVU1702
 6269 008a 2946     		mov	r1, r5
  27:MultiEffect.cpp **** static DelayLine<float, MAX_DELAY> DSY_SDRAM_BSS delr;
 6270              		.loc 18 27 50 view .LVU1703
 6271 008c 1D4D     		ldr	r5, .L116+56
  26:MultiEffect.cpp **** static DelayLine<float, MAX_DELAY> DSY_SDRAM_BSS dell;
 6272              		.loc 18 26 50 view .LVU1704
 6273 008e 2246     		mov	r2, r4
 6274 0090 1D48     		ldr	r0, .L116+60
 6275 0092 FFF7FEFF 		bl	__aeabi_atexit
 6276              	.LVL272:
 6277              	.LBB1643:
 6278              	.LBI1643:
  23:../../DaisySP/Source/Utility/delayline.h ****     ~DelayLine() {}
ARM GAS  C:\Users\seanw\AppData\Local\Temp\ccbivcrf.s 			page 165


 6279              		.loc 17 23 5 is_stmt 1 view .LVU1705
  23:../../DaisySP/Source/Utility/delayline.h ****     ~DelayLine() {}
 6280              		.loc 17 23 5 is_stmt 0 view .LVU1706
 6281              	.LBE1643:
  27:MultiEffect.cpp **** static DelayLine<float, MAX_DELAY> DSY_SDRAM_BSS delr;
 6282              		.loc 18 27 50 view .LVU1707
 6283 0096 2246     		mov	r2, r4
 6284 0098 2946     		mov	r1, r5
 6285 009a 1C48     		ldr	r0, .L116+64
 6286 009c FFF7FEFF 		bl	__aeabi_atexit
 6287              	.LVL273:
 6288              	.LBB1644:
 6289              	.LBI1644:
  23:../../DaisySP/Source/Utility/delayline.h ****     ~DelayLine() {}
 6290              		.loc 17 23 5 is_stmt 1 view .LVU1708
  23:../../DaisySP/Source/Utility/delayline.h ****     ~DelayLine() {}
 6291              		.loc 17 23 5 is_stmt 0 view .LVU1709
 6292              	.LBE1644:
  28:MultiEffect.cpp **** static DelayLine<float, MAX_DELAY> DSY_SDRAM_BSS dell2;
 6293              		.loc 18 28 50 view .LVU1710
 6294 00a0 2246     		mov	r2, r4
 6295 00a2 2946     		mov	r1, r5
 6296 00a4 1A48     		ldr	r0, .L116+68
 6297 00a6 FFF7FEFF 		bl	__aeabi_atexit
 6298              	.LVL274:
 6299              	.LBB1645:
 6300              	.LBI1645:
  23:../../DaisySP/Source/Utility/delayline.h ****     ~DelayLine() {}
 6301              		.loc 17 23 5 is_stmt 1 view .LVU1711
  23:../../DaisySP/Source/Utility/delayline.h ****     ~DelayLine() {}
 6302              		.loc 17 23 5 is_stmt 0 view .LVU1712
 6303              	.LBE1645:
  29:MultiEffect.cpp **** static DelayLine<float, MAX_DELAY> DSY_SDRAM_BSS delr2;
 6304              		.loc 18 29 50 view .LVU1713
 6305 00aa 2246     		mov	r2, r4
 6306 00ac 2946     		mov	r1, r5
 6307 00ae 1948     		ldr	r0, .L116+72
 6308 00b0 FFF7FEFF 		bl	__aeabi_atexit
 6309              	.LVL275:
 6310              	.LBB1646:
 6311              	.LBI1646:
  23:../../DaisySP/Source/Utility/delayline.h ****     ~DelayLine() {}
 6312              		.loc 17 23 5 is_stmt 1 view .LVU1714
  23:../../DaisySP/Source/Utility/delayline.h ****     ~DelayLine() {}
 6313              		.loc 17 23 5 is_stmt 0 view .LVU1715
 6314              	.LBE1646:
  30:MultiEffect.cpp **** 
 6315              		.loc 18 30 50 view .LVU1716
 6316 00b4 2246     		mov	r2, r4
 6317 00b6 2946     		mov	r1, r5
 6318 00b8 1748     		ldr	r0, .L116+76
 6319 00ba FFF7FEFF 		bl	__aeabi_atexit
 6320              	.LVL276:
 6321              	.LBB1647:
 6322              	.LBI1647:
  25:../../libDaisy/src/hid/parameter.h ****     /** Destructor */
 6323              		.loc 4 25 5 is_stmt 1 view .LVU1717
ARM GAS  C:\Users\seanw\AppData\Local\Temp\ccbivcrf.s 			page 166


 6324              	.LBB1648:
 6325              	.LBB1649:
 6326              	.LBI1649:
  21:../../libDaisy/src/hid/ctrl.h ****     /** destructor */
 6327              		.loc 5 21 5 view .LVU1718
  21:../../libDaisy/src/hid/ctrl.h ****     /** destructor */
 6328              		.loc 5 21 5 is_stmt 0 view .LVU1719
 6329              	.LBE1649:
 6330              	.LBE1648:
 6331              	.LBE1647:
  32:MultiEffect.cpp **** int   mode = CHRDEL;
 6332              		.loc 18 32 18 view .LVU1720
 6333 00be 2246     		mov	r2, r4
 6334 00c0 1649     		ldr	r1, .L116+80
 6335 00c2 1748     		ldr	r0, .L116+84
 6336              	.LBE1657:
 6337              	.LBE1666:
 6338              		.loc 18 363 13 view .LVU1721
 6339 00c4 BDE83840 		pop	{r3, r4, r5, lr}
 6340              		.cfi_restore 14
 6341              		.cfi_restore 5
 6342              		.cfi_restore 4
 6343              		.cfi_restore 3
 6344              		.cfi_def_cfa_offset 0
 6345              	.LBB1667:
 6346              	.LBB1658:
  32:MultiEffect.cpp **** int   mode = CHRDEL;
 6347              		.loc 18 32 18 view .LVU1722
 6348 00c8 FFF7FEBF 		b	__aeabi_atexit
 6349              	.LVL277:
 6350              	.L117:
 6351              		.align	2
 6352              	.L116:
 6353 00cc 00000000 		.word	_ZL3pod
 6354 00d0 00000000 		.word	.LANCHOR12
 6355 00d4 80707FF0 		.word	-260083584
 6356 00d8 00000000 		.word	__dso_handle
 6357 00dc 00000000 		.word	_ZN7daisysp6ChorusD1Ev
 6358 00e0 00000000 		.word	_ZN5daisy8DaisyPodD1Ev
 6359 00e4 00000000 		.word	_ZL3crs
 6360 00e8 00000000 		.word	_ZL4crs2
 6361 00ec 00000000 		.word	_ZL4crs3
 6362 00f0 00000000 		.word	_ZL4crs4
 6363 00f4 00000000 		.word	_ZN7daisysp6PhaserD1Ev
 6364 00f8 00000000 		.word	_ZN7daisysp12PitchShifterD1Ev
 6365 00fc 00000000 		.word	_ZL3pst
 6366 0100 00000000 		.word	_ZL3psr
 6367 0104 00000000 		.word	_ZN7daisysp9DelayLineIfLj120000EED1Ev
 6368 0108 00000000 		.word	_ZL4psr2
 6369 010c 24F91500 		.word	_ZL4dell
 6370 0110 18A60E00 		.word	_ZL4delr
 6371 0114 0C530700 		.word	_ZL5dell2
 6372 0118 00000000 		.word	_ZL5delr2
 6373 011c 00000000 		.word	_ZN5daisy9ParameterD1Ev
 6374 0120 00000000 		.word	.LANCHOR0
 6375              	.LBE1658:
 6376              	.LBE1667:
ARM GAS  C:\Users\seanw\AppData\Local\Temp\ccbivcrf.s 			page 167


 6377              		.cfi_endproc
 6378              	.LFE4996:
 6380              		.section	.init_array,"aw",%init_array
 6381              		.align	2
 6382 0000 00000000 		.word	_GLOBAL__sub_I_mode(target1)
 6383              		.global	drywet
 6384              		.global	lfo
 6385              		.global	lfotarget
 6386              		.global	freqtarget
 6387              		.global	freq
 6388              		.global	delayTarget
 6389              		.global	feedback
 6390              		.global	currentDelay
 6391              		.global	octDelSize
 6392              		.global	numstages
 6393              		.global	mode
 6394              		.weak	_ZZN7daisysp6myrandEvE4seed
 6395              		.section	.data._ZZN7daisysp6myrandEvE4seed,"awG",%progbits,_ZZN7daisysp6myrandEvE4seed,comdat
 6396              		.align	2
 6399              	_ZZN7daisysp6myrandEvE4seed:
 6400 0000 01000000 		.word	1
 6401              		.section	.rodata
 6402              		.align	2
 6403              		.set	.LANCHOR12,. + 0
 6404              	.LC0:
 6405 0000 01       		.byte	1
 6406 0001 07       		.byte	7
 6407 0002 0000     		.space	2
 6408              	.LC1:
 6409 0004 01       		.byte	1
 6410 0005 06       		.byte	6
 6411              		.section	.bss._ZL3crs,"aw",%nobits
 6412              		.align	2
 6415              	_ZL3crs:
 6416 0000 00000000 		.space	19292
 6416      00000000 
 6416      00000000 
 6416      00000000 
 6416      00000000 
 6417              		.section	.bss._ZL3pod,"aw",%nobits
 6418              		.align	2
 6421              	_ZL3pod:
 6422 0000 00000000 		.space	37412
 6422      00000000 
 6422      00000000 
 6422      00000000 
 6422      00000000 
 6423              		.section	.bss._ZL3psr,"aw",%nobits
 6424              		.align	2
 6427              	_ZL3psr:
 6428 0000 00000000 		.space	77192
 6428      00000000 
 6428      00000000 
 6428      00000000 
 6428      00000000 
 6429              		.section	.bss._ZL3pst,"aw",%nobits
 6430              		.align	2
ARM GAS  C:\Users\seanw\AppData\Local\Temp\ccbivcrf.s 			page 168


 6433              	_ZL3pst:
 6434 0000 00000000 		.space	131256
 6434      00000000 
 6434      00000000 
 6434      00000000 
 6434      00000000 
 6435              		.section	.bss._ZL4crs2,"aw",%nobits
 6436              		.align	2
 6439              	_ZL4crs2:
 6440 0000 00000000 		.space	19292
 6440      00000000 
 6440      00000000 
 6440      00000000 
 6440      00000000 
 6441              		.section	.bss._ZL4crs3,"aw",%nobits
 6442              		.align	2
 6445              	_ZL4crs3:
 6446 0000 00000000 		.space	19292
 6446      00000000 
 6446      00000000 
 6446      00000000 
 6446      00000000 
 6447              		.section	.bss._ZL4crs4,"aw",%nobits
 6448              		.align	2
 6451              	_ZL4crs4:
 6452 0000 00000000 		.space	19292
 6452      00000000 
 6452      00000000 
 6452      00000000 
 6452      00000000 
 6453              		.section	.bss._ZL4psr2,"aw",%nobits
 6454              		.align	2
 6457              	_ZL4psr2:
 6458 0000 00000000 		.space	77192
 6458      00000000 
 6458      00000000 
 6458      00000000 
 6458      00000000 
 6459              		.section	.bss._ZL7deltime,"aw",%nobits
 6460              		.align	2
 6461              		.set	.LANCHOR0,. + 0
 6464              	_ZL7deltime:
 6465 0000 00000000 		.space	56
 6465      00000000 
 6465      00000000 
 6465      00000000 
 6465      00000000 
 6466              		.section	.bss.currentDelay,"aw",%nobits
 6467              		.align	2
 6468              		.set	.LANCHOR2,. + 0
 6471              	currentDelay:
 6472 0000 00000000 		.space	4
 6473              		.section	.bss.delayTarget,"aw",%nobits
 6474              		.align	2
 6475              		.set	.LANCHOR1,. + 0
 6478              	delayTarget:
 6479 0000 00000000 		.space	4
ARM GAS  C:\Users\seanw\AppData\Local\Temp\ccbivcrf.s 			page 169


 6480              		.section	.bss.drywet,"aw",%nobits
 6481              		.align	2
 6482              		.set	.LANCHOR10,. + 0
 6485              	drywet:
 6486 0000 00000000 		.space	4
 6487              		.section	.bss.feedback,"aw",%nobits
 6488              		.align	2
 6489              		.set	.LANCHOR11,. + 0
 6492              	feedback:
 6493 0000 00000000 		.space	4
 6494              		.section	.bss.freq,"aw",%nobits
 6495              		.align	2
 6496              		.set	.LANCHOR4,. + 0
 6499              	freq:
 6500 0000 00000000 		.space	4
 6501              		.section	.bss.freqtarget,"aw",%nobits
 6502              		.align	2
 6503              		.set	.LANCHOR5,. + 0
 6506              	freqtarget:
 6507 0000 00000000 		.space	4
 6508              		.section	.bss.lfo,"aw",%nobits
 6509              		.align	2
 6510              		.set	.LANCHOR6,. + 0
 6513              	lfo:
 6514 0000 00000000 		.space	4
 6515              		.section	.bss.lfotarget,"aw",%nobits
 6516              		.align	2
 6517              		.set	.LANCHOR7,. + 0
 6520              	lfotarget:
 6521 0000 00000000 		.space	4
 6522              		.section	.bss.mode,"aw",%nobits
 6523              		.align	2
 6524              		.set	.LANCHOR9,. + 0
 6527              	mode:
 6528 0000 00000000 		.space	4
 6529              		.section	.bss.numstages,"aw",%nobits
 6530              		.align	2
 6531              		.set	.LANCHOR3,. + 0
 6534              	numstages:
 6535 0000 00000000 		.space	4
 6536              		.section	.bss.octDelSize,"aw",%nobits
 6537              		.align	2
 6538              		.set	.LANCHOR8,. + 0
 6541              	octDelSize:
 6542 0000 00000000 		.space	4
 6543              		.section	.sdram_bss,"aw"
 6544              		.align	2
 6547              	_ZL5delr2:
 6548 0000 00000000 		.space	480012
 6548      00000000 
 6548      00000000 
 6548      00000000 
 6548      00000000 
 6551              	_ZL5dell2:
 6552 7530c 00000000 		.space	480012
 6552      00000000 
 6552      00000000 
ARM GAS  C:\Users\seanw\AppData\Local\Temp\ccbivcrf.s 			page 170


 6552      00000000 
 6552      00000000 
 6555              	_ZL4delr:
 6556 ea618 00000000 		.space	480012
 6556      00000000 
 6556      00000000 
 6556      00000000 
 6556      00000000 
 6559              	_ZL4dell:
 6560 15f924 00000000 		.space	480012
 6560      00000000 
 6560      00000000 
 6560      00000000 
 6560      00000000 
 6561              		.text
 6562              	.Letext0:
 6563              		.file 25 "c:\\users\\seanw\\documents\\daisytoolchain-0.3.1\\daisytoolchain-0.3.1\\windows\\arm-no
 6564              		.file 26 "c:\\users\\seanw\\documents\\daisytoolchain-0.3.1\\daisytoolchain-0.3.1\\windows\\arm-no
 6565              		.file 27 "c:\\users\\seanw\\documents\\daisytoolchain-0.3.1\\daisytoolchain-0.3.1\\windows\\arm-no
 6566              		.file 28 "c:\\users\\seanw\\documents\\daisytoolchain-0.3.1\\daisytoolchain-0.3.1\\windows\\lib\\g
 6567              		.file 29 "c:\\users\\seanw\\documents\\daisytoolchain-0.3.1\\daisytoolchain-0.3.1\\windows\\arm-no
 6568              		.file 30 "c:\\users\\seanw\\documents\\daisytoolchain-0.3.1\\daisytoolchain-0.3.1\\windows\\arm-no
 6569              		.file 31 "c:\\users\\seanw\\documents\\daisytoolchain-0.3.1\\daisytoolchain-0.3.1\\windows\\arm-no
 6570              		.file 32 "c:\\users\\seanw\\documents\\daisytoolchain-0.3.1\\daisytoolchain-0.3.1\\windows\\arm-no
 6571              		.file 33 "c:\\users\\seanw\\documents\\daisytoolchain-0.3.1\\daisytoolchain-0.3.1\\windows\\arm-no
 6572              		.file 34 "c:\\users\\seanw\\documents\\daisytoolchain-0.3.1\\daisytoolchain-0.3.1\\windows\\arm-no
 6573              		.file 35 "c:\\users\\seanw\\documents\\daisytoolchain-0.3.1\\daisytoolchain-0.3.1\\windows\\arm-no
 6574              		.file 36 "c:\\users\\seanw\\documents\\daisytoolchain-0.3.1\\daisytoolchain-0.3.1\\windows\\arm-no
 6575              		.file 37 "c:\\users\\seanw\\documents\\daisytoolchain-0.3.1\\daisytoolchain-0.3.1\\windows\\arm-no
 6576              		.file 38 "c:\\users\\seanw\\documents\\daisytoolchain-0.3.1\\daisytoolchain-0.3.1\\windows\\arm-no
 6577              		.file 39 "c:\\users\\seanw\\documents\\daisytoolchain-0.3.1\\daisytoolchain-0.3.1\\windows\\arm-no
 6578              		.file 40 "c:\\users\\seanw\\documents\\daisytoolchain-0.3.1\\daisytoolchain-0.3.1\\windows\\arm-no
 6579              		.file 41 "c:\\users\\seanw\\documents\\daisytoolchain-0.3.1\\daisytoolchain-0.3.1\\windows\\arm-no
 6580              		.file 42 "c:\\users\\seanw\\documents\\daisytoolchain-0.3.1\\daisytoolchain-0.3.1\\windows\\arm-no
 6581              		.file 43 "c:\\users\\seanw\\documents\\daisytoolchain-0.3.1\\daisytoolchain-0.3.1\\windows\\arm-no
 6582              		.file 44 "c:\\users\\seanw\\documents\\daisytoolchain-0.3.1\\daisytoolchain-0.3.1\\windows\\arm-no
 6583              		.file 45 "c:\\users\\seanw\\documents\\daisytoolchain-0.3.1\\daisytoolchain-0.3.1\\windows\\arm-no
 6584              		.file 46 "c:\\users\\seanw\\documents\\daisytoolchain-0.3.1\\daisytoolchain-0.3.1\\windows\\arm-no
 6585              		.file 47 "c:\\users\\seanw\\documents\\daisytoolchain-0.3.1\\daisytoolchain-0.3.1\\windows\\arm-no
 6586              		.file 48 "c:\\users\\seanw\\documents\\daisytoolchain-0.3.1\\daisytoolchain-0.3.1\\windows\\arm-no
 6587              		.file 49 "c:\\users\\seanw\\documents\\daisytoolchain-0.3.1\\daisytoolchain-0.3.1\\windows\\arm-no
 6588              		.file 50 "c:\\users\\seanw\\documents\\daisytoolchain-0.3.1\\daisytoolchain-0.3.1\\windows\\arm-no
 6589              		.file 51 "c:\\users\\seanw\\documents\\daisytoolchain-0.3.1\\daisytoolchain-0.3.1\\windows\\arm-no
 6590              		.file 52 "c:\\users\\seanw\\documents\\daisytoolchain-0.3.1\\daisytoolchain-0.3.1\\windows\\arm-no
 6591              		.file 53 "../../DaisySP/Source/Control/adenv.h"
 6592              		.file 54 "c:\\users\\seanw\\documents\\daisytoolchain-0.3.1\\daisytoolchain-0.3.1\\windows\\lib\\g
 6593              		.file 55 "c:\\users\\seanw\\documents\\daisytoolchain-0.3.1\\daisytoolchain-0.3.1\\windows\\arm-no
 6594              		.file 56 "c:\\users\\seanw\\documents\\daisytoolchain-0.3.1\\daisytoolchain-0.3.1\\windows\\arm-no
 6595              		.file 57 "c:\\users\\seanw\\documents\\daisytoolchain-0.3.1\\daisytoolchain-0.3.1\\windows\\arm-no
 6596              		.file 58 "c:\\users\\seanw\\documents\\daisytoolchain-0.3.1\\daisytoolchain-0.3.1\\windows\\arm-no
 6597              		.file 59 "c:\\users\\seanw\\documents\\daisytoolchain-0.3.1\\daisytoolchain-0.3.1\\windows\\arm-no
 6598              		.file 60 "../../libDaisy/src/daisy_core.h"
 6599              		.file 61 "../../libDaisy/src/per/tim.h"
 6600              		.file 62 "../../libDaisy/src/per/sai.h"
 6601              		.file 63 "../../libDaisy/src/hid/MidiEvent.h"
 6602              		.file 64 "../../libDaisy/src/util/wav_format.h"
 6603              		.file 65 "../../libDaisy/src/util/color.h"
ARM GAS  C:\Users\seanw\AppData\Local\Temp\ccbivcrf.s 			page 171


 6604              		.file 66 "../../libDaisy/src/per/gpio.h"
 6605              		.file 67 "../../libDaisy/src/dev/sdram.h"
 6606              		.file 68 "../../libDaisy/src/dev/sr_595.h"
 6607              		.file 69 "<built-in>"
ARM GAS  C:\Users\seanw\AppData\Local\Temp\ccbivcrf.s 			page 172


DEFINED SYMBOLS
                            *ABS*:00000000 MultiEffect.cpp
C:\Users\seanw\AppData\Local\Temp\ccbivcrf.s:17     .text._ZN7daisysp6ChorusD2Ev:00000000 $t
C:\Users\seanw\AppData\Local\Temp\ccbivcrf.s:26     .text._ZN7daisysp6ChorusD2Ev:00000000 _ZN7daisysp6ChorusD2Ev
C:\Users\seanw\AppData\Local\Temp\ccbivcrf.s:26     .text._ZN7daisysp6ChorusD2Ev:00000000 _ZN7daisysp6ChorusD1Ev
C:\Users\seanw\AppData\Local\Temp\ccbivcrf.s:43     .text._ZN7daisysp6PhaserD2Ev:00000000 $t
C:\Users\seanw\AppData\Local\Temp\ccbivcrf.s:51     .text._ZN7daisysp6PhaserD2Ev:00000000 _ZN7daisysp6PhaserD2Ev
C:\Users\seanw\AppData\Local\Temp\ccbivcrf.s:51     .text._ZN7daisysp6PhaserD2Ev:00000000 _ZN7daisysp6PhaserD1Ev
C:\Users\seanw\AppData\Local\Temp\ccbivcrf.s:68     .text._ZN7daisysp12PitchShifterD2Ev:00000000 $t
C:\Users\seanw\AppData\Local\Temp\ccbivcrf.s:76     .text._ZN7daisysp12PitchShifterD2Ev:00000000 _ZN7daisysp12PitchShifterD2Ev
C:\Users\seanw\AppData\Local\Temp\ccbivcrf.s:76     .text._ZN7daisysp12PitchShifterD2Ev:00000000 _ZN7daisysp12PitchShifterD1Ev
C:\Users\seanw\AppData\Local\Temp\ccbivcrf.s:93     .text._ZN5daisy9ParameterD2Ev:00000000 $t
C:\Users\seanw\AppData\Local\Temp\ccbivcrf.s:101    .text._ZN5daisy9ParameterD2Ev:00000000 _ZN5daisy9ParameterD2Ev
C:\Users\seanw\AppData\Local\Temp\ccbivcrf.s:101    .text._ZN5daisy9ParameterD2Ev:00000000 _ZN5daisy9ParameterD1Ev
C:\Users\seanw\AppData\Local\Temp\ccbivcrf.s:124    .text._ZN5daisy8DaisyPodD2Ev:00000000 $t
C:\Users\seanw\AppData\Local\Temp\ccbivcrf.s:132    .text._ZN5daisy8DaisyPodD2Ev:00000000 _ZN5daisy8DaisyPodD2Ev
C:\Users\seanw\AppData\Local\Temp\ccbivcrf.s:132    .text._ZN5daisy8DaisyPodD2Ev:00000000 _ZN5daisy8DaisyPodD1Ev
C:\Users\seanw\AppData\Local\Temp\ccbivcrf.s:259    .text._ZN7daisysp9DelayLineIfLj120000EED2Ev:00000000 $t
C:\Users\seanw\AppData\Local\Temp\ccbivcrf.s:267    .text._ZN7daisysp9DelayLineIfLj120000EED2Ev:00000000 _ZN7daisysp9DelayLineIfLj120000EED2Ev
C:\Users\seanw\AppData\Local\Temp\ccbivcrf.s:267    .text._ZN7daisysp9DelayLineIfLj120000EED2Ev:00000000 _ZN7daisysp9DelayLineIfLj120000EED1Ev
C:\Users\seanw\AppData\Local\Temp\ccbivcrf.s:284    .text._ZN7daisysp12PitchShifter16SetTranspositionERKf.isra.0:00000000 $t
C:\Users\seanw\AppData\Local\Temp\ccbivcrf.s:291    .text._ZN7daisysp12PitchShifter16SetTranspositionERKf.isra.0:00000000 _ZN7daisysp12PitchShifter16SetTranspositionERKf.isra.0
C:\Users\seanw\AppData\Local\Temp\ccbivcrf.s:446    .text._ZN7daisysp12PitchShifter16SetTranspositionERKf.isra.0:000000e4 $d
C:\Users\seanw\AppData\Local\Temp\ccbivcrf.s:454    .text._ZN7daisysp12PitchShifter7ProcessERf:00000000 $t
C:\Users\seanw\AppData\Local\Temp\ccbivcrf.s:462    .text._ZN7daisysp12PitchShifter7ProcessERf:00000000 _ZN7daisysp12PitchShifter7ProcessERf
C:\Users\seanw\AppData\Local\Temp\ccbivcrf.s:1250   .text._ZN7daisysp12PitchShifter7ProcessERf:000002a4 $d
C:\Users\seanw\AppData\Local\Temp\ccbivcrf.s:6399   .data._ZZN7daisysp6myrandEvE4seed:00000000 _ZZN7daisysp6myrandEvE4seed
C:\Users\seanw\AppData\Local\Temp\ccbivcrf.s:1263   .text.startup.main:00000000 $t
C:\Users\seanw\AppData\Local\Temp\ccbivcrf.s:1271   .text.startup.main:00000000 main
C:\Users\seanw\AppData\Local\Temp\ccbivcrf.s:2319   .text.startup.main:00000370 $d
C:\Users\seanw\AppData\Local\Temp\ccbivcrf.s:6421   .bss._ZL3pod:00000000 _ZL3pod
C:\Users\seanw\AppData\Local\Temp\ccbivcrf.s:6547   .sdram_bss:00000000 _ZL5delr2
C:\Users\seanw\AppData\Local\Temp\ccbivcrf.s:6433   .bss._ZL3pst:00000000 _ZL3pst
C:\Users\seanw\AppData\Local\Temp\ccbivcrf.s:6559   .sdram_bss:0015f924 _ZL4dell
C:\Users\seanw\AppData\Local\Temp\ccbivcrf.s:6415   .bss._ZL3crs:00000000 _ZL3crs
C:\Users\seanw\AppData\Local\Temp\ccbivcrf.s:6439   .bss._ZL4crs2:00000000 _ZL4crs2
C:\Users\seanw\AppData\Local\Temp\ccbivcrf.s:6445   .bss._ZL4crs3:00000000 _ZL4crs3
C:\Users\seanw\AppData\Local\Temp\ccbivcrf.s:6451   .bss._ZL4crs4:00000000 _ZL4crs4
C:\Users\seanw\AppData\Local\Temp\ccbivcrf.s:6427   .bss._ZL3psr:00000000 _ZL3psr
C:\Users\seanw\AppData\Local\Temp\ccbivcrf.s:6457   .bss._ZL4psr2:00000000 _ZL4psr2
C:\Users\seanw\AppData\Local\Temp\ccbivcrf.s:5593   .text._Z13AudioCallbackPKfPfj:00000000 _Z13AudioCallbackPKfPfj
C:\Users\seanw\AppData\Local\Temp\ccbivcrf.s:6555   .sdram_bss:000ea618 _ZL4delr
C:\Users\seanw\AppData\Local\Temp\ccbivcrf.s:6551   .sdram_bss:0007530c _ZL5dell2
C:\Users\seanw\AppData\Local\Temp\ccbivcrf.s:2371   .text.startup.main:00000428 $t
C:\Users\seanw\AppData\Local\Temp\ccbivcrf.s:2376   .text._Z11UpdateKnobsRfS_:00000000 $t
C:\Users\seanw\AppData\Local\Temp\ccbivcrf.s:2384   .text._Z11UpdateKnobsRfS_:00000000 _Z11UpdateKnobsRfS_
C:\Users\seanw\AppData\Local\Temp\ccbivcrf.s:2430   .text._Z11UpdateKnobsRfS_:0000002a $d
C:\Users\seanw\AppData\Local\Temp\ccbivcrf.s:2672   .text._Z11UpdateKnobsRfS_:00000178 $d
C:\Users\seanw\AppData\Local\Temp\ccbivcrf.s:2698   .text._Z13UpdateEncoderv:00000000 $t
C:\Users\seanw\AppData\Local\Temp\ccbivcrf.s:2706   .text._Z13UpdateEncoderv:00000000 _Z13UpdateEncoderv
C:\Users\seanw\AppData\Local\Temp\ccbivcrf.s:2768   .text._Z13UpdateEncoderv:00000038 $d
C:\Users\seanw\AppData\Local\Temp\ccbivcrf.s:2776   .text._Z10UpdateLedsff:00000000 $t
C:\Users\seanw\AppData\Local\Temp\ccbivcrf.s:2784   .text._Z10UpdateLedsff:00000000 _Z10UpdateLedsff
C:\Users\seanw\AppData\Local\Temp\ccbivcrf.s:2911   .text._Z10UpdateLedsff:000000a4 $d
C:\Users\seanw\AppData\Local\Temp\ccbivcrf.s:2920   .text._Z8Controlsv:00000000 $t
C:\Users\seanw\AppData\Local\Temp\ccbivcrf.s:2928   .text._Z8Controlsv:00000000 _Z8Controlsv
C:\Users\seanw\AppData\Local\Temp\ccbivcrf.s:3050   .text._Z8Controlsv:00000068 $d
ARM GAS  C:\Users\seanw\AppData\Local\Temp\ccbivcrf.s 			page 173


C:\Users\seanw\AppData\Local\Temp\ccbivcrf.s:3061   .text._Z15GetReverbSampleRfS_ff:00000000 $t
C:\Users\seanw\AppData\Local\Temp\ccbivcrf.s:3069   .text._Z15GetReverbSampleRfS_ff:00000000 _Z15GetReverbSampleRfS_ff
C:\Users\seanw\AppData\Local\Temp\ccbivcrf.s:4022   .text._Z15GetReverbSampleRfS_ff:0000032c $d
C:\Users\seanw\AppData\Local\Temp\ccbivcrf.s:4044   .text._Z14GetDelaySampleRfS_ff:00000000 $t
C:\Users\seanw\AppData\Local\Temp\ccbivcrf.s:4052   .text._Z14GetDelaySampleRfS_ff:00000000 _Z14GetDelaySampleRfS_ff
C:\Users\seanw\AppData\Local\Temp\ccbivcrf.s:4871   .text._Z14GetDelaySampleRfS_ff:00000258 $d
C:\Users\seanw\AppData\Local\Temp\ccbivcrf.s:4887   .text._Z15GetChorusSampleRfS_ff:00000000 $t
C:\Users\seanw\AppData\Local\Temp\ccbivcrf.s:4895   .text._Z15GetChorusSampleRfS_ff:00000000 _Z15GetChorusSampleRfS_ff
C:\Users\seanw\AppData\Local\Temp\ccbivcrf.s:5061   .text._Z15GetChorusSampleRfS_ff:000000e0 $d
C:\Users\seanw\AppData\Local\Temp\ccbivcrf.s:5070   .text._Z15GetPhaserSampleRfS_ff:00000000 $t
C:\Users\seanw\AppData\Local\Temp\ccbivcrf.s:5078   .text._Z15GetPhaserSampleRfS_ff:00000000 _Z15GetPhaserSampleRfS_ff
C:\Users\seanw\AppData\Local\Temp\ccbivcrf.s:5410   .text._Z15GetPhaserSampleRfS_ff:00000170 $d
C:\Users\seanw\AppData\Local\Temp\ccbivcrf.s:5430   .text._Z15GetOctaveSampleRfS_ff:00000000 $t
C:\Users\seanw\AppData\Local\Temp\ccbivcrf.s:5438   .text._Z15GetOctaveSampleRfS_ff:00000000 _Z15GetOctaveSampleRfS_ff
C:\Users\seanw\AppData\Local\Temp\ccbivcrf.s:5576   .text._Z15GetOctaveSampleRfS_ff:000000c0 $d
C:\Users\seanw\AppData\Local\Temp\ccbivcrf.s:5585   .text._Z13AudioCallbackPKfPfj:00000000 $t
C:\Users\seanw\AppData\Local\Temp\ccbivcrf.s:5646   .text._Z13AudioCallbackPKfPfj:00000030 $d
C:\Users\seanw\AppData\Local\Temp\ccbivcrf.s:5776   .text._Z13AudioCallbackPKfPfj:000000a0 $d
C:\Users\seanw\AppData\Local\Temp\ccbivcrf.s:5782   .text.startup._GLOBAL__sub_I_mode:00000000 $t
C:\Users\seanw\AppData\Local\Temp\ccbivcrf.s:5789   .text.startup._GLOBAL__sub_I_mode:00000000 _GLOBAL__sub_I_mode
C:\Users\seanw\AppData\Local\Temp\ccbivcrf.s:6353   .text.startup._GLOBAL__sub_I_mode:000000cc $d
C:\Users\seanw\AppData\Local\Temp\ccbivcrf.s:6381   .init_array:00000000 $d
C:\Users\seanw\AppData\Local\Temp\ccbivcrf.s:6485   .bss.drywet:00000000 drywet
C:\Users\seanw\AppData\Local\Temp\ccbivcrf.s:6513   .bss.lfo:00000000 lfo
C:\Users\seanw\AppData\Local\Temp\ccbivcrf.s:6520   .bss.lfotarget:00000000 lfotarget
C:\Users\seanw\AppData\Local\Temp\ccbivcrf.s:6506   .bss.freqtarget:00000000 freqtarget
C:\Users\seanw\AppData\Local\Temp\ccbivcrf.s:6499   .bss.freq:00000000 freq
C:\Users\seanw\AppData\Local\Temp\ccbivcrf.s:6478   .bss.delayTarget:00000000 delayTarget
C:\Users\seanw\AppData\Local\Temp\ccbivcrf.s:6492   .bss.feedback:00000000 feedback
C:\Users\seanw\AppData\Local\Temp\ccbivcrf.s:6471   .bss.currentDelay:00000000 currentDelay
C:\Users\seanw\AppData\Local\Temp\ccbivcrf.s:6541   .bss.octDelSize:00000000 octDelSize
C:\Users\seanw\AppData\Local\Temp\ccbivcrf.s:6534   .bss.numstages:00000000 numstages
C:\Users\seanw\AppData\Local\Temp\ccbivcrf.s:6527   .bss.mode:00000000 mode
C:\Users\seanw\AppData\Local\Temp\ccbivcrf.s:6396   .data._ZZN7daisysp6myrandEvE4seed:00000000 $d
C:\Users\seanw\AppData\Local\Temp\ccbivcrf.s:6402   .rodata:00000000 $d
C:\Users\seanw\AppData\Local\Temp\ccbivcrf.s:6412   .bss._ZL3crs:00000000 $d
C:\Users\seanw\AppData\Local\Temp\ccbivcrf.s:6418   .bss._ZL3pod:00000000 $d
C:\Users\seanw\AppData\Local\Temp\ccbivcrf.s:6424   .bss._ZL3psr:00000000 $d
C:\Users\seanw\AppData\Local\Temp\ccbivcrf.s:6430   .bss._ZL3pst:00000000 $d
C:\Users\seanw\AppData\Local\Temp\ccbivcrf.s:6436   .bss._ZL4crs2:00000000 $d
C:\Users\seanw\AppData\Local\Temp\ccbivcrf.s:6442   .bss._ZL4crs3:00000000 $d
C:\Users\seanw\AppData\Local\Temp\ccbivcrf.s:6448   .bss._ZL4crs4:00000000 $d
C:\Users\seanw\AppData\Local\Temp\ccbivcrf.s:6454   .bss._ZL4psr2:00000000 $d
C:\Users\seanw\AppData\Local\Temp\ccbivcrf.s:6460   .bss._ZL7deltime:00000000 $d
C:\Users\seanw\AppData\Local\Temp\ccbivcrf.s:6464   .bss._ZL7deltime:00000000 _ZL7deltime
C:\Users\seanw\AppData\Local\Temp\ccbivcrf.s:6467   .bss.currentDelay:00000000 $d
C:\Users\seanw\AppData\Local\Temp\ccbivcrf.s:6474   .bss.delayTarget:00000000 $d
C:\Users\seanw\AppData\Local\Temp\ccbivcrf.s:6481   .bss.drywet:00000000 $d
C:\Users\seanw\AppData\Local\Temp\ccbivcrf.s:6488   .bss.feedback:00000000 $d
C:\Users\seanw\AppData\Local\Temp\ccbivcrf.s:6495   .bss.freq:00000000 $d
C:\Users\seanw\AppData\Local\Temp\ccbivcrf.s:6502   .bss.freqtarget:00000000 $d
C:\Users\seanw\AppData\Local\Temp\ccbivcrf.s:6509   .bss.lfo:00000000 $d
C:\Users\seanw\AppData\Local\Temp\ccbivcrf.s:6516   .bss.lfotarget:00000000 $d
C:\Users\seanw\AppData\Local\Temp\ccbivcrf.s:6523   .bss.mode:00000000 $d
C:\Users\seanw\AppData\Local\Temp\ccbivcrf.s:6530   .bss.numstages:00000000 $d
C:\Users\seanw\AppData\Local\Temp\ccbivcrf.s:6537   .bss.octDelSize:00000000 $d
C:\Users\seanw\AppData\Local\Temp\ccbivcrf.s:6544   .sdram_bss:00000000 $d
ARM GAS  C:\Users\seanw\AppData\Local\Temp\ccbivcrf.s 			page 174


C:\Users\seanw\AppData\Local\Temp\ccbivcrf.s:2435   .text._Z11UpdateKnobsRfS_:0000002f $d
C:\Users\seanw\AppData\Local\Temp\ccbivcrf.s:2435   .text._Z11UpdateKnobsRfS_:00000030 $t
C:\Users\seanw\AppData\Local\Temp\ccbivcrf.s:5651   .text._Z13AudioCallbackPKfPfj:00000035 $d
C:\Users\seanw\AppData\Local\Temp\ccbivcrf.s:5651   .text._Z13AudioCallbackPKfPfj:00000036 $t
                           .group:00000000 _ZN7daisysp6ChorusD5Ev
                           .group:00000000 _ZN7daisysp6PhaserD5Ev
                           .group:00000000 _ZN7daisysp12PitchShifterD5Ev
                           .group:00000000 _ZN5daisy9ParameterD5Ev
                           .group:00000000 _ZN5daisy8DaisyPodD5Ev
                           .group:00000000 _ZN7daisysp9DelayLineIfLj120000EED5Ev

UNDEFINED SYMBOLS
_ZN7daisysp6Phasor7SetFreqEf
_ZN7daisysp6Phasor7ProcessEv
sinf
_ZN5daisy8DaisyPod4InitEb
_ZN5daisy8DaisyPod15AudioSampleRateEv
memset
_ZN7daisysp6Chorus4InitEf
_ZN7daisysp6Phaser4InitEf
powf
_ZN5daisy9Parameter4InitENS_13AnalogControlEffNS0_5CurveE
_ZN7daisysp6Chorus11SetFeedbackEf
_ZN7daisysp6Chorus8SetDelayEf
_ZN7daisysp6Phaser8SetPolesEi
_ZN5daisy8DaisyPod8StartAdcEv
_ZN5daisy8DaisyPod10StartAudioEPFvPKfPfjE
_ZN5daisy13AnalogControl7ProcessEv
_ZN5daisy9Parameter7ProcessEv
_ZN7daisysp6Chorus11SetLfoDepthEf
_ZN7daisysp6Chorus10SetLfoFreqEf
_ZN5daisy6RgbLed3SetEfff
_ZN5daisy8DaisyPod10UpdateLedsEv
_ZN5daisy8DaisyPod21ProcessAnalogControlsEv
_ZN5daisy8DaisyPod22ProcessDigitalControlsEv
_ZN7daisysp6Chorus7ProcessEf
_ZN7daisysp6Chorus7GetLeftEv
_ZN7daisysp6Chorus8GetRightEv
_ZN7daisysp6Phaser7SetFreqEf
_ZN7daisysp6Phaser11SetLfoDepthEf
_ZN7daisysp6Phaser11SetFeedbackEf
_ZN7daisysp6Phaser10SetLfoFreqEf
_ZN7daisysp6Phaser7ProcessEf
__aeabi_atexit
__dso_handle
