ARM GAS  C:\Users\seanw\AppData\Local\Temp\ccbivcrf.s 			page 1


   1              		.cpu cortex-m7
   2              		.eabi_attribute 28, 1
   3              		.eabi_attribute 20, 1
   4              		.eabi_attribute 21, 1
   5              		.eabi_attribute 23, 3
   6              		.eabi_attribute 24, 1
   7              		.eabi_attribute 25, 1
   8              		.eabi_attribute 26, 1
   9              		.eabi_attribute 30, 2
  10              		.eabi_attribute 34, 1
  11              		.eabi_attribute 18, 4
  12              		.file	"MultiEffect.cpp"
  13              		.text
  14              	.Ltext0:
  15              		.cfi_sections	.debug_frame
  16              		.section	.text._ZN7daisysp6ChorusD2Ev,"axG",%progbits,_ZN7daisysp6ChorusD5Ev,comdat
  17              		.align	1
  18              		.p2align 2,,3
  19              		.weak	_ZN7daisysp6ChorusD2Ev
  20              		.arch armv7e-m
  21              		.syntax unified
  22              		.thumb
  23              		.thumb_func
  24              		.fpu fpv5-d16
  26              	_ZN7daisysp6ChorusD2Ev:
  27              	.LVL0:
  28              	.LFB3003:
  29              		.file 1 "../../DaisySP/Source/Effects/chorus.h"
   1:../../DaisySP/Source/Effects/chorus.h **** #pragma once
   2:../../DaisySP/Source/Effects/chorus.h **** #ifndef DSY_CHORUS_H
   3:../../DaisySP/Source/Effects/chorus.h **** #define DSY_CHORUS_H
   4:../../DaisySP/Source/Effects/chorus.h **** #ifdef __cplusplus
   5:../../DaisySP/Source/Effects/chorus.h **** 
   6:../../DaisySP/Source/Effects/chorus.h **** #include <stdint.h>
   7:../../DaisySP/Source/Effects/chorus.h **** #include "Utility/delayline.h"
   8:../../DaisySP/Source/Effects/chorus.h **** 
   9:../../DaisySP/Source/Effects/chorus.h **** /** @file chorus.h */
  10:../../DaisySP/Source/Effects/chorus.h **** 
  11:../../DaisySP/Source/Effects/chorus.h **** namespace daisysp
  12:../../DaisySP/Source/Effects/chorus.h **** {
  13:../../DaisySP/Source/Effects/chorus.h **** /**  
  14:../../DaisySP/Source/Effects/chorus.h ****     @brief Single Chorus engine. Used in Chorus.
  15:../../DaisySP/Source/Effects/chorus.h ****     @author Ben Sergentanis
  16:../../DaisySP/Source/Effects/chorus.h **** */
  17:../../DaisySP/Source/Effects/chorus.h **** class ChorusEngine
  18:../../DaisySP/Source/Effects/chorus.h **** {
  19:../../DaisySP/Source/Effects/chorus.h ****   public:
  20:../../DaisySP/Source/Effects/chorus.h ****     ChorusEngine() {}
  21:../../DaisySP/Source/Effects/chorus.h ****     ~ChorusEngine() {}
  22:../../DaisySP/Source/Effects/chorus.h **** 
  23:../../DaisySP/Source/Effects/chorus.h ****     /** Initialize the module
  24:../../DaisySP/Source/Effects/chorus.h ****         \param sample_rate Audio engine sample rate.
  25:../../DaisySP/Source/Effects/chorus.h ****     */
  26:../../DaisySP/Source/Effects/chorus.h ****     void Init(float sample_rate);
  27:../../DaisySP/Source/Effects/chorus.h **** 
  28:../../DaisySP/Source/Effects/chorus.h ****     /** Get the next sample
  29:../../DaisySP/Source/Effects/chorus.h ****         \param in Sample to process
ARM GAS  C:\Users\seanw\AppData\Local\Temp\ccbivcrf.s 			page 2


  30:../../DaisySP/Source/Effects/chorus.h ****     */
  31:../../DaisySP/Source/Effects/chorus.h ****     float Process(float in);
  32:../../DaisySP/Source/Effects/chorus.h **** 
  33:../../DaisySP/Source/Effects/chorus.h ****     /** How much to modulate the delay by.
  34:../../DaisySP/Source/Effects/chorus.h ****         \param depth Works 0-1.
  35:../../DaisySP/Source/Effects/chorus.h ****     */
  36:../../DaisySP/Source/Effects/chorus.h ****     void SetLfoDepth(float depth);
  37:../../DaisySP/Source/Effects/chorus.h **** 
  38:../../DaisySP/Source/Effects/chorus.h ****     /** Set lfo frequency.
  39:../../DaisySP/Source/Effects/chorus.h ****         \param freq Frequency in Hz
  40:../../DaisySP/Source/Effects/chorus.h ****     */
  41:../../DaisySP/Source/Effects/chorus.h ****     void SetLfoFreq(float freq);
  42:../../DaisySP/Source/Effects/chorus.h **** 
  43:../../DaisySP/Source/Effects/chorus.h ****     /** Set the internal delay rate. 
  44:../../DaisySP/Source/Effects/chorus.h ****         \param delay Tuned for 0-1. Maps to .1 to 50 ms.
  45:../../DaisySP/Source/Effects/chorus.h ****     */
  46:../../DaisySP/Source/Effects/chorus.h ****     void SetDelay(float delay);
  47:../../DaisySP/Source/Effects/chorus.h **** 
  48:../../DaisySP/Source/Effects/chorus.h ****     /** Set the delay time in ms.
  49:../../DaisySP/Source/Effects/chorus.h ****         \param ms Delay time in ms, 0 to 50 ms.
  50:../../DaisySP/Source/Effects/chorus.h ****     */
  51:../../DaisySP/Source/Effects/chorus.h ****     void SetDelayMs(float ms);
  52:../../DaisySP/Source/Effects/chorus.h **** 
  53:../../DaisySP/Source/Effects/chorus.h ****     /** Set the feedback amount.
  54:../../DaisySP/Source/Effects/chorus.h ****         \param feedback Amount from 0-1.
  55:../../DaisySP/Source/Effects/chorus.h ****     */
  56:../../DaisySP/Source/Effects/chorus.h ****     void SetFeedback(float feedback);
  57:../../DaisySP/Source/Effects/chorus.h **** 
  58:../../DaisySP/Source/Effects/chorus.h ****   private:
  59:../../DaisySP/Source/Effects/chorus.h ****     float                    sample_rate_;
  60:../../DaisySP/Source/Effects/chorus.h ****     static constexpr int32_t kDelayLength
  61:../../DaisySP/Source/Effects/chorus.h ****         = 2400; // 50 ms at 48kHz = .05 * 48000
  62:../../DaisySP/Source/Effects/chorus.h **** 
  63:../../DaisySP/Source/Effects/chorus.h ****     //triangle lfos
  64:../../DaisySP/Source/Effects/chorus.h ****     float lfo_phase_;
  65:../../DaisySP/Source/Effects/chorus.h ****     float lfo_freq_;
  66:../../DaisySP/Source/Effects/chorus.h ****     float lfo_amp_;
  67:../../DaisySP/Source/Effects/chorus.h **** 
  68:../../DaisySP/Source/Effects/chorus.h ****     float feedback_;
  69:../../DaisySP/Source/Effects/chorus.h **** 
  70:../../DaisySP/Source/Effects/chorus.h ****     float delay_;
  71:../../DaisySP/Source/Effects/chorus.h **** 
  72:../../DaisySP/Source/Effects/chorus.h ****     DelayLine<float, kDelayLength> del_;
  73:../../DaisySP/Source/Effects/chorus.h **** 
  74:../../DaisySP/Source/Effects/chorus.h ****     float ProcessLfo();
  75:../../DaisySP/Source/Effects/chorus.h **** };
  76:../../DaisySP/Source/Effects/chorus.h **** 
  77:../../DaisySP/Source/Effects/chorus.h **** //wraps up all of the chorus engines
  78:../../DaisySP/Source/Effects/chorus.h **** /**  
  79:../../DaisySP/Source/Effects/chorus.h ****     @brief Chorus Effect.
  80:../../DaisySP/Source/Effects/chorus.h ****     @author Ben Sergentanis
  81:../../DaisySP/Source/Effects/chorus.h ****     @date Jan 2021
  82:../../DaisySP/Source/Effects/chorus.h ****     Based on https://www.izotope.com/en/learn/understanding-chorus-flangers-and-phasers-in-audio-pr
  83:../../DaisySP/Source/Effects/chorus.h ****     and https://www.researchgate.net/publication/236629475_Implementing_Professional_Audio_Effects_
  84:../../DaisySP/Source/Effects/chorus.h **** */
  85:../../DaisySP/Source/Effects/chorus.h **** class Chorus
  86:../../DaisySP/Source/Effects/chorus.h **** {
ARM GAS  C:\Users\seanw\AppData\Local\Temp\ccbivcrf.s 			page 3


  87:../../DaisySP/Source/Effects/chorus.h ****   public:
  88:../../DaisySP/Source/Effects/chorus.h ****     Chorus() {}
  89:../../DaisySP/Source/Effects/chorus.h ****     ~Chorus() {}
  30              		.loc 1 89 5 view -0
  31              		.cfi_startproc
  32              		@ args = 0, pretend = 0, frame = 0
  33              		@ frame_needed = 0, uses_anonymous_args = 0
  34              		@ link register save eliminated.
  35              		.loc 1 89 16 is_stmt 0 view .LVU1
  36 0000 7047     		bx	lr
  37              		.cfi_endproc
  38              	.LFE3003:
  40              		.weak	_ZN7daisysp6ChorusD1Ev
  41              		.thumb_set _ZN7daisysp6ChorusD1Ev,_ZN7daisysp6ChorusD2Ev
  42 0002 00BF     		.section	.text._ZN7daisysp6PhaserD2Ev,"axG",%progbits,_ZN7daisysp6PhaserD5Ev,comdat
  43              		.align	1
  44              		.p2align 2,,3
  45              		.weak	_ZN7daisysp6PhaserD2Ev
  46              		.syntax unified
  47              		.thumb
  48              		.thumb_func
  49              		.fpu fpv5-d16
  51              	_ZN7daisysp6PhaserD2Ev:
  52              	.LVL1:
  53              	.LFB3047:
  54              		.file 2 "../../DaisySP/Source/Effects/phaser.h"
   1:../../DaisySP/Source/Effects/phaser.h **** #pragma once
   2:../../DaisySP/Source/Effects/phaser.h **** #ifndef DSY_PHASER_H
   3:../../DaisySP/Source/Effects/phaser.h **** #define DSY_PHASER_H
   4:../../DaisySP/Source/Effects/phaser.h **** #ifdef __cplusplus
   5:../../DaisySP/Source/Effects/phaser.h **** 
   6:../../DaisySP/Source/Effects/phaser.h **** #include <stdint.h>
   7:../../DaisySP/Source/Effects/phaser.h **** #include "Utility/delayline.h"
   8:../../DaisySP/Source/Effects/phaser.h **** 
   9:../../DaisySP/Source/Effects/phaser.h **** /** @file phaser.h */
  10:../../DaisySP/Source/Effects/phaser.h **** 
  11:../../DaisySP/Source/Effects/phaser.h **** namespace daisysp
  12:../../DaisySP/Source/Effects/phaser.h **** {
  13:../../DaisySP/Source/Effects/phaser.h **** /**  
  14:../../DaisySP/Source/Effects/phaser.h ****     @brief Single Phaser engine. Used in Phaser.
  15:../../DaisySP/Source/Effects/phaser.h ****     @author Ben Sergentanis
  16:../../DaisySP/Source/Effects/phaser.h **** */
  17:../../DaisySP/Source/Effects/phaser.h **** class PhaserEngine
  18:../../DaisySP/Source/Effects/phaser.h **** {
  19:../../DaisySP/Source/Effects/phaser.h ****   public:
  20:../../DaisySP/Source/Effects/phaser.h ****     PhaserEngine() {}
  21:../../DaisySP/Source/Effects/phaser.h ****     ~PhaserEngine() {}
  22:../../DaisySP/Source/Effects/phaser.h **** 
  23:../../DaisySP/Source/Effects/phaser.h ****     /** Initialize the module
  24:../../DaisySP/Source/Effects/phaser.h ****         \param sample_rate Audio engine sample rate.
  25:../../DaisySP/Source/Effects/phaser.h ****     */
  26:../../DaisySP/Source/Effects/phaser.h ****     void Init(float sample_rate);
  27:../../DaisySP/Source/Effects/phaser.h **** 
  28:../../DaisySP/Source/Effects/phaser.h ****     /** Get the next sample
  29:../../DaisySP/Source/Effects/phaser.h ****         \param in Sample to process
  30:../../DaisySP/Source/Effects/phaser.h ****     */
  31:../../DaisySP/Source/Effects/phaser.h ****     float Process(float in);
ARM GAS  C:\Users\seanw\AppData\Local\Temp\ccbivcrf.s 			page 4


  32:../../DaisySP/Source/Effects/phaser.h **** 
  33:../../DaisySP/Source/Effects/phaser.h ****     /** How much to modulate the allpass filter by.
  34:../../DaisySP/Source/Effects/phaser.h ****         \param depth Works 0-1.
  35:../../DaisySP/Source/Effects/phaser.h ****     */
  36:../../DaisySP/Source/Effects/phaser.h ****     void SetLfoDepth(float depth);
  37:../../DaisySP/Source/Effects/phaser.h **** 
  38:../../DaisySP/Source/Effects/phaser.h ****     /** Set lfo frequency.
  39:../../DaisySP/Source/Effects/phaser.h ****         \param lfo_freq Frequency in Hz
  40:../../DaisySP/Source/Effects/phaser.h ****     */
  41:../../DaisySP/Source/Effects/phaser.h ****     void SetLfoFreq(float lfo_freq);
  42:../../DaisySP/Source/Effects/phaser.h **** 
  43:../../DaisySP/Source/Effects/phaser.h ****     /** Set the allpass frequency
  44:../../DaisySP/Source/Effects/phaser.h ****         \param ap_freq Frequency in Hz.
  45:../../DaisySP/Source/Effects/phaser.h ****     */
  46:../../DaisySP/Source/Effects/phaser.h ****     void SetFreq(float ap_freq);
  47:../../DaisySP/Source/Effects/phaser.h **** 
  48:../../DaisySP/Source/Effects/phaser.h ****     /** Set the feedback amount.
  49:../../DaisySP/Source/Effects/phaser.h ****         \param feedback Amount from 0-1.
  50:../../DaisySP/Source/Effects/phaser.h ****     */
  51:../../DaisySP/Source/Effects/phaser.h ****     void SetFeedback(float feedback);
  52:../../DaisySP/Source/Effects/phaser.h **** 
  53:../../DaisySP/Source/Effects/phaser.h ****   private:
  54:../../DaisySP/Source/Effects/phaser.h ****     float                    sample_rate_;
  55:../../DaisySP/Source/Effects/phaser.h ****     static constexpr int32_t kDelayLength
  56:../../DaisySP/Source/Effects/phaser.h ****         = 2400; // 50 ms at 48kHz = .05 * 48000
  57:../../DaisySP/Source/Effects/phaser.h **** 
  58:../../DaisySP/Source/Effects/phaser.h ****     //triangle lfo
  59:../../DaisySP/Source/Effects/phaser.h ****     float lfo_phase_;
  60:../../DaisySP/Source/Effects/phaser.h ****     float lfo_freq_;
  61:../../DaisySP/Source/Effects/phaser.h ****     float lfo_amp_;
  62:../../DaisySP/Source/Effects/phaser.h **** 
  63:../../DaisySP/Source/Effects/phaser.h ****     float os_;
  64:../../DaisySP/Source/Effects/phaser.h **** 
  65:../../DaisySP/Source/Effects/phaser.h ****     float feedback_;
  66:../../DaisySP/Source/Effects/phaser.h ****     float ap_freq_;
  67:../../DaisySP/Source/Effects/phaser.h **** 
  68:../../DaisySP/Source/Effects/phaser.h ****     float deltime_;
  69:../../DaisySP/Source/Effects/phaser.h ****     float last_sample_;
  70:../../DaisySP/Source/Effects/phaser.h **** 
  71:../../DaisySP/Source/Effects/phaser.h ****     DelayLine<float, kDelayLength> del_;
  72:../../DaisySP/Source/Effects/phaser.h **** 
  73:../../DaisySP/Source/Effects/phaser.h ****     float ProcessLfo();
  74:../../DaisySP/Source/Effects/phaser.h **** };
  75:../../DaisySP/Source/Effects/phaser.h **** 
  76:../../DaisySP/Source/Effects/phaser.h **** //wraps up all of the phaser engines
  77:../../DaisySP/Source/Effects/phaser.h **** /**  
  78:../../DaisySP/Source/Effects/phaser.h ****     @brief Phaser Effect.
  79:../../DaisySP/Source/Effects/phaser.h ****     @author Ben Sergentanis
  80:../../DaisySP/Source/Effects/phaser.h ****     @date Jan 2021
  81:../../DaisySP/Source/Effects/phaser.h **** */
  82:../../DaisySP/Source/Effects/phaser.h **** class Phaser
  83:../../DaisySP/Source/Effects/phaser.h **** {
  84:../../DaisySP/Source/Effects/phaser.h ****   public:
  85:../../DaisySP/Source/Effects/phaser.h ****     Phaser() {}
  86:../../DaisySP/Source/Effects/phaser.h ****     ~Phaser() {}
  55              		.loc 2 86 5 is_stmt 1 view -0
  56              		.cfi_startproc
ARM GAS  C:\Users\seanw\AppData\Local\Temp\ccbivcrf.s 			page 5


  57              		@ args = 0, pretend = 0, frame = 0
  58              		@ frame_needed = 0, uses_anonymous_args = 0
  59              		@ link register save eliminated.
  60              		.loc 2 86 16 is_stmt 0 view .LVU3
  61 0000 7047     		bx	lr
  62              		.cfi_endproc
  63              	.LFE3047:
  65              		.weak	_ZN7daisysp6PhaserD1Ev
  66              		.thumb_set _ZN7daisysp6PhaserD1Ev,_ZN7daisysp6PhaserD2Ev
  67              		.section	.text._ZN7daisysp12PitchShifterD2Ev,"axG",%progbits,_ZN7daisysp12PitchShifterD5Ev,comdat
  68              		.align	1
  69              		.p2align 2,,3
  70              		.weak	_ZN7daisysp12PitchShifterD2Ev
  71              		.syntax unified
  72              		.thumb
  73              		.thumb_func
  74              		.fpu fpv5-d16
  76              	_ZN7daisysp12PitchShifterD2Ev:
  77              	.LVL2:
  78              	.LFB3055:
  79              		.file 3 "../../DaisySP/Source/Effects/pitchshifter.h"
   1:../../DaisySP/Source/Effects/pitchshifter.h **** #pragma once
   2:../../DaisySP/Source/Effects/pitchshifter.h **** #ifndef DSY_PITCHSHIFTER_H
   3:../../DaisySP/Source/Effects/pitchshifter.h **** #define DSY_PITCHSHIFTER_H
   4:../../DaisySP/Source/Effects/pitchshifter.h **** #include <stdint.h>
   5:../../DaisySP/Source/Effects/pitchshifter.h **** #include <cmath>
   6:../../DaisySP/Source/Effects/pitchshifter.h **** #ifdef USE_ARM_DSP
   7:../../DaisySP/Source/Effects/pitchshifter.h **** #include "arm_math.h"
   8:../../DaisySP/Source/Effects/pitchshifter.h **** #endif
   9:../../DaisySP/Source/Effects/pitchshifter.h **** #include "Utility/dsp.h"
  10:../../DaisySP/Source/Effects/pitchshifter.h **** #include "Utility/delayline.h"
  11:../../DaisySP/Source/Effects/pitchshifter.h **** #include "Control/phasor.h"
  12:../../DaisySP/Source/Effects/pitchshifter.h **** 
  13:../../DaisySP/Source/Effects/pitchshifter.h **** /** Shift can be 30-100 ms lets just start with 50 for now.
  14:../../DaisySP/Source/Effects/pitchshifter.h **** 0.050 * SR = 2400 samples (at 48kHz)
  15:../../DaisySP/Source/Effects/pitchshifter.h **** */
  16:../../DaisySP/Source/Effects/pitchshifter.h **** #define SHIFT_BUFFER_SIZE 16384
  17:../../DaisySP/Source/Effects/pitchshifter.h **** //#define SHIFT_BUFFER_SIZE 4800
  18:../../DaisySP/Source/Effects/pitchshifter.h **** //#define SHIFT_BUFFER_SIZE 8192
  19:../../DaisySP/Source/Effects/pitchshifter.h **** //#define SHIFT_BUFFER_SIZE 1024
  20:../../DaisySP/Source/Effects/pitchshifter.h **** 
  21:../../DaisySP/Source/Effects/pitchshifter.h **** namespace daisysp
  22:../../DaisySP/Source/Effects/pitchshifter.h **** {
  23:../../DaisySP/Source/Effects/pitchshifter.h **** static inline uint32_t hash_xs32(uint32_t x)
  24:../../DaisySP/Source/Effects/pitchshifter.h **** {
  25:../../DaisySP/Source/Effects/pitchshifter.h ****     x ^= x << 13;
  26:../../DaisySP/Source/Effects/pitchshifter.h ****     x ^= x >> 17;
  27:../../DaisySP/Source/Effects/pitchshifter.h ****     x ^= x << 5;
  28:../../DaisySP/Source/Effects/pitchshifter.h ****     return x;
  29:../../DaisySP/Source/Effects/pitchshifter.h **** }
  30:../../DaisySP/Source/Effects/pitchshifter.h **** 
  31:../../DaisySP/Source/Effects/pitchshifter.h **** inline uint32_t myrand()
  32:../../DaisySP/Source/Effects/pitchshifter.h **** {
  33:../../DaisySP/Source/Effects/pitchshifter.h ****     static uint32_t seed = 1;
  34:../../DaisySP/Source/Effects/pitchshifter.h ****     seed                 = hash_xs32(seed);
  35:../../DaisySP/Source/Effects/pitchshifter.h ****     return seed;
  36:../../DaisySP/Source/Effects/pitchshifter.h **** }
ARM GAS  C:\Users\seanw\AppData\Local\Temp\ccbivcrf.s 			page 6


  37:../../DaisySP/Source/Effects/pitchshifter.h **** 
  38:../../DaisySP/Source/Effects/pitchshifter.h **** /**  time-domain pitchshifter
  39:../../DaisySP/Source/Effects/pitchshifter.h **** 
  40:../../DaisySP/Source/Effects/pitchshifter.h **** Author: shensley
  41:../../DaisySP/Source/Effects/pitchshifter.h **** 
  42:../../DaisySP/Source/Effects/pitchshifter.h **** Based on "Pitch Shifting" from ucsd.edu 
  43:../../DaisySP/Source/Effects/pitchshifter.h **** 
  44:../../DaisySP/Source/Effects/pitchshifter.h **** t = 1 - ((s *f) / R)
  45:../../DaisySP/Source/Effects/pitchshifter.h **** 
  46:../../DaisySP/Source/Effects/pitchshifter.h **** where:
  47:../../DaisySP/Source/Effects/pitchshifter.h ****     s is the size of the delay
  48:../../DaisySP/Source/Effects/pitchshifter.h ****     f is the frequency of the lfo
  49:../../DaisySP/Source/Effects/pitchshifter.h ****     r is the sample_rate
  50:../../DaisySP/Source/Effects/pitchshifter.h **** 
  51:../../DaisySP/Source/Effects/pitchshifter.h **** solving for t = 12.0
  52:../../DaisySP/Source/Effects/pitchshifter.h **** f = (12 - 1) * 48000 / SHIFT_BUFFER_SIZE;
  53:../../DaisySP/Source/Effects/pitchshifter.h **** 
  54:../../DaisySP/Source/Effects/pitchshifter.h **** \todo - move hash_xs32 and myrand to dsp.h and give appropriate names
  55:../../DaisySP/Source/Effects/pitchshifter.h **** */
  56:../../DaisySP/Source/Effects/pitchshifter.h **** class PitchShifter
  57:../../DaisySP/Source/Effects/pitchshifter.h **** {
  58:../../DaisySP/Source/Effects/pitchshifter.h ****   public:
  59:../../DaisySP/Source/Effects/pitchshifter.h ****     PitchShifter() {}
  60:../../DaisySP/Source/Effects/pitchshifter.h ****     ~PitchShifter() {}
  80              		.loc 3 60 5 is_stmt 1 view -0
  81              		.cfi_startproc
  82              		@ args = 0, pretend = 0, frame = 0
  83              		@ frame_needed = 0, uses_anonymous_args = 0
  84              		@ link register save eliminated.
  85              		.loc 3 60 22 is_stmt 0 view .LVU5
  86 0000 7047     		bx	lr
  87              		.cfi_endproc
  88              	.LFE3055:
  90              		.weak	_ZN7daisysp12PitchShifterD1Ev
  91              		.thumb_set _ZN7daisysp12PitchShifterD1Ev,_ZN7daisysp12PitchShifterD2Ev
  92              		.section	.text._ZN5daisy9ParameterD2Ev,"axG",%progbits,_ZN5daisy9ParameterD5Ev,comdat
  93              		.align	1
  94              		.p2align 2,,3
  95              		.weak	_ZN5daisy9ParameterD2Ev
  96              		.syntax unified
  97              		.thumb
  98              		.thumb_func
  99              		.fpu fpv5-d16
 101              	_ZN5daisy9ParameterD2Ev:
 102              	.LVL3:
 103              	.LFB3867:
 104              		.file 4 "../../libDaisy/src/hid/parameter.h"
   1:../../libDaisy/src/hid/parameter.h **** #pragma once
   2:../../libDaisy/src/hid/parameter.h **** #include <stdint.h>
   3:../../libDaisy/src/hid/parameter.h **** #include "hid/ctrl.h"
   4:../../libDaisy/src/hid/parameter.h **** 
   5:../../libDaisy/src/hid/parameter.h **** namespace daisy
   6:../../libDaisy/src/hid/parameter.h **** {
   7:../../libDaisy/src/hid/parameter.h **** /** @addtogroup controls
   8:../../libDaisy/src/hid/parameter.h ****     @{
   9:../../libDaisy/src/hid/parameter.h **** */
  10:../../libDaisy/src/hid/parameter.h **** 
ARM GAS  C:\Users\seanw\AppData\Local\Temp\ccbivcrf.s 			page 7


  11:../../libDaisy/src/hid/parameter.h **** /**      Simple parameter mapping tool that takes a 0-1 input from an hid_ctrl. */
  12:../../libDaisy/src/hid/parameter.h **** class Parameter
  13:../../libDaisy/src/hid/parameter.h **** {
  14:../../libDaisy/src/hid/parameter.h ****   public:
  15:../../libDaisy/src/hid/parameter.h ****     /** Curves are applied to the output signal */
  16:../../libDaisy/src/hid/parameter.h ****     enum Curve
  17:../../libDaisy/src/hid/parameter.h ****     {
  18:../../libDaisy/src/hid/parameter.h ****         LINEAR,      /**< Linear curve */
  19:../../libDaisy/src/hid/parameter.h ****         EXPONENTIAL, /**< Exponential curve */
  20:../../libDaisy/src/hid/parameter.h ****         LOGARITHMIC, /**<  Logarithmic curve */
  21:../../libDaisy/src/hid/parameter.h ****         CUBE,        /**< Cubic curve */
  22:../../libDaisy/src/hid/parameter.h ****         LAST,        /**< Final enum element. */
  23:../../libDaisy/src/hid/parameter.h ****     };
  24:../../libDaisy/src/hid/parameter.h ****     /** Constructor */
  25:../../libDaisy/src/hid/parameter.h ****     Parameter() {}
  26:../../libDaisy/src/hid/parameter.h ****     /** Destructor */
  27:../../libDaisy/src/hid/parameter.h ****     ~Parameter() {}
 105              		.loc 4 27 5 is_stmt 1 view -0
 106              		.cfi_startproc
 107              		@ args = 0, pretend = 0, frame = 0
 108              		@ frame_needed = 0, uses_anonymous_args = 0
 109              		@ link register save eliminated.
 110              	.LBB523:
 111              	.LBI523:
 112              		.file 5 "../../libDaisy/src/hid/ctrl.h"
   1:../../libDaisy/src/hid/ctrl.h **** #pragma once
   2:../../libDaisy/src/hid/ctrl.h **** #ifndef DSY_KNOB_H
   3:../../libDaisy/src/hid/ctrl.h **** #define DSY_KNOB_H /**< & */
   4:../../libDaisy/src/hid/ctrl.h **** #include <stdint.h>
   5:../../libDaisy/src/hid/ctrl.h **** 
   6:../../libDaisy/src/hid/ctrl.h **** #ifdef __cplusplus
   7:../../libDaisy/src/hid/ctrl.h **** namespace daisy
   8:../../libDaisy/src/hid/ctrl.h **** {
   9:../../libDaisy/src/hid/ctrl.h **** /**
  10:../../libDaisy/src/hid/ctrl.h ****     @brief Hardware Interface for control inputs \n 
  11:../../libDaisy/src/hid/ctrl.h ****     Primarily designed for ADC input controls such as \n 
  12:../../libDaisy/src/hid/ctrl.h ****     potentiometers, and control voltage. \n 
  13:../../libDaisy/src/hid/ctrl.h ****     @author Stephen Hensley
  14:../../libDaisy/src/hid/ctrl.h ****     @date November 2019
  15:../../libDaisy/src/hid/ctrl.h ****     @ingroup controls
  16:../../libDaisy/src/hid/ctrl.h **** */
  17:../../libDaisy/src/hid/ctrl.h **** class AnalogControl
  18:../../libDaisy/src/hid/ctrl.h **** {
  19:../../libDaisy/src/hid/ctrl.h ****   public:
  20:../../libDaisy/src/hid/ctrl.h ****     /** Constructor */
  21:../../libDaisy/src/hid/ctrl.h ****     AnalogControl() {}
  22:../../libDaisy/src/hid/ctrl.h ****     /** destructor */
  23:../../libDaisy/src/hid/ctrl.h ****     ~AnalogControl() {}
 113              		.loc 5 23 5 view .LVU7
 114              		.loc 5 23 5 is_stmt 0 view .LVU8
 115              	.LBE523:
 116              		.loc 4 27 19 view .LVU9
 117 0000 7047     		bx	lr
 118              		.cfi_endproc
 119              	.LFE3867:
 121              		.weak	_ZN5daisy9ParameterD1Ev
 122              		.thumb_set _ZN5daisy9ParameterD1Ev,_ZN5daisy9ParameterD2Ev
ARM GAS  C:\Users\seanw\AppData\Local\Temp\ccbivcrf.s 			page 8


 123 0002 00BF     		.section	.text._ZN5daisy8DaisyPodD2Ev,"axG",%progbits,_ZN5daisy8DaisyPodD5Ev,comdat
 124              		.align	1
 125              		.p2align 2,,3
 126              		.weak	_ZN5daisy8DaisyPodD2Ev
 127              		.syntax unified
 128              		.thumb
 129              		.thumb_func
 130              		.fpu fpv5-d16
 132              	_ZN5daisy8DaisyPodD2Ev:
 133              	.LVL4:
 134              	.LFB4400:
 135              		.file 6 "../../libDaisy/src/daisy_pod.h"
   1:../../libDaisy/src/daisy_pod.h **** #pragma once
   2:../../libDaisy/src/daisy_pod.h **** #ifndef DSY_POD_BSP_H
   3:../../libDaisy/src/daisy_pod.h **** #define DSY_POD_BSP_H
   4:../../libDaisy/src/daisy_pod.h **** 
   5:../../libDaisy/src/daisy_pod.h **** #include "daisy_seed.h"
   6:../../libDaisy/src/daisy_pod.h **** 
   7:../../libDaisy/src/daisy_pod.h **** namespace daisy
   8:../../libDaisy/src/daisy_pod.h **** {
   9:../../libDaisy/src/daisy_pod.h **** /**
  10:../../libDaisy/src/daisy_pod.h ****     @brief Class that handles initializing all of the hardware specific to the Daisy Patch Board. \
  11:../../libDaisy/src/daisy_pod.h ****     Helper funtions are also in place to provide easy access to built-in controls and peripherals.
  12:../../libDaisy/src/daisy_pod.h ****     @author Stephen Hensley
  13:../../libDaisy/src/daisy_pod.h ****     @date November 2019
  14:../../libDaisy/src/daisy_pod.h ****     @ingroup boards
  15:../../libDaisy/src/daisy_pod.h **** */
  16:../../libDaisy/src/daisy_pod.h **** class DaisyPod
  17:../../libDaisy/src/daisy_pod.h **** {
  18:../../libDaisy/src/daisy_pod.h ****   public:
  19:../../libDaisy/src/daisy_pod.h ****     /** Switches */
  20:../../libDaisy/src/daisy_pod.h ****     enum Sw
  21:../../libDaisy/src/daisy_pod.h ****     {
  22:../../libDaisy/src/daisy_pod.h ****         BUTTON_1,    /** & */
  23:../../libDaisy/src/daisy_pod.h ****         BUTTON_2,    /** & */
  24:../../libDaisy/src/daisy_pod.h ****         BUTTON_LAST, /** &  */
  25:../../libDaisy/src/daisy_pod.h ****     };
  26:../../libDaisy/src/daisy_pod.h **** 
  27:../../libDaisy/src/daisy_pod.h ****     /** Knobs */
  28:../../libDaisy/src/daisy_pod.h ****     enum Knob
  29:../../libDaisy/src/daisy_pod.h ****     {
  30:../../libDaisy/src/daisy_pod.h ****         KNOB_1,    /** &  */
  31:../../libDaisy/src/daisy_pod.h ****         KNOB_2,    /** & */
  32:../../libDaisy/src/daisy_pod.h ****         KNOB_LAST, /** & */
  33:../../libDaisy/src/daisy_pod.h ****     };
  34:../../libDaisy/src/daisy_pod.h **** 
  35:../../libDaisy/src/daisy_pod.h ****     DaisyPod() {}
  36:../../libDaisy/src/daisy_pod.h ****     ~DaisyPod() {}
 136              		.loc 6 36 5 is_stmt 1 view -0
 137              		.cfi_startproc
 138              		@ args = 0, pretend = 0, frame = 0
 139              		@ frame_needed = 0, uses_anonymous_args = 0
 140              		@ link register save eliminated.
 141              	.LBB524:
 142              	.LBI524:
 143              		.file 7 "../../libDaisy/src/hid/midi.h"
   1:../../libDaisy/src/hid/midi.h **** #pragma once
ARM GAS  C:\Users\seanw\AppData\Local\Temp\ccbivcrf.s 			page 9


   2:../../libDaisy/src/hid/midi.h **** #ifndef DSY_MIDI_H
   3:../../libDaisy/src/hid/midi.h **** #define DSY_MIDI_H
   4:../../libDaisy/src/hid/midi.h **** 
   5:../../libDaisy/src/hid/midi.h **** // TODO: make this adjustable
   6:../../libDaisy/src/hid/midi.h **** #define SYSEX_BUFFER_LEN 128
   7:../../libDaisy/src/hid/midi.h **** 
   8:../../libDaisy/src/hid/midi.h **** #include <stdint.h>
   9:../../libDaisy/src/hid/midi.h **** #include <stdlib.h>
  10:../../libDaisy/src/hid/midi.h **** #include "per/uart.h"
  11:../../libDaisy/src/hid/midi.h **** #include "util/ringbuffer.h"
  12:../../libDaisy/src/hid/midi.h **** #include "hid/MidiEvent.h"
  13:../../libDaisy/src/hid/midi.h **** #include "hid/usb_midi.h"
  14:../../libDaisy/src/hid/midi.h **** #include "sys/system.h"
  15:../../libDaisy/src/hid/midi.h **** 
  16:../../libDaisy/src/hid/midi.h **** namespace daisy
  17:../../libDaisy/src/hid/midi.h **** {
  18:../../libDaisy/src/hid/midi.h **** /** @addtogroup external 
  19:../../libDaisy/src/hid/midi.h ****     @{ 
  20:../../libDaisy/src/hid/midi.h **** */
  21:../../libDaisy/src/hid/midi.h **** 
  22:../../libDaisy/src/hid/midi.h **** class MidiUartTransport
  23:../../libDaisy/src/hid/midi.h **** {
  24:../../libDaisy/src/hid/midi.h ****   public:
  25:../../libDaisy/src/hid/midi.h ****     MidiUartTransport() {}
  26:../../libDaisy/src/hid/midi.h ****     ~MidiUartTransport() {}
  27:../../libDaisy/src/hid/midi.h **** 
  28:../../libDaisy/src/hid/midi.h ****     struct Config
  29:../../libDaisy/src/hid/midi.h ****     {
  30:../../libDaisy/src/hid/midi.h ****         UartHandler::Config::Peripheral periph;
  31:../../libDaisy/src/hid/midi.h ****         dsy_gpio_pin                    rx;
  32:../../libDaisy/src/hid/midi.h ****         dsy_gpio_pin                    tx;
  33:../../libDaisy/src/hid/midi.h **** 
  34:../../libDaisy/src/hid/midi.h ****         Config()
  35:../../libDaisy/src/hid/midi.h ****         {
  36:../../libDaisy/src/hid/midi.h ****             periph = UartHandler::Config::Peripheral::USART_1;
  37:../../libDaisy/src/hid/midi.h ****             rx     = {DSY_GPIOB, 7};
  38:../../libDaisy/src/hid/midi.h ****             tx     = {DSY_GPIOB, 6};
  39:../../libDaisy/src/hid/midi.h ****         }
  40:../../libDaisy/src/hid/midi.h ****     };
  41:../../libDaisy/src/hid/midi.h **** 
  42:../../libDaisy/src/hid/midi.h ****     inline void Init(Config config)
  43:../../libDaisy/src/hid/midi.h ****     {
  44:../../libDaisy/src/hid/midi.h ****         UartHandler::Config uart_config;
  45:../../libDaisy/src/hid/midi.h **** 
  46:../../libDaisy/src/hid/midi.h ****         //defaults
  47:../../libDaisy/src/hid/midi.h ****         uart_config.baudrate   = 31250;
  48:../../libDaisy/src/hid/midi.h ****         uart_config.stopbits   = UartHandler::Config::StopBits::BITS_1;
  49:../../libDaisy/src/hid/midi.h ****         uart_config.parity     = UartHandler::Config::Parity::NONE;
  50:../../libDaisy/src/hid/midi.h ****         uart_config.mode       = UartHandler::Config::Mode::TX_RX;
  51:../../libDaisy/src/hid/midi.h ****         uart_config.wordlength = UartHandler::Config::WordLength::BITS_8;
  52:../../libDaisy/src/hid/midi.h **** 
  53:../../libDaisy/src/hid/midi.h ****         //user settings
  54:../../libDaisy/src/hid/midi.h ****         uart_config.periph        = config.periph;
  55:../../libDaisy/src/hid/midi.h ****         uart_config.pin_config.rx = config.rx;
  56:../../libDaisy/src/hid/midi.h ****         uart_config.pin_config.tx = config.tx;
  57:../../libDaisy/src/hid/midi.h **** 
  58:../../libDaisy/src/hid/midi.h ****         uart_.Init(uart_config);
ARM GAS  C:\Users\seanw\AppData\Local\Temp\ccbivcrf.s 			page 10


  59:../../libDaisy/src/hid/midi.h ****     }
  60:../../libDaisy/src/hid/midi.h **** 
  61:../../libDaisy/src/hid/midi.h ****     inline void    StartRx() { uart_.StartRx(); }
  62:../../libDaisy/src/hid/midi.h ****     inline size_t  Readable() { return uart_.Readable(); }
  63:../../libDaisy/src/hid/midi.h ****     inline uint8_t Rx() { return uart_.PopRx(); }
  64:../../libDaisy/src/hid/midi.h ****     inline bool    RxActive() { return uart_.RxActive(); }
  65:../../libDaisy/src/hid/midi.h ****     inline void    FlushRx() { uart_.FlushRx(); }
  66:../../libDaisy/src/hid/midi.h ****     inline void    Tx(uint8_t* buff, size_t size) { uart_.PollTx(buff, size); }
  67:../../libDaisy/src/hid/midi.h **** 
  68:../../libDaisy/src/hid/midi.h ****   private:
  69:../../libDaisy/src/hid/midi.h ****     UartHandler uart_;
  70:../../libDaisy/src/hid/midi.h **** };
  71:../../libDaisy/src/hid/midi.h **** 
  72:../../libDaisy/src/hid/midi.h **** /** 
  73:../../libDaisy/src/hid/midi.h ****     @brief Simple MIDI Handler \n 
  74:../../libDaisy/src/hid/midi.h ****     Parses bytes from an input into valid MidiEvents. \n 
  75:../../libDaisy/src/hid/midi.h ****     The MidiEvents fill a FIFO queue that the user can pop messages from.
  76:../../libDaisy/src/hid/midi.h ****     @author shensley
  77:../../libDaisy/src/hid/midi.h ****     @date March 2020
  78:../../libDaisy/src/hid/midi.h **** */
  79:../../libDaisy/src/hid/midi.h **** template <typename Transport>
  80:../../libDaisy/src/hid/midi.h **** class MidiHandler
  81:../../libDaisy/src/hid/midi.h **** {
  82:../../libDaisy/src/hid/midi.h ****   public:
  83:../../libDaisy/src/hid/midi.h ****     MidiHandler() {}
  84:../../libDaisy/src/hid/midi.h ****     ~MidiHandler() {}
 144              		.loc 7 84 5 view .LVU11
 145              	.LBB525:
 146              	.LBI525:
  26:../../libDaisy/src/hid/midi.h **** 
 147              		.loc 7 26 5 view .LVU12
  26:../../libDaisy/src/hid/midi.h **** 
 148              		.loc 7 26 5 is_stmt 0 view .LVU13
 149              	.LBE525:
 150              	.LBE524:
 151              	.LBB526:
 152              	.LBI526:
 153              		.file 8 "../../libDaisy/src/hid/rgb_led.h"
   1:../../libDaisy/src/hid/rgb_led.h **** #pragma once
   2:../../libDaisy/src/hid/rgb_led.h **** #ifndef DSY_RGB_LED_H
   3:../../libDaisy/src/hid/rgb_led.h **** #define DSY_RGB_LED_H
   4:../../libDaisy/src/hid/rgb_led.h **** #include "hid/led.h"
   5:../../libDaisy/src/hid/rgb_led.h **** #include "util/color.h"
   6:../../libDaisy/src/hid/rgb_led.h **** 
   7:../../libDaisy/src/hid/rgb_led.h **** namespace daisy
   8:../../libDaisy/src/hid/rgb_led.h **** {
   9:../../libDaisy/src/hid/rgb_led.h **** /** @addtogroup feedback
  10:../../libDaisy/src/hid/rgb_led.h ****     @{
  11:../../libDaisy/src/hid/rgb_led.h **** */
  12:../../libDaisy/src/hid/rgb_led.h **** 
  13:../../libDaisy/src/hid/rgb_led.h **** /** 3x LEDs configured as an RGB for ease of use. */
  14:../../libDaisy/src/hid/rgb_led.h **** class RgbLed
  15:../../libDaisy/src/hid/rgb_led.h **** {
  16:../../libDaisy/src/hid/rgb_led.h ****   public:
  17:../../libDaisy/src/hid/rgb_led.h ****     RgbLed() {}
  18:../../libDaisy/src/hid/rgb_led.h ****     ~RgbLed() {}
 154              		.loc 8 18 5 is_stmt 1 view .LVU14
ARM GAS  C:\Users\seanw\AppData\Local\Temp\ccbivcrf.s 			page 11


 155              	.LBB527:
 156              	.LBI527:
 157              		.file 9 "../../libDaisy/src/hid/led.h"
   1:../../libDaisy/src/hid/led.h **** 
   2:../../libDaisy/src/hid/led.h **** #pragma once
   3:../../libDaisy/src/hid/led.h **** #ifndef DSY_LED_H
   4:../../libDaisy/src/hid/led.h **** #define DSY_LED_H
   5:../../libDaisy/src/hid/led.h **** #include "daisy_core.h"
   6:../../libDaisy/src/hid/led.h **** #include "per/gpio.h"
   7:../../libDaisy/src/hid/led.h **** 
   8:../../libDaisy/src/hid/led.h **** /* TODO - Get this set up to work with the dev_leddriver stuff as well
   9:../../libDaisy/src/hid/led.h **** - Setup Hardware PWM for pins that have it
  10:../../libDaisy/src/hid/led.h **** */
  11:../../libDaisy/src/hid/led.h **** 
  12:../../libDaisy/src/hid/led.h **** namespace daisy
  13:../../libDaisy/src/hid/led.h **** {
  14:../../libDaisy/src/hid/led.h **** /**
  15:../../libDaisy/src/hid/led.h ****     @brief LED Class providing simple Software PWM ability, etc \n 
  16:../../libDaisy/src/hid/led.h ****     Eventually this will work with hardware PWM, and external LED Driver devices as well.
  17:../../libDaisy/src/hid/led.h ****     @author shensley
  18:../../libDaisy/src/hid/led.h ****     @date March 2020
  19:../../libDaisy/src/hid/led.h ****     @ingroup feedback
  20:../../libDaisy/src/hid/led.h **** */
  21:../../libDaisy/src/hid/led.h **** class Led
  22:../../libDaisy/src/hid/led.h **** {
  23:../../libDaisy/src/hid/led.h ****   public:
  24:../../libDaisy/src/hid/led.h ****     Led() {}
  25:../../libDaisy/src/hid/led.h ****     ~Led() {}
 158              		.loc 9 25 5 view .LVU15
 159              		.loc 9 25 5 is_stmt 0 view .LVU16
 160              	.LBE527:
 161              	.LBB528:
 162              	.LBI528:
 163              		.loc 9 25 5 is_stmt 1 view .LVU17
 164              		.loc 9 25 5 is_stmt 0 view .LVU18
 165              	.LBE528:
 166              	.LBB529:
 167              	.LBI529:
 168              		.loc 9 25 5 is_stmt 1 view .LVU19
 169              		.loc 9 25 5 is_stmt 0 view .LVU20
 170              	.LBE529:
 171              	.LBE526:
 172              	.LBB530:
 173              	.LBI530:
 174              		.loc 8 18 5 is_stmt 1 view .LVU21
 175              	.LBB531:
 176              	.LBI531:
 177              		.loc 9 25 5 view .LVU22
 178              		.loc 9 25 5 is_stmt 0 view .LVU23
 179              	.LBE531:
 180              	.LBB532:
 181              	.LBI532:
 182              		.loc 9 25 5 is_stmt 1 view .LVU24
 183              		.loc 9 25 5 is_stmt 0 view .LVU25
 184              	.LBE532:
 185              	.LBB533:
 186              	.LBI533:
ARM GAS  C:\Users\seanw\AppData\Local\Temp\ccbivcrf.s 			page 12


 187              		.loc 9 25 5 is_stmt 1 view .LVU26
 188              		.loc 9 25 5 is_stmt 0 view .LVU27
 189              	.LBE533:
 190              	.LBE530:
 191              	.LBB534:
 192              	.LBI534:
 193              		.file 10 "../../libDaisy/src/hid/switch.h"
   1:../../libDaisy/src/hid/switch.h **** #pragma once
   2:../../libDaisy/src/hid/switch.h **** #ifndef DSY_SWITCH_H
   3:../../libDaisy/src/hid/switch.h **** #define DSY_SWITCH_H
   4:../../libDaisy/src/hid/switch.h **** #include "daisy_core.h"
   5:../../libDaisy/src/hid/switch.h **** #include "per/gpio.h"
   6:../../libDaisy/src/hid/switch.h **** #include "sys/system.h"
   7:../../libDaisy/src/hid/switch.h **** 
   8:../../libDaisy/src/hid/switch.h **** namespace daisy
   9:../../libDaisy/src/hid/switch.h **** {
  10:../../libDaisy/src/hid/switch.h **** /** 
  11:../../libDaisy/src/hid/switch.h ****     Generic Class for handling momentary/latching switches \n 
  12:../../libDaisy/src/hid/switch.h ****     Inspired/influenced by Mutable Instruments (pichenettes) Switch classes
  13:../../libDaisy/src/hid/switch.h ****     @author Stephen Hensley
  14:../../libDaisy/src/hid/switch.h ****     @date December 2019
  15:../../libDaisy/src/hid/switch.h ****     @ingroup controls
  16:../../libDaisy/src/hid/switch.h **** */
  17:../../libDaisy/src/hid/switch.h **** class Switch
  18:../../libDaisy/src/hid/switch.h **** {
  19:../../libDaisy/src/hid/switch.h ****   public:
  20:../../libDaisy/src/hid/switch.h ****     /** Specifies the expected behavior of the switch */
  21:../../libDaisy/src/hid/switch.h ****     enum Type
  22:../../libDaisy/src/hid/switch.h ****     {
  23:../../libDaisy/src/hid/switch.h ****         TYPE_TOGGLE,    /**< & */
  24:../../libDaisy/src/hid/switch.h ****         TYPE_MOMENTARY, /**< & */
  25:../../libDaisy/src/hid/switch.h ****     };
  26:../../libDaisy/src/hid/switch.h ****     /** Specifies whether the pressed is HIGH or LOW. */
  27:../../libDaisy/src/hid/switch.h ****     enum Polarity
  28:../../libDaisy/src/hid/switch.h ****     {
  29:../../libDaisy/src/hid/switch.h ****         POLARITY_NORMAL,   /**< & */
  30:../../libDaisy/src/hid/switch.h ****         POLARITY_INVERTED, /**< & */
  31:../../libDaisy/src/hid/switch.h ****     };
  32:../../libDaisy/src/hid/switch.h **** 
  33:../../libDaisy/src/hid/switch.h ****     /** Specifies whether to use built-in Pull Up/Down resistors to hold button at a given state wh
  34:../../libDaisy/src/hid/switch.h ****     enum Pull
  35:../../libDaisy/src/hid/switch.h ****     {
  36:../../libDaisy/src/hid/switch.h ****         PULL_UP,   /**< & */
  37:../../libDaisy/src/hid/switch.h ****         PULL_DOWN, /**< & */
  38:../../libDaisy/src/hid/switch.h ****         PULL_NONE, /**< & */
  39:../../libDaisy/src/hid/switch.h ****     };
  40:../../libDaisy/src/hid/switch.h **** 
  41:../../libDaisy/src/hid/switch.h ****     Switch() {}
  42:../../libDaisy/src/hid/switch.h ****     ~Switch() {}
 194              		.loc 10 42 5 is_stmt 1 view .LVU28
 195              		.loc 10 42 5 is_stmt 0 view .LVU29
 196              	.LBE534:
 197              	.LBB535:
 198              	.LBI535:
 199              		.loc 10 42 5 is_stmt 1 view .LVU30
 200              		.loc 10 42 5 is_stmt 0 view .LVU31
 201              	.LBE535:
ARM GAS  C:\Users\seanw\AppData\Local\Temp\ccbivcrf.s 			page 13


 202              	.LBB536:
 203              	.LBI536:
 204              		.loc 5 23 5 is_stmt 1 view .LVU32
 205              		.loc 5 23 5 is_stmt 0 view .LVU33
 206              	.LBE536:
 207              	.LBB537:
 208              	.LBI537:
 209              		.loc 5 23 5 is_stmt 1 view .LVU34
 210              		.loc 5 23 5 is_stmt 0 view .LVU35
 211              	.LBE537:
 212              	.LBB538:
 213              	.LBI538:
 214              		.file 11 "../../libDaisy/src/hid/encoder.h"
   1:../../libDaisy/src/hid/encoder.h **** #pragma once
   2:../../libDaisy/src/hid/encoder.h **** #ifndef DSY_ENCODER_H
   3:../../libDaisy/src/hid/encoder.h **** #define DSY_ENCODER_H
   4:../../libDaisy/src/hid/encoder.h **** #include "daisy_core.h"
   5:../../libDaisy/src/hid/encoder.h **** #include "per/gpio.h"
   6:../../libDaisy/src/hid/encoder.h **** #include "hid/switch.h"
   7:../../libDaisy/src/hid/encoder.h **** 
   8:../../libDaisy/src/hid/encoder.h **** namespace daisy
   9:../../libDaisy/src/hid/encoder.h **** {
  10:../../libDaisy/src/hid/encoder.h **** /** 
  11:../../libDaisy/src/hid/encoder.h ****     @brief Generic Class for handling Quadrature Encoders \n 
  12:../../libDaisy/src/hid/encoder.h ****     Inspired/influenced by Mutable Instruments (pichenettes) Encoder classes
  13:../../libDaisy/src/hid/encoder.h ****     @author Stephen Hensley
  14:../../libDaisy/src/hid/encoder.h ****     @date December 2019
  15:../../libDaisy/src/hid/encoder.h ****     @ingroup controls
  16:../../libDaisy/src/hid/encoder.h **** */
  17:../../libDaisy/src/hid/encoder.h **** class Encoder
  18:../../libDaisy/src/hid/encoder.h **** {
  19:../../libDaisy/src/hid/encoder.h ****   public:
  20:../../libDaisy/src/hid/encoder.h ****     Encoder() {}
  21:../../libDaisy/src/hid/encoder.h ****     ~Encoder() {}
 215              		.loc 11 21 5 is_stmt 1 view .LVU36
 216              	.LBB539:
 217              	.LBI539:
 218              		.loc 10 42 5 view .LVU37
 219              		.loc 10 42 5 is_stmt 0 view .LVU38
 220              	.LBE539:
 221              	.LBE538:
 222              	.LBB540:
 223              	.LBI540:
 224              		.file 12 "../../libDaisy/src/daisy_seed.h"
   1:../../libDaisy/src/daisy_seed.h **** #pragma once
   2:../../libDaisy/src/daisy_seed.h **** #ifndef DSY_SEED_H
   3:../../libDaisy/src/daisy_seed.h **** #define DSY_SEED_H
   4:../../libDaisy/src/daisy_seed.h **** 
   5:../../libDaisy/src/daisy_seed.h **** #include "daisy.h"
   6:../../libDaisy/src/daisy_seed.h **** 
   7:../../libDaisy/src/daisy_seed.h **** //Uncomment this out if you're still using the rev2 hardware
   8:../../libDaisy/src/daisy_seed.h **** //#define SEED_REV2
   9:../../libDaisy/src/daisy_seed.h **** 
  10:../../libDaisy/src/daisy_seed.h **** namespace daisy
  11:../../libDaisy/src/daisy_seed.h **** {
  12:../../libDaisy/src/daisy_seed.h **** /**
  13:../../libDaisy/src/daisy_seed.h ****    @brief This is the higher-level interface for the Daisy board. \n 
ARM GAS  C:\Users\seanw\AppData\Local\Temp\ccbivcrf.s 			page 14


  14:../../libDaisy/src/daisy_seed.h ****     All basic peripheral configuration/initialization is setup here. \n
  15:../../libDaisy/src/daisy_seed.h **** 
  16:../../libDaisy/src/daisy_seed.h ****    @ingroup boards
  17:../../libDaisy/src/daisy_seed.h **** */
  18:../../libDaisy/src/daisy_seed.h **** class DaisySeed
  19:../../libDaisy/src/daisy_seed.h **** {
  20:../../libDaisy/src/daisy_seed.h ****   public:
  21:../../libDaisy/src/daisy_seed.h ****     DaisySeed() {}
  22:../../libDaisy/src/daisy_seed.h ****     ~DaisySeed() {}
 225              		.loc 12 22 5 is_stmt 1 view .LVU39
 226              	.LBB541:
 227              	.LBI541:
 228              		.file 13 "../../libDaisy/src/sys/system.h"
   1:../../libDaisy/src/sys/system.h **** #ifndef DSY_SYSTEM_H
   2:../../libDaisy/src/sys/system.h **** #define DSY_SYSTEM_H
   3:../../libDaisy/src/sys/system.h **** 
   4:../../libDaisy/src/sys/system.h **** #ifndef UNIT_TEST // for unit tests, a dummy implementation is provided below
   5:../../libDaisy/src/sys/system.h **** 
   6:../../libDaisy/src/sys/system.h **** #include <cstdint>
   7:../../libDaisy/src/sys/system.h **** #include "per/tim.h"
   8:../../libDaisy/src/sys/system.h **** 
   9:../../libDaisy/src/sys/system.h **** namespace daisy
  10:../../libDaisy/src/sys/system.h **** {
  11:../../libDaisy/src/sys/system.h **** /** A handle for interacting with the Core System. 
  12:../../libDaisy/src/sys/system.h ****  ** This includes the Clock tree, MPU, global DMA initialization,
  13:../../libDaisy/src/sys/system.h ****  ** cache handling, and any other necessary global initiailzation
  14:../../libDaisy/src/sys/system.h ****  **
  15:../../libDaisy/src/sys/system.h ****  ** @author shensley
  16:../../libDaisy/src/sys/system.h ****  ** @addtogroup system
  17:../../libDaisy/src/sys/system.h ****  */
  18:../../libDaisy/src/sys/system.h **** class System
  19:../../libDaisy/src/sys/system.h **** {
  20:../../libDaisy/src/sys/system.h ****   public:
  21:../../libDaisy/src/sys/system.h ****     /** Contains settings for initializing the System */
  22:../../libDaisy/src/sys/system.h ****     struct Config
  23:../../libDaisy/src/sys/system.h ****     {
  24:../../libDaisy/src/sys/system.h ****         /** Specifies the system clock frequency that feeds APB/AHB clocks, etc. */
  25:../../libDaisy/src/sys/system.h ****         enum class SysClkFreq
  26:../../libDaisy/src/sys/system.h ****         {
  27:../../libDaisy/src/sys/system.h ****             FREQ_400MHZ,
  28:../../libDaisy/src/sys/system.h ****             FREQ_480MHZ,
  29:../../libDaisy/src/sys/system.h ****         };
  30:../../libDaisy/src/sys/system.h **** 
  31:../../libDaisy/src/sys/system.h ****         /** Method to call on the struct to set to defaults
  32:../../libDaisy/src/sys/system.h ****          ** CPU Freq set to 400MHz
  33:../../libDaisy/src/sys/system.h ****          ** Cache Enabled 
  34:../../libDaisy/src/sys/system.h ****          ** */
  35:../../libDaisy/src/sys/system.h ****         void Defaults()
  36:../../libDaisy/src/sys/system.h ****         {
  37:../../libDaisy/src/sys/system.h ****             cpu_freq    = SysClkFreq::FREQ_400MHZ;
  38:../../libDaisy/src/sys/system.h ****             use_dcache  = true;
  39:../../libDaisy/src/sys/system.h ****             use_icache  = true;
  40:../../libDaisy/src/sys/system.h ****             skip_clocks = false;
  41:../../libDaisy/src/sys/system.h ****         }
  42:../../libDaisy/src/sys/system.h **** 
  43:../../libDaisy/src/sys/system.h ****         /** Method to call on the struct to set to boost mode:
  44:../../libDaisy/src/sys/system.h ****          ** CPU Freq set to 480MHz
ARM GAS  C:\Users\seanw\AppData\Local\Temp\ccbivcrf.s 			page 15


  45:../../libDaisy/src/sys/system.h ****          ** Cache Enabled 
  46:../../libDaisy/src/sys/system.h ****          ** */
  47:../../libDaisy/src/sys/system.h ****         void Boost()
  48:../../libDaisy/src/sys/system.h ****         {
  49:../../libDaisy/src/sys/system.h ****             cpu_freq    = SysClkFreq::FREQ_480MHZ;
  50:../../libDaisy/src/sys/system.h ****             use_dcache  = true;
  51:../../libDaisy/src/sys/system.h ****             use_icache  = true;
  52:../../libDaisy/src/sys/system.h ****             skip_clocks = false;
  53:../../libDaisy/src/sys/system.h ****         }
  54:../../libDaisy/src/sys/system.h **** 
  55:../../libDaisy/src/sys/system.h ****         SysClkFreq cpu_freq;
  56:../../libDaisy/src/sys/system.h ****         bool       use_dcache;
  57:../../libDaisy/src/sys/system.h ****         bool       use_icache;
  58:../../libDaisy/src/sys/system.h ****         bool       skip_clocks;
  59:../../libDaisy/src/sys/system.h ****     };
  60:../../libDaisy/src/sys/system.h **** 
  61:../../libDaisy/src/sys/system.h ****     /** Describes the different regions of memory available to the Daisy
  62:../../libDaisy/src/sys/system.h ****      * 
  63:../../libDaisy/src/sys/system.h ****      */
  64:../../libDaisy/src/sys/system.h ****     enum MemoryRegion
  65:../../libDaisy/src/sys/system.h ****     {
  66:../../libDaisy/src/sys/system.h ****         INTERNAL_FLASH = 0,
  67:../../libDaisy/src/sys/system.h ****         ITCMRAM,
  68:../../libDaisy/src/sys/system.h ****         DTCMRAM,
  69:../../libDaisy/src/sys/system.h ****         SRAM_D1,
  70:../../libDaisy/src/sys/system.h ****         SRAM_D2,
  71:../../libDaisy/src/sys/system.h ****         SRAM_D3,
  72:../../libDaisy/src/sys/system.h ****         SDRAM,
  73:../../libDaisy/src/sys/system.h ****         QSPI,
  74:../../libDaisy/src/sys/system.h ****         INVALID_ADDRESS,
  75:../../libDaisy/src/sys/system.h ****     };
  76:../../libDaisy/src/sys/system.h **** 
  77:../../libDaisy/src/sys/system.h ****     System() {}
  78:../../libDaisy/src/sys/system.h ****     ~System() {}
 229              		.loc 13 78 5 view .LVU40
 230              		.loc 13 78 5 is_stmt 0 view .LVU41
 231              	.LBE541:
 232              	.LBB542:
 233              	.LBI542:
 234              		.file 14 "../../libDaisy/src/hid/usb.h"
   1:../../libDaisy/src/hid/usb.h **** #pragma once
   2:../../libDaisy/src/hid/usb.h **** #ifndef DSY_HID_USB_H
   3:../../libDaisy/src/hid/usb.h **** #define DSY_HID_USB_H
   4:../../libDaisy/src/hid/usb.h **** #include <stdint.h>
   5:../../libDaisy/src/hid/usb.h **** #include <stdlib.h>
   6:../../libDaisy/src/hid/usb.h **** 
   7:../../libDaisy/src/hid/usb.h **** namespace daisy
   8:../../libDaisy/src/hid/usb.h **** /** @addtogroup externals
   9:../../libDaisy/src/hid/usb.h ****     @{
  10:../../libDaisy/src/hid/usb.h **** */
  11:../../libDaisy/src/hid/usb.h **** 
  12:../../libDaisy/src/hid/usb.h **** {
  13:../../libDaisy/src/hid/usb.h **** /** 
  14:../../libDaisy/src/hid/usb.h ****     @brief Interface for initializing and using the USB Peripherals on the daisy
  15:../../libDaisy/src/hid/usb.h ****     @author Stephen Hensley
  16:../../libDaisy/src/hid/usb.h ****     @date December 2019
  17:../../libDaisy/src/hid/usb.h **** */
ARM GAS  C:\Users\seanw\AppData\Local\Temp\ccbivcrf.s 			page 16


  18:../../libDaisy/src/hid/usb.h **** class UsbHandle
  19:../../libDaisy/src/hid/usb.h **** {
  20:../../libDaisy/src/hid/usb.h ****   public:
  21:../../libDaisy/src/hid/usb.h ****     /** Return values for USBHandle Functions */
  22:../../libDaisy/src/hid/usb.h ****     enum class Result
  23:../../libDaisy/src/hid/usb.h ****     {
  24:../../libDaisy/src/hid/usb.h ****         OK,
  25:../../libDaisy/src/hid/usb.h ****         ERR,
  26:../../libDaisy/src/hid/usb.h ****     };
  27:../../libDaisy/src/hid/usb.h **** 
  28:../../libDaisy/src/hid/usb.h ****     /** Specified which of the two USB Peripherals to initialize. */
  29:../../libDaisy/src/hid/usb.h ****     enum UsbPeriph
  30:../../libDaisy/src/hid/usb.h ****     {
  31:../../libDaisy/src/hid/usb.h ****         FS_INTERNAL, /**< Internal pin */
  32:../../libDaisy/src/hid/usb.h ****         FS_EXTERNAL, /**< FS External D+ pin is Pin 38 (GPIO32). FS External D- pin is Pin 37 (GPIO
  33:../../libDaisy/src/hid/usb.h ****         FS_BOTH,     /**< Both */
  34:../../libDaisy/src/hid/usb.h ****     };
  35:../../libDaisy/src/hid/usb.h **** 
  36:../../libDaisy/src/hid/usb.h **** 
  37:../../libDaisy/src/hid/usb.h ****     /** Function called upon reception of a buffer */
  38:../../libDaisy/src/hid/usb.h ****     typedef void (*ReceiveCallback)(uint8_t* buff, uint32_t* len);
  39:../../libDaisy/src/hid/usb.h **** 
  40:../../libDaisy/src/hid/usb.h ****     UsbHandle() {}
  41:../../libDaisy/src/hid/usb.h **** 
  42:../../libDaisy/src/hid/usb.h ****     ~UsbHandle() {}
 235              		.loc 14 42 5 is_stmt 1 view .LVU42
 236              		.loc 14 42 5 is_stmt 0 view .LVU43
 237              	.LBE542:
 238              	.LBB543:
 239              	.LBI543:
 240              		.file 15 "../../libDaisy/src/per/adc.h"
   1:../../libDaisy/src/per/adc.h **** #pragma once
   2:../../libDaisy/src/per/adc.h **** #ifndef DSY_ADC_H
   3:../../libDaisy/src/per/adc.h **** #define DSY_ADC_H /**< Macro */
   4:../../libDaisy/src/per/adc.h **** #include <stdint.h>
   5:../../libDaisy/src/per/adc.h **** #include <stdlib.h>
   6:../../libDaisy/src/per/adc.h **** #include "daisy_core.h"
   7:../../libDaisy/src/per/adc.h **** #include "per/gpio.h"
   8:../../libDaisy/src/per/adc.h **** 
   9:../../libDaisy/src/per/adc.h **** #define DSY_ADC_MAX_CHANNELS 16 /**< Maximum number of ADC channels */
  10:../../libDaisy/src/per/adc.h **** 
  11:../../libDaisy/src/per/adc.h **** namespace daisy
  12:../../libDaisy/src/per/adc.h **** {
  13:../../libDaisy/src/per/adc.h **** /** @addtogroup analog_digital_conversion
  14:../../libDaisy/src/per/adc.h ****     @{
  15:../../libDaisy/src/per/adc.h **** */
  16:../../libDaisy/src/per/adc.h **** 
  17:../../libDaisy/src/per/adc.h **** /* While there may not be many configuration options here,
  18:../../libDaisy/src/per/adc.h **** using a struct like this allows us to add more configuration
  19:../../libDaisy/src/per/adc.h **** later without breaking existing functionality.
  20:../../libDaisy/src/per/adc.h **** */
  21:../../libDaisy/src/per/adc.h **** 
  22:../../libDaisy/src/per/adc.h **** /** Configuration Structure for a given channel */
  23:../../libDaisy/src/per/adc.h **** struct AdcChannelConfig
  24:../../libDaisy/src/per/adc.h **** {
  25:../../libDaisy/src/per/adc.h ****     /** Which pin to use for multiplexing */
  26:../../libDaisy/src/per/adc.h ****     enum MuxPin
ARM GAS  C:\Users\seanw\AppData\Local\Temp\ccbivcrf.s 			page 17


  27:../../libDaisy/src/per/adc.h ****     {
  28:../../libDaisy/src/per/adc.h ****         MUX_SEL_0,    /**< & */
  29:../../libDaisy/src/per/adc.h ****         MUX_SEL_1,    /**< & */
  30:../../libDaisy/src/per/adc.h ****         MUX_SEL_2,    /**< & */
  31:../../libDaisy/src/per/adc.h ****         MUX_SEL_LAST, /**< & */
  32:../../libDaisy/src/per/adc.h ****     };
  33:../../libDaisy/src/per/adc.h **** 
  34:../../libDaisy/src/per/adc.h ****     /** Initializes a single ADC pin as an ADC. 
  35:../../libDaisy/src/per/adc.h ****     \param pin Pin to init.
  36:../../libDaisy/src/per/adc.h ****      */
  37:../../libDaisy/src/per/adc.h ****     void InitSingle(dsy_gpio_pin pin);
  38:../../libDaisy/src/per/adc.h **** 
  39:../../libDaisy/src/per/adc.h ****     /** 
  40:../../libDaisy/src/per/adc.h ****     Initializes a single ADC pin as a Multiplexed ADC.
  41:../../libDaisy/src/per/adc.h ****     Requires a CD405X Multiplexer connected to the pin.
  42:../../libDaisy/src/per/adc.h ****     You only need to supply the mux pins that are required,
  43:../../libDaisy/src/per/adc.h ****     e.g. a 4052 mux would only require mux_0 and mux_1.
  44:../../libDaisy/src/per/adc.h ****     Internal Callbacks handle the pin addressing.
  45:../../libDaisy/src/per/adc.h ****     \param mux_channels must be 1-8
  46:../../libDaisy/src/per/adc.h ****     \param mux_0 First mux pin
  47:../../libDaisy/src/per/adc.h ****     \param mux_1 Second mux pin
  48:../../libDaisy/src/per/adc.h ****     \param mux_2 Third mux pin
  49:../../libDaisy/src/per/adc.h ****     \param adc_pin &
  50:../../libDaisy/src/per/adc.h ****     */
  51:../../libDaisy/src/per/adc.h ****     void InitMux(dsy_gpio_pin adc_pin,
  52:../../libDaisy/src/per/adc.h ****                  size_t       mux_channels,
  53:../../libDaisy/src/per/adc.h ****                  dsy_gpio_pin mux_0,
  54:../../libDaisy/src/per/adc.h ****                  dsy_gpio_pin mux_1 = {DSY_GPIOX, 0},
  55:../../libDaisy/src/per/adc.h ****                  dsy_gpio_pin mux_2 = {DSY_GPIOX, 0});
  56:../../libDaisy/src/per/adc.h **** 
  57:../../libDaisy/src/per/adc.h ****     dsy_gpio pin_;                   /**< & */
  58:../../libDaisy/src/per/adc.h ****     dsy_gpio mux_pin_[MUX_SEL_LAST]; /**< & */
  59:../../libDaisy/src/per/adc.h ****     uint8_t  mux_channels_;          /**< & */
  60:../../libDaisy/src/per/adc.h **** };
  61:../../libDaisy/src/per/adc.h **** 
  62:../../libDaisy/src/per/adc.h **** /**
  63:../../libDaisy/src/per/adc.h ****    Handler for analog to digital conversion
  64:../../libDaisy/src/per/adc.h **** */
  65:../../libDaisy/src/per/adc.h **** class AdcHandle
  66:../../libDaisy/src/per/adc.h **** {
  67:../../libDaisy/src/per/adc.h ****   public:
  68:../../libDaisy/src/per/adc.h ****     /** Supported oversampling amounts */
  69:../../libDaisy/src/per/adc.h ****     enum OverSampling
  70:../../libDaisy/src/per/adc.h ****     {
  71:../../libDaisy/src/per/adc.h ****         OVS_NONE, /**< & */
  72:../../libDaisy/src/per/adc.h ****         OVS_4,    /**< & */
  73:../../libDaisy/src/per/adc.h ****         OVS_8,    /**< & */
  74:../../libDaisy/src/per/adc.h ****         OVS_16,   /**< & */
  75:../../libDaisy/src/per/adc.h ****         OVS_32,   /**< & */
  76:../../libDaisy/src/per/adc.h ****         OVS_64,   /**< & */
  77:../../libDaisy/src/per/adc.h ****         OVS_128,  /**< & */
  78:../../libDaisy/src/per/adc.h ****         OVS_256,  /**< & */
  79:../../libDaisy/src/per/adc.h ****         OVS_512,  /**< & */
  80:../../libDaisy/src/per/adc.h ****         OVS_1024, /**< & */
  81:../../libDaisy/src/per/adc.h ****         OVS_LAST, /**< & */
  82:../../libDaisy/src/per/adc.h ****     };
  83:../../libDaisy/src/per/adc.h **** 
ARM GAS  C:\Users\seanw\AppData\Local\Temp\ccbivcrf.s 			page 18


  84:../../libDaisy/src/per/adc.h ****     AdcHandle() {}
  85:../../libDaisy/src/per/adc.h ****     ~AdcHandle() {}
 241              		.loc 15 85 5 is_stmt 1 view .LVU44
 242              		.loc 15 85 5 is_stmt 0 view .LVU45
 243              	.LBE543:
 244              	.LBB544:
 245              	.LBI544:
 246              		.file 16 "../../libDaisy/src/hid/audio.h"
   1:../../libDaisy/src/hid/audio.h **** #ifndef DSY_AUDIO_H
   2:../../libDaisy/src/hid/audio.h **** #define DSY_AUDIO_H /**< & */
   3:../../libDaisy/src/hid/audio.h **** 
   4:../../libDaisy/src/hid/audio.h **** #include "per/sai.h"
   5:../../libDaisy/src/hid/audio.h **** 
   6:../../libDaisy/src/hid/audio.h **** namespace daisy
   7:../../libDaisy/src/hid/audio.h **** {
   8:../../libDaisy/src/hid/audio.h **** class AudioHandle
   9:../../libDaisy/src/hid/audio.h **** {
  10:../../libDaisy/src/hid/audio.h ****   public:
  11:../../libDaisy/src/hid/audio.h ****     /** Manually configurable details about the Audio Engine */
  12:../../libDaisy/src/hid/audio.h ****     /** TODO: Figure out how to get samplerate in here. */
  13:../../libDaisy/src/hid/audio.h ****     struct Config
  14:../../libDaisy/src/hid/audio.h ****     {
  15:../../libDaisy/src/hid/audio.h ****         size_t                        blocksize;
  16:../../libDaisy/src/hid/audio.h ****         SaiHandle::Config::SampleRate samplerate;
  17:../../libDaisy/src/hid/audio.h ****         float                         postgain;
  18:../../libDaisy/src/hid/audio.h ****     };
  19:../../libDaisy/src/hid/audio.h **** 
  20:../../libDaisy/src/hid/audio.h ****     enum class Result
  21:../../libDaisy/src/hid/audio.h ****     {
  22:../../libDaisy/src/hid/audio.h ****         OK,
  23:../../libDaisy/src/hid/audio.h ****         ERR,
  24:../../libDaisy/src/hid/audio.h ****     };
  25:../../libDaisy/src/hid/audio.h **** 
  26:../../libDaisy/src/hid/audio.h ****     /** Non-Interleaving input buffer
  27:../../libDaisy/src/hid/audio.h ****      * Buffer arranged by float[chn][sample] 
  28:../../libDaisy/src/hid/audio.h ****      * const so that the user can't modify the input
  29:../../libDaisy/src/hid/audio.h ****     */
  30:../../libDaisy/src/hid/audio.h ****     typedef const float* const* InputBuffer;
  31:../../libDaisy/src/hid/audio.h **** 
  32:../../libDaisy/src/hid/audio.h ****     /** Non-Interleaving output buffer
  33:../../libDaisy/src/hid/audio.h ****      * Arranged by float[chn][sample] 
  34:../../libDaisy/src/hid/audio.h ****     */
  35:../../libDaisy/src/hid/audio.h ****     typedef float** OutputBuffer;
  36:../../libDaisy/src/hid/audio.h **** 
  37:../../libDaisy/src/hid/audio.h ****     /** Type for a Non-Interleaving audio callback 
  38:../../libDaisy/src/hid/audio.h ****    * Non-Interleaving audio callbacks in daisy will be of this type
  39:../../libDaisy/src/hid/audio.h ****   */
  40:../../libDaisy/src/hid/audio.h ****     typedef void (*AudioCallback)(InputBuffer  in,
  41:../../libDaisy/src/hid/audio.h ****                                   OutputBuffer out,
  42:../../libDaisy/src/hid/audio.h ****                                   size_t       size);
  43:../../libDaisy/src/hid/audio.h **** 
  44:../../libDaisy/src/hid/audio.h ****     /** Interleaving Input buffer
  45:../../libDaisy/src/hid/audio.h ****      ** audio is prepared as { L0, R0, L1, R1, . . . LN, RN }]
  46:../../libDaisy/src/hid/audio.h ****      ** this is const, as the user shouldn't modify it
  47:../../libDaisy/src/hid/audio.h ****     */
  48:../../libDaisy/src/hid/audio.h ****     typedef const float* InterleavingInputBuffer;
  49:../../libDaisy/src/hid/audio.h **** 
ARM GAS  C:\Users\seanw\AppData\Local\Temp\ccbivcrf.s 			page 19


  50:../../libDaisy/src/hid/audio.h ****     /** Interleaving Output buffer 
  51:../../libDaisy/src/hid/audio.h ****      ** audio is prepared as { L0, R0, L1, R1, . . . LN, RN }
  52:../../libDaisy/src/hid/audio.h ****     */
  53:../../libDaisy/src/hid/audio.h ****     typedef float* InterleavingOutputBuffer;
  54:../../libDaisy/src/hid/audio.h **** 
  55:../../libDaisy/src/hid/audio.h ****     /** Interleaving Audio Callback 
  56:../../libDaisy/src/hid/audio.h ****    * Interleaving audio callbacks in daisy must be of this type
  57:../../libDaisy/src/hid/audio.h ****   */
  58:../../libDaisy/src/hid/audio.h ****     typedef void (*InterleavingAudioCallback)(InterleavingInputBuffer  in,
  59:../../libDaisy/src/hid/audio.h ****                                               InterleavingOutputBuffer out,
  60:../../libDaisy/src/hid/audio.h ****                                               size_t                   size);
  61:../../libDaisy/src/hid/audio.h **** 
  62:../../libDaisy/src/hid/audio.h ****     AudioHandle() : pimpl_(nullptr) {}
  63:../../libDaisy/src/hid/audio.h ****     ~AudioHandle() {}
 247              		.loc 16 63 5 is_stmt 1 view .LVU46
 248              		.loc 16 63 5 is_stmt 0 view .LVU47
 249              	.LBE544:
 250              	.LBE540:
 251              		.loc 6 36 18 view .LVU48
 252 0000 7047     		bx	lr
 253              		.cfi_endproc
 254              	.LFE4400:
 256              		.weak	_ZN5daisy8DaisyPodD1Ev
 257              		.thumb_set _ZN5daisy8DaisyPodD1Ev,_ZN5daisy8DaisyPodD2Ev
 258 0002 00BF     		.section	.text._ZN7daisysp9DelayLineIfLj120000EED2Ev,"axG",%progbits,_ZN7daisysp9DelayLineIfLj1200
 259              		.align	1
 260              		.p2align 2,,3
 261              		.weak	_ZN7daisysp9DelayLineIfLj120000EED2Ev
 262              		.syntax unified
 263              		.thumb
 264              		.thumb_func
 265              		.fpu fpv5-d16
 267              	_ZN7daisysp9DelayLineIfLj120000EED2Ev:
 268              	.LVL5:
 269              	.LFB4994:
 270              		.file 17 "../../DaisySP/Source/Utility/delayline.h"
   1:../../DaisySP/Source/Utility/delayline.h **** #pragma once
   2:../../DaisySP/Source/Utility/delayline.h **** #ifndef DSY_DELAY_H
   3:../../DaisySP/Source/Utility/delayline.h **** #define DSY_DELAY_H
   4:../../DaisySP/Source/Utility/delayline.h **** #include <stdlib.h>
   5:../../DaisySP/Source/Utility/delayline.h **** #include <stdint.h>
   6:../../DaisySP/Source/Utility/delayline.h **** namespace daisysp
   7:../../DaisySP/Source/Utility/delayline.h **** {
   8:../../DaisySP/Source/Utility/delayline.h **** /** Simple Delay line.
   9:../../DaisySP/Source/Utility/delayline.h **** November 2019
  10:../../DaisySP/Source/Utility/delayline.h **** 
  11:../../DaisySP/Source/Utility/delayline.h **** Converted to Template December 2019
  12:../../DaisySP/Source/Utility/delayline.h **** 
  13:../../DaisySP/Source/Utility/delayline.h **** declaration example: (1 second of floats)
  14:../../DaisySP/Source/Utility/delayline.h **** 
  15:../../DaisySP/Source/Utility/delayline.h **** DelayLine<float, SAMPLE_RATE> del;
  16:../../DaisySP/Source/Utility/delayline.h **** 
  17:../../DaisySP/Source/Utility/delayline.h **** By: shensley
  18:../../DaisySP/Source/Utility/delayline.h **** */
  19:../../DaisySP/Source/Utility/delayline.h **** template <typename T, size_t max_size>
  20:../../DaisySP/Source/Utility/delayline.h **** class DelayLine
  21:../../DaisySP/Source/Utility/delayline.h **** {
ARM GAS  C:\Users\seanw\AppData\Local\Temp\ccbivcrf.s 			page 20


  22:../../DaisySP/Source/Utility/delayline.h ****   public:
  23:../../DaisySP/Source/Utility/delayline.h ****     DelayLine() {}
  24:../../DaisySP/Source/Utility/delayline.h ****     ~DelayLine() {}
 271              		.loc 17 24 5 is_stmt 1 view -0
 272              		.cfi_startproc
 273              		@ args = 0, pretend = 0, frame = 0
 274              		@ frame_needed = 0, uses_anonymous_args = 0
 275              		@ link register save eliminated.
 276              		.loc 17 24 19 is_stmt 0 view .LVU50
 277 0000 7047     		bx	lr
 278              		.cfi_endproc
 279              	.LFE4994:
 281              		.weak	_ZN7daisysp9DelayLineIfLj120000EED1Ev
 282              		.thumb_set _ZN7daisysp9DelayLineIfLj120000EED1Ev,_ZN7daisysp9DelayLineIfLj120000EED2Ev
 283              		.section	.text._ZN7daisysp12PitchShifter16SetTranspositionERKf.isra.0,"ax",%progbits
 284              		.align	1
 285              		.p2align 2,,3
 286              		.syntax unified
 287              		.thumb
 288              		.thumb_func
 289              		.fpu fpv5-d16
 291              	_ZN7daisysp12PitchShifter16SetTranspositionERKf.isra.0:
 292              	.LVL6:
 293              	.LFB4997:
  61:../../DaisySP/Source/Effects/pitchshifter.h ****     /** Initialize pitch shifter
  62:../../DaisySP/Source/Effects/pitchshifter.h ****     */
  63:../../DaisySP/Source/Effects/pitchshifter.h ****     void Init(float sr)
  64:../../DaisySP/Source/Effects/pitchshifter.h ****     {
  65:../../DaisySP/Source/Effects/pitchshifter.h ****         force_recalc_ = false;
  66:../../DaisySP/Source/Effects/pitchshifter.h ****         sr_           = sr;
  67:../../DaisySP/Source/Effects/pitchshifter.h ****         mod_freq_     = 5.0f;
  68:../../DaisySP/Source/Effects/pitchshifter.h ****         SetSemitones();
  69:../../DaisySP/Source/Effects/pitchshifter.h ****         for(uint8_t i = 0; i < 2; i++)
  70:../../DaisySP/Source/Effects/pitchshifter.h ****         {
  71:../../DaisySP/Source/Effects/pitchshifter.h ****             gain_[i] = 0.0f;
  72:../../DaisySP/Source/Effects/pitchshifter.h ****             d_[i].Init();
  73:../../DaisySP/Source/Effects/pitchshifter.h ****             phs_[i].Init(sr, 50, i == 0 ? 0 : PI_F);
  74:../../DaisySP/Source/Effects/pitchshifter.h ****         }
  75:../../DaisySP/Source/Effects/pitchshifter.h ****         shift_up_ = true;
  76:../../DaisySP/Source/Effects/pitchshifter.h ****         del_size_ = SHIFT_BUFFER_SIZE;
  77:../../DaisySP/Source/Effects/pitchshifter.h ****         SetDelSize(del_size_);
  78:../../DaisySP/Source/Effects/pitchshifter.h ****         fun_ = 0.0f;
  79:../../DaisySP/Source/Effects/pitchshifter.h ****     }
  80:../../DaisySP/Source/Effects/pitchshifter.h **** 
  81:../../DaisySP/Source/Effects/pitchshifter.h ****     /** process pitch shifter
  82:../../DaisySP/Source/Effects/pitchshifter.h ****     */
  83:../../DaisySP/Source/Effects/pitchshifter.h ****     float Process(float &in)
  84:../../DaisySP/Source/Effects/pitchshifter.h ****     {
  85:../../DaisySP/Source/Effects/pitchshifter.h ****         float val, fade1, fade2;
  86:../../DaisySP/Source/Effects/pitchshifter.h ****         // First Process delay mod/crossfade
  87:../../DaisySP/Source/Effects/pitchshifter.h ****         fade1 = phs_[0].Process();
  88:../../DaisySP/Source/Effects/pitchshifter.h ****         fade2 = phs_[1].Process();
  89:../../DaisySP/Source/Effects/pitchshifter.h ****         if(prev_phs_a_ > fade1)
  90:../../DaisySP/Source/Effects/pitchshifter.h ****         {
  91:../../DaisySP/Source/Effects/pitchshifter.h ****             mod_a_amt_ = fun_ * ((float)(myrand() % 255) / 255.0f)
  92:../../DaisySP/Source/Effects/pitchshifter.h ****                          * (del_size_ * 0.5f);
  93:../../DaisySP/Source/Effects/pitchshifter.h ****             mod_coeff_[0]
ARM GAS  C:\Users\seanw\AppData\Local\Temp\ccbivcrf.s 			page 21


  94:../../DaisySP/Source/Effects/pitchshifter.h ****                 = 0.0002f + (((float)(myrand() % 255) / 255.0f) * 0.001f);
  95:../../DaisySP/Source/Effects/pitchshifter.h ****         }
  96:../../DaisySP/Source/Effects/pitchshifter.h ****         if(prev_phs_b_ > fade2)
  97:../../DaisySP/Source/Effects/pitchshifter.h ****         {
  98:../../DaisySP/Source/Effects/pitchshifter.h ****             mod_b_amt_ = fun_ * ((float)(myrand() % 255) / 255.0f)
  99:../../DaisySP/Source/Effects/pitchshifter.h ****                          * (del_size_ * 0.5f);
 100:../../DaisySP/Source/Effects/pitchshifter.h ****             mod_coeff_[1]
 101:../../DaisySP/Source/Effects/pitchshifter.h ****                 = 0.0002f + (((float)(myrand() % 255) / 255.0f) * 0.001f);
 102:../../DaisySP/Source/Effects/pitchshifter.h ****         }
 103:../../DaisySP/Source/Effects/pitchshifter.h ****         slewed_mod_[0] += mod_coeff_[0] * (mod_a_amt_ - slewed_mod_[0]);
 104:../../DaisySP/Source/Effects/pitchshifter.h ****         slewed_mod_[1] += mod_coeff_[1] * (mod_b_amt_ - slewed_mod_[1]);
 105:../../DaisySP/Source/Effects/pitchshifter.h ****         prev_phs_a_ = fade1;
 106:../../DaisySP/Source/Effects/pitchshifter.h ****         prev_phs_b_ = fade2;
 107:../../DaisySP/Source/Effects/pitchshifter.h ****         if(shift_up_)
 108:../../DaisySP/Source/Effects/pitchshifter.h ****         {
 109:../../DaisySP/Source/Effects/pitchshifter.h ****             fade1 = 1.0f - fade1;
 110:../../DaisySP/Source/Effects/pitchshifter.h ****             fade2 = 1.0f - fade2;
 111:../../DaisySP/Source/Effects/pitchshifter.h ****         }
 112:../../DaisySP/Source/Effects/pitchshifter.h ****         mod_[0] = fade1 * (del_size_ - 1);
 113:../../DaisySP/Source/Effects/pitchshifter.h ****         mod_[1] = fade2 * (del_size_ - 1);
 114:../../DaisySP/Source/Effects/pitchshifter.h **** #ifdef USE_ARM_DSP
 115:../../DaisySP/Source/Effects/pitchshifter.h ****         gain_[0] = arm_sin_f32(fade1 * (float)M_PI);
 116:../../DaisySP/Source/Effects/pitchshifter.h ****         gain_[1] = arm_sin_f32(fade2 * (float)M_PI);
 117:../../DaisySP/Source/Effects/pitchshifter.h **** #else
 118:../../DaisySP/Source/Effects/pitchshifter.h ****         gain_[0] = sinf(fade1 * PI_F);
 119:../../DaisySP/Source/Effects/pitchshifter.h ****         gain_[1] = sinf(fade2 * PI_F);
 120:../../DaisySP/Source/Effects/pitchshifter.h **** #endif
 121:../../DaisySP/Source/Effects/pitchshifter.h **** 
 122:../../DaisySP/Source/Effects/pitchshifter.h ****         // Handle Delay Writing
 123:../../DaisySP/Source/Effects/pitchshifter.h ****         d_[0].Write(in);
 124:../../DaisySP/Source/Effects/pitchshifter.h ****         d_[1].Write(in);
 125:../../DaisySP/Source/Effects/pitchshifter.h ****         // Modulate Delay Lines
 126:../../DaisySP/Source/Effects/pitchshifter.h ****         //mod_a_amt = mod_b_amt = 0.0f;
 127:../../DaisySP/Source/Effects/pitchshifter.h ****         d_[0].SetDelay(mod_[0] + mod_a_amt_);
 128:../../DaisySP/Source/Effects/pitchshifter.h ****         d_[1].SetDelay(mod_[1] + mod_b_amt_);
 129:../../DaisySP/Source/Effects/pitchshifter.h ****         d_[0].SetDelay(mod_[0] + slewed_mod_[0]);
 130:../../DaisySP/Source/Effects/pitchshifter.h ****         d_[1].SetDelay(mod_[1] + slewed_mod_[1]);
 131:../../DaisySP/Source/Effects/pitchshifter.h ****         val = 0.0f;
 132:../../DaisySP/Source/Effects/pitchshifter.h ****         val += (d_[0].Read() * gain_[0]);
 133:../../DaisySP/Source/Effects/pitchshifter.h ****         val += (d_[1].Read() * gain_[1]);
 134:../../DaisySP/Source/Effects/pitchshifter.h ****         return val;
 135:../../DaisySP/Source/Effects/pitchshifter.h ****     }
 136:../../DaisySP/Source/Effects/pitchshifter.h **** 
 137:../../DaisySP/Source/Effects/pitchshifter.h ****     /** sets transposition in semitones
 138:../../DaisySP/Source/Effects/pitchshifter.h ****     */
 139:../../DaisySP/Source/Effects/pitchshifter.h ****     void SetTransposition(const float &transpose)
 294              		.loc 3 139 10 is_stmt 1 view -0
 295              		.cfi_startproc
 296              		@ args = 0, pretend = 0, frame = 8
 297              		@ frame_needed = 0, uses_anonymous_args = 0
 140:../../DaisySP/Source/Effects/pitchshifter.h ****     {
 141:../../DaisySP/Source/Effects/pitchshifter.h ****         float   ratio;
 298              		.loc 3 141 9 view .LVU52
 142:../../DaisySP/Source/Effects/pitchshifter.h ****         uint8_t idx;
 299              		.loc 3 142 9 view .LVU53
 143:../../DaisySP/Source/Effects/pitchshifter.h ****         if(transpose_ != transpose || force_recalc_)
 300              		.loc 3 143 9 view .LVU54
ARM GAS  C:\Users\seanw\AppData\Local\Temp\ccbivcrf.s 			page 22


 139:../../DaisySP/Source/Effects/pitchshifter.h ****     {
 301              		.loc 3 139 10 is_stmt 0 view .LVU55
 302 0000 30B5     		push	{r4, r5, lr}
 303              		.cfi_def_cfa_offset 12
 304              		.cfi_offset 4, -12
 305              		.cfi_offset 5, -8
 306              		.cfi_offset 14, -4
 307              		.loc 3 143 12 view .LVU56
 308 0002 00F50034 		add	r4, r0, #131072
 139:../../DaisySP/Source/Effects/pitchshifter.h ****     {
 309              		.loc 3 139 10 view .LVU57
 310 0006 83B0     		sub	sp, sp, #12
 311              		.cfi_def_cfa_offset 24
 139:../../DaisySP/Source/Effects/pitchshifter.h ****     {
 312              		.loc 3 139 10 view .LVU58
 313 0008 0546     		mov	r5, r0
 314              		.loc 3 143 9 view .LVU59
 315 000a D4ED187A 		vldr.32	s15, [r4, #96]
 316 000e F4EE407A 		vcmp.f32	s15, s0
 317 0012 F1EE10FA 		vmrs	APSR_nzcv, FPSCR
 318 0016 03D1     		bne	.L9
 319              		.loc 3 143 36 view .LVU60
 320 0018 94F82430 		ldrb	r3, [r4, #36]	@ zero_extendqisi2
 321 001c 002B     		cmp	r3, #0
 322 001e 59D0     		beq	.L8
 323              	.L9:
 144:../../DaisySP/Source/Effects/pitchshifter.h ****         {
 145:../../DaisySP/Source/Effects/pitchshifter.h ****             transpose_ = transpose;
 324              		.loc 3 145 13 is_stmt 1 view .LVU61
 146:../../DaisySP/Source/Effects/pitchshifter.h ****             idx        = (uint8_t)fabsf(transpose);
 325              		.loc 3 146 40 is_stmt 0 view .LVU62
 326 0020 F0EEC06A 		vabs.f32	s13, s0
 147:../../DaisySP/Source/Effects/pitchshifter.h ****             ratio      = semitone_ratios_[idx % 12];
 327              		.loc 3 147 47 view .LVU63
 328 0024 2F4A     		ldr	r2, .L18
 148:../../DaisySP/Source/Effects/pitchshifter.h ****             ratio *= (uint8_t)(fabsf(transpose) / 12) + 1;
 329              		.loc 3 148 49 view .LVU64
 330 0026 F2EE085A 		vmov.f32	s11, #1.2e+1
 147:../../DaisySP/Source/Effects/pitchshifter.h ****             ratio      = semitone_ratios_[idx % 12];
 331              		.loc 3 147 24 view .LVU65
 332 002a 48F22201 		movw	r1, #32802
 149:../../DaisySP/Source/Effects/pitchshifter.h ****             if(transpose > 0.0f)
 150:../../DaisySP/Source/Effects/pitchshifter.h ****             {
 151:../../DaisySP/Source/Effects/pitchshifter.h ****                 shift_up_ = true;
 152:../../DaisySP/Source/Effects/pitchshifter.h ****             }
 153:../../DaisySP/Source/Effects/pitchshifter.h ****             else
 154:../../DaisySP/Source/Effects/pitchshifter.h ****             {
 155:../../DaisySP/Source/Effects/pitchshifter.h ****                 shift_up_ = false;
 156:../../DaisySP/Source/Effects/pitchshifter.h ****             }
 157:../../DaisySP/Source/Effects/pitchshifter.h ****             mod_freq_ = ((ratio - 1.0f) * sr_) / del_size_;
 333              		.loc 3 157 33 view .LVU66
 334 002e BFEE007A 		vmov.f32	s14, #-1.0e+0
 335              		.loc 3 157 41 view .LVU67
 336 0032 94ED0A6A 		vldr.32	s12, [r4, #40]
 149:../../DaisySP/Source/Effects/pitchshifter.h ****             if(transpose > 0.0f)
 337              		.loc 3 149 13 view .LVU68
 338 0036 B5EEC00A 		vcmpe.f32	s0, #0
ARM GAS  C:\Users\seanw\AppData\Local\Temp\ccbivcrf.s 			page 23


 145:../../DaisySP/Source/Effects/pitchshifter.h ****             idx        = (uint8_t)fabsf(transpose);
 339              		.loc 3 145 24 view .LVU69
 340 003a 84ED180A 		vstr.32	s0, [r4, #96]
 148:../../DaisySP/Source/Effects/pitchshifter.h ****             ratio *= (uint8_t)(fabsf(transpose) / 12) + 1;
 341              		.loc 3 148 49 view .LVU70
 342 003e C6EEA57A 		vdiv.f32	s15, s13, s11
 146:../../DaisySP/Source/Effects/pitchshifter.h ****             ratio      = semitone_ratios_[idx % 12];
 343              		.loc 3 146 13 is_stmt 1 view .LVU71
 344              	.LVL7:
 147:../../DaisySP/Source/Effects/pitchshifter.h ****             ratio *= (uint8_t)(fabsf(transpose) / 12) + 1;
 345              		.loc 3 147 13 view .LVU72
 158:../../DaisySP/Source/Effects/pitchshifter.h ****             if(mod_freq_ < 0.0f)
 346              		.loc 3 158 13 is_stmt 0 view .LVU73
 347 0042 9FED295A 		vldr.32	s10, .L18+4
 146:../../DaisySP/Source/Effects/pitchshifter.h ****             ratio      = semitone_ratios_[idx % 12];
 348              		.loc 3 146 24 view .LVU74
 349 0046 FCEEE66A 		vcvt.u32.f32	s13, s13
 350              	.LVL8:
 149:../../DaisySP/Source/Effects/pitchshifter.h ****             {
 351              		.loc 3 149 13 view .LVU75
 352 004a F1EE10FA 		vmrs	APSR_nzcv, FPSCR
 146:../../DaisySP/Source/Effects/pitchshifter.h ****             ratio      = semitone_ratios_[idx % 12];
 353              		.loc 3 146 24 view .LVU76
 354 004e CDED016A 		vstr.32	s13, [sp, #4]	@ int
 147:../../DaisySP/Source/Effects/pitchshifter.h ****             ratio *= (uint8_t)(fabsf(transpose) / 12) + 1;
 355              		.loc 3 147 47 view .LVU77
 356 0052 9DF80430 		ldrb	r3, [sp, #4]	@ zero_extendqisi2
 157:../../DaisySP/Source/Effects/pitchshifter.h ****             if(mod_freq_ < 0.0f)
 357              		.loc 3 157 48 view .LVU78
 358 0056 D4ED086A 		vldr.32	s13, [r4, #32]	@ int
 147:../../DaisySP/Source/Effects/pitchshifter.h ****             ratio *= (uint8_t)(fabsf(transpose) / 12) + 1;
 359              		.loc 3 147 47 view .LVU79
 360 005a A2FB0302 		umull	r0, r2, r2, r3
 361              	.LVL9:
 157:../../DaisySP/Source/Effects/pitchshifter.h ****             if(mod_freq_ < 0.0f)
 362              		.loc 3 157 48 view .LVU80
 363 005e F8EE666A 		vcvt.f32.u32	s13, s13
 147:../../DaisySP/Source/Effects/pitchshifter.h ****             ratio *= (uint8_t)(fabsf(transpose) / 12) + 1;
 364              		.loc 3 147 47 view .LVU81
 365 0062 4FEAD202 		lsr	r2, r2, #3
 366 0066 02EB4202 		add	r2, r2, r2, lsl #1
 148:../../DaisySP/Source/Effects/pitchshifter.h ****             if(transpose > 0.0f)
 367              		.loc 3 148 22 view .LVU82
 368 006a FCEEE77A 		vcvt.u32.f32	s15, s15
 147:../../DaisySP/Source/Effects/pitchshifter.h ****             ratio *= (uint8_t)(fabsf(transpose) / 12) + 1;
 369              		.loc 3 147 47 view .LVU83
 370 006e A3EB8203 		sub	r3, r3, r2, lsl #2
 149:../../DaisySP/Source/Effects/pitchshifter.h ****             {
 371              		.loc 3 149 13 view .LVU84
 372 0072 CCBF     		ite	gt
 373 0074 0122     		movgt	r2, #1
 374 0076 0022     		movle	r2, #0
 147:../../DaisySP/Source/Effects/pitchshifter.h ****             ratio *= (uint8_t)(fabsf(transpose) / 12) + 1;
 375              		.loc 3 147 24 view .LVU85
 376 0078 51FA83F3 		uxtab	r3, r1, r3
 148:../../DaisySP/Source/Effects/pitchshifter.h ****             if(transpose > 0.0f)
 377              		.loc 3 148 22 view .LVU86
ARM GAS  C:\Users\seanw\AppData\Local\Temp\ccbivcrf.s 			page 24


 378 007c CDED017A 		vstr.32	s15, [sp, #4]	@ int
 147:../../DaisySP/Source/Effects/pitchshifter.h ****             ratio *= (uint8_t)(fabsf(transpose) / 12) + 1;
 379              		.loc 3 147 24 view .LVU87
 380 0080 05EB8303 		add	r3, r5, r3, lsl #2
 381 0084 D3ED005A 		vldr.32	s11, [r3]
 382              	.LVL10:
 148:../../DaisySP/Source/Effects/pitchshifter.h ****             if(transpose > 0.0f)
 383              		.loc 3 148 13 is_stmt 1 view .LVU88
 149:../../DaisySP/Source/Effects/pitchshifter.h ****             {
 384              		.loc 3 149 13 view .LVU89
 148:../../DaisySP/Source/Effects/pitchshifter.h ****             if(transpose > 0.0f)
 385              		.loc 3 148 22 is_stmt 0 view .LVU90
 386 0088 9DF80430 		ldrb	r3, [sp, #4]	@ zero_extendqisi2
 149:../../DaisySP/Source/Effects/pitchshifter.h ****             {
 387              		.loc 3 149 13 view .LVU91
 388 008c 84F82C20 		strb	r2, [r4, #44]
 157:../../DaisySP/Source/Effects/pitchshifter.h ****             if(mod_freq_ < 0.0f)
 389              		.loc 3 157 13 is_stmt 1 view .LVU92
 148:../../DaisySP/Source/Effects/pitchshifter.h ****             if(transpose > 0.0f)
 390              		.loc 3 148 55 is_stmt 0 view .LVU93
 391 0090 0133     		adds	r3, r3, #1
 148:../../DaisySP/Source/Effects/pitchshifter.h ****             if(transpose > 0.0f)
 392              		.loc 3 148 19 view .LVU94
 393 0092 07EE903A 		vmov	s15, r3	@ int
 394 0096 F8EEE77A 		vcvt.f32.s32	s15, s15
 157:../../DaisySP/Source/Effects/pitchshifter.h ****             if(mod_freq_ < 0.0f)
 395              		.loc 3 157 33 view .LVU95
 396 009a A5EEA77A 		vfma.f32	s14, s11, s15
 157:../../DaisySP/Source/Effects/pitchshifter.h ****             if(mod_freq_ < 0.0f)
 397              		.loc 3 157 41 view .LVU96
 398 009e 67EE067A 		vmul.f32	s15, s14, s12
 157:../../DaisySP/Source/Effects/pitchshifter.h ****             if(mod_freq_ < 0.0f)
 399              		.loc 3 157 48 view .LVU97
 400 00a2 87EEA60A 		vdiv.f32	s0, s15, s13
 401              		.loc 3 158 13 is_stmt 1 view .LVU98
 402 00a6 B4EEC50A 		vcmpe.f32	s0, s10
 403 00aa F1EE10FA 		vmrs	APSR_nzcv, FPSCR
 404 00ae 13D4     		bmi	.L11
 157:../../DaisySP/Source/Effects/pitchshifter.h ****             if(mod_freq_ < 0.0f)
 405              		.loc 3 157 23 is_stmt 0 view .LVU99
 406 00b0 84ED070A 		vstr.32	s0, [r4, #28]
 407              	.L12:
 159:../../DaisySP/Source/Effects/pitchshifter.h ****             {
 160:../../DaisySP/Source/Effects/pitchshifter.h ****                 mod_freq_ = 0.0f;
 161:../../DaisySP/Source/Effects/pitchshifter.h ****             }
 162:../../DaisySP/Source/Effects/pitchshifter.h ****             phs_[0].SetFreq(mod_freq_);
 408              		.loc 3 162 13 is_stmt 1 view .LVU100
 409              		.loc 3 162 28 is_stmt 0 view .LVU101
 410 00b4 0D48     		ldr	r0, .L18+8
 411 00b6 2844     		add	r0, r0, r5
 412 00b8 FFF7FEFF 		bl	_ZN7daisysp6Phasor7SetFreqEf
 413              	.LVL11:
 163:../../DaisySP/Source/Effects/pitchshifter.h ****             phs_[1].SetFreq(mod_freq_);
 414              		.loc 3 163 13 is_stmt 1 view .LVU102
 415              		.loc 3 163 28 is_stmt 0 view .LVU103
 416 00bc 0C48     		ldr	r0, .L18+12
 417 00be 94ED070A 		vldr.32	s0, [r4, #28]
ARM GAS  C:\Users\seanw\AppData\Local\Temp\ccbivcrf.s 			page 25


 418 00c2 2844     		add	r0, r0, r5
 419 00c4 FFF7FEFF 		bl	_ZN7daisysp6Phasor7SetFreqEf
 420              	.LVL12:
 164:../../DaisySP/Source/Effects/pitchshifter.h ****             if(force_recalc_)
 421              		.loc 3 164 13 is_stmt 1 view .LVU104
 422 00c8 94F82430 		ldrb	r3, [r4, #36]	@ zero_extendqisi2
 423 00cc 13B1     		cbz	r3, .L8
 165:../../DaisySP/Source/Effects/pitchshifter.h ****             {
 166:../../DaisySP/Source/Effects/pitchshifter.h ****                 force_recalc_ = false;
 424              		.loc 3 166 17 view .LVU105
 425              		.loc 3 166 31 is_stmt 0 view .LVU106
 426 00ce 0023     		movs	r3, #0
 427 00d0 84F82430 		strb	r3, [r4, #36]
 428              	.L8:
 167:../../DaisySP/Source/Effects/pitchshifter.h ****             }
 168:../../DaisySP/Source/Effects/pitchshifter.h ****         }
 169:../../DaisySP/Source/Effects/pitchshifter.h ****     }
 429              		.loc 3 169 5 view .LVU107
 430 00d4 03B0     		add	sp, sp, #12
 431              		.cfi_remember_state
 432              		.cfi_def_cfa_offset 12
 433              		@ sp needed
 434 00d6 30BD     		pop	{r4, r5, pc}
 435              	.LVL13:
 436              	.L11:
 437              		.cfi_restore_state
 160:../../DaisySP/Source/Effects/pitchshifter.h ****             }
 438              		.loc 3 160 17 is_stmt 1 view .LVU108
 439 00d8 B0EE450A 		vmov.f32	s0, s10
 160:../../DaisySP/Source/Effects/pitchshifter.h ****             }
 440              		.loc 3 160 27 is_stmt 0 view .LVU109
 441 00dc 84ED075A 		vstr.32	s10, [r4, #28]
 442 00e0 E8E7     		b	.L12
 443              	.L19:
 444 00e2 00BF     		.align	2
 445              	.L18:
 446 00e4 ABAAAAAA 		.word	-1431655765
 447 00e8 00000000 		.word	0
 448 00ec 30000200 		.word	131120
 449 00f0 40000200 		.word	131136
 450              		.cfi_endproc
 451              	.LFE4997:
 453              		.section	.text._ZN7daisysp12PitchShifter7ProcessERf,"axG",%progbits,_ZN7daisysp12PitchShifter7Proc
 454              		.align	1
 455              		.p2align 2,,3
 456              		.weak	_ZN7daisysp12PitchShifter7ProcessERf
 457              		.syntax unified
 458              		.thumb
 459              		.thumb_func
 460              		.fpu fpv5-d16
 462              	_ZN7daisysp12PitchShifter7ProcessERf:
 463              	.LVL14:
 464              	.LFB3058:
  83:../../DaisySP/Source/Effects/pitchshifter.h ****     {
 465              		.loc 3 83 11 is_stmt 1 view -0
 466              		.cfi_startproc
 467              		@ args = 0, pretend = 0, frame = 0
ARM GAS  C:\Users\seanw\AppData\Local\Temp\ccbivcrf.s 			page 26


 468              		@ frame_needed = 0, uses_anonymous_args = 0
  85:../../DaisySP/Source/Effects/pitchshifter.h ****         // First Process delay mod/crossfade
 469              		.loc 3 85 9 view .LVU111
  87:../../DaisySP/Source/Effects/pitchshifter.h ****         fade2 = phs_[1].Process();
 470              		.loc 3 87 9 view .LVU112
  83:../../DaisySP/Source/Effects/pitchshifter.h ****     {
 471              		.loc 3 83 11 is_stmt 0 view .LVU113
 472 0000 F8B5     		push	{r3, r4, r5, r6, r7, lr}
 473              		.cfi_def_cfa_offset 24
 474              		.cfi_offset 3, -24
 475              		.cfi_offset 4, -20
 476              		.cfi_offset 5, -16
 477              		.cfi_offset 6, -12
 478              		.cfi_offset 7, -8
 479              		.cfi_offset 14, -4
 480 0002 0546     		mov	r5, r0
  87:../../DaisySP/Source/Effects/pitchshifter.h ****         fade2 = phs_[1].Process();
 481              		.loc 3 87 32 view .LVU114
 482 0004 A748     		ldr	r0, .L30
 483              	.LVL15:
  83:../../DaisySP/Source/Effects/pitchshifter.h ****     {
 484              		.loc 3 83 11 view .LVU115
 485 0006 0E46     		mov	r6, r1
  87:../../DaisySP/Source/Effects/pitchshifter.h ****         fade2 = phs_[1].Process();
 486              		.loc 3 87 32 view .LVU116
 487 0008 2844     		add	r0, r0, r5
  89:../../DaisySP/Source/Effects/pitchshifter.h ****         {
 488              		.loc 3 89 12 view .LVU117
 489 000a 05F50034 		add	r4, r5, #131072
  83:../../DaisySP/Source/Effects/pitchshifter.h ****     {
 490              		.loc 3 83 11 view .LVU118
 491 000e 2DED088B 		vpush.64	{d8, d9, d10, d11}
 492              		.cfi_def_cfa_offset 56
 493              		.cfi_offset 80, -56
 494              		.cfi_offset 81, -52
 495              		.cfi_offset 82, -48
 496              		.cfi_offset 83, -44
 497              		.cfi_offset 84, -40
 498              		.cfi_offset 85, -36
 499              		.cfi_offset 86, -32
 500              		.cfi_offset 87, -28
  87:../../DaisySP/Source/Effects/pitchshifter.h ****         fade2 = phs_[1].Process();
 501              		.loc 3 87 32 view .LVU119
 502 0012 FFF7FEFF 		bl	_ZN7daisysp6Phasor7ProcessEv
 503              	.LVL16:
  88:../../DaisySP/Source/Effects/pitchshifter.h ****         if(prev_phs_a_ > fade1)
 504              		.loc 3 88 32 view .LVU120
 505 0016 A448     		ldr	r0, .L30+4
  87:../../DaisySP/Source/Effects/pitchshifter.h ****         fade2 = phs_[1].Process();
 506              		.loc 3 87 32 view .LVU121
 507 0018 F0EE409A 		vmov.f32	s19, s0
 508              	.LVL17:
  88:../../DaisySP/Source/Effects/pitchshifter.h ****         if(prev_phs_a_ > fade1)
 509              		.loc 3 88 9 is_stmt 1 view .LVU122
  88:../../DaisySP/Source/Effects/pitchshifter.h ****         if(prev_phs_a_ > fade1)
 510              		.loc 3 88 32 is_stmt 0 view .LVU123
 511 001c 2844     		add	r0, r0, r5
ARM GAS  C:\Users\seanw\AppData\Local\Temp\ccbivcrf.s 			page 27


 512 001e FFF7FEFF 		bl	_ZN7daisysp6Phasor7ProcessEv
 513              	.LVL18:
  89:../../DaisySP/Source/Effects/pitchshifter.h ****         {
 514              		.loc 3 89 9 view .LVU124
 515 0022 D4ED1C7A 		vldr.32	s15, [r4, #112]
  88:../../DaisySP/Source/Effects/pitchshifter.h ****         if(prev_phs_a_ > fade1)
 516              		.loc 3 88 32 view .LVU125
 517 0026 F0EE40AA 		vmov.f32	s21, s0
 518              	.LVL19:
  89:../../DaisySP/Source/Effects/pitchshifter.h ****         {
 519              		.loc 3 89 9 is_stmt 1 view .LVU126
 520 002a F4EEE97A 		vcmpe.f32	s15, s19
 521 002e F1EE10FA 		vmrs	APSR_nzcv, FPSCR
 522 0032 00F3F580 		bgt	.L21
  92:../../DaisySP/Source/Effects/pitchshifter.h ****             mod_coeff_[0]
 523              		.loc 3 92 29 is_stmt 0 view .LVU127
 524 0036 236A     		ldr	r3, [r4, #32]
 103:../../DaisySP/Source/Effects/pitchshifter.h ****         slewed_mod_[1] += mod_coeff_[1] * (mod_b_amt_ - slewed_mod_[1]);
 525              		.loc 3 103 39 view .LVU128
 526 0038 D4ED205A 		vldr.32	s11, [r4, #128]
 103:../../DaisySP/Source/Effects/pitchshifter.h ****         slewed_mod_[1] += mod_coeff_[1] * (mod_b_amt_ - slewed_mod_[1]);
 527              		.loc 3 103 44 view .LVU129
 528 003c 94ED1A7A 		vldr.32	s14, [r4, #104]
 529              	.L22:
  96:../../DaisySP/Source/Effects/pitchshifter.h ****         {
 530              		.loc 3 96 9 is_stmt 1 view .LVU130
 531 0040 D4ED1D7A 		vldr.32	s15, [r4, #116]
 532 0044 F4EEEA7A 		vcmpe.f32	s15, s21
 533 0048 F1EE10FA 		vmrs	APSR_nzcv, FPSCR
 534 004c 00F3A580 		bgt	.L23
 104:../../DaisySP/Source/Effects/pitchshifter.h ****         prev_phs_a_ = fade1;
 535              		.loc 3 104 39 is_stmt 0 view .LVU131
 536 0050 D4ED216A 		vldr.32	s13, [r4, #132]
 104:../../DaisySP/Source/Effects/pitchshifter.h ****         prev_phs_a_ = fade1;
 537              		.loc 3 104 44 view .LVU132
 538 0054 D4ED1B7A 		vldr.32	s15, [r4, #108]
 539              	.L24:
 103:../../DaisySP/Source/Effects/pitchshifter.h ****         slewed_mod_[1] += mod_coeff_[1] * (mod_b_amt_ - slewed_mod_[1]);
 540              		.loc 3 103 9 is_stmt 1 view .LVU133
 103:../../DaisySP/Source/Effects/pitchshifter.h ****         slewed_mod_[1] += mod_coeff_[1] * (mod_b_amt_ - slewed_mod_[1]);
 541              		.loc 3 103 24 is_stmt 0 view .LVU134
 542 0058 D4ED1E8A 		vldr.32	s17, [r4, #120]
 104:../../DaisySP/Source/Effects/pitchshifter.h ****         prev_phs_a_ = fade1;
 543              		.loc 3 104 24 view .LVU135
 544 005c 94ED1F8A 		vldr.32	s16, [r4, #124]
 103:../../DaisySP/Source/Effects/pitchshifter.h ****         slewed_mod_[1] += mod_coeff_[1] * (mod_b_amt_ - slewed_mod_[1]);
 545              		.loc 3 103 55 view .LVU136
 546 0060 37EE687A 		vsub.f32	s14, s14, s17
 107:../../DaisySP/Source/Effects/pitchshifter.h ****         {
 547              		.loc 3 107 9 view .LVU137
 548 0064 94F82C20 		ldrb	r2, [r4, #44]	@ zero_extendqisi2
 104:../../DaisySP/Source/Effects/pitchshifter.h ****         prev_phs_a_ = fade1;
 549              		.loc 3 104 55 view .LVU138
 550 0068 77EEC87A 		vsub.f32	s15, s15, s16
 105:../../DaisySP/Source/Effects/pitchshifter.h ****         prev_phs_b_ = fade2;
 551              		.loc 3 105 21 view .LVU139
 552 006c C4ED1C9A 		vstr.32	s19, [r4, #112]
ARM GAS  C:\Users\seanw\AppData\Local\Temp\ccbivcrf.s 			page 28


 106:../../DaisySP/Source/Effects/pitchshifter.h ****         if(shift_up_)
 553              		.loc 3 106 21 view .LVU140
 554 0070 C4ED1DAA 		vstr.32	s21, [r4, #116]
 103:../../DaisySP/Source/Effects/pitchshifter.h ****         slewed_mod_[1] += mod_coeff_[1] * (mod_b_amt_ - slewed_mod_[1]);
 555              		.loc 3 103 24 view .LVU141
 556 0074 E7EE258A 		vfma.f32	s17, s14, s11
 104:../../DaisySP/Source/Effects/pitchshifter.h ****         prev_phs_a_ = fade1;
 557              		.loc 3 104 24 view .LVU142
 558 0078 A7EEA68A 		vfma.f32	s16, s15, s13
 103:../../DaisySP/Source/Effects/pitchshifter.h ****         slewed_mod_[1] += mod_coeff_[1] * (mod_b_amt_ - slewed_mod_[1]);
 559              		.loc 3 103 24 view .LVU143
 560 007c C4ED1E8A 		vstr.32	s17, [r4, #120]
 104:../../DaisySP/Source/Effects/pitchshifter.h ****         prev_phs_a_ = fade1;
 561              		.loc 3 104 9 is_stmt 1 view .LVU144
 104:../../DaisySP/Source/Effects/pitchshifter.h ****         prev_phs_a_ = fade1;
 562              		.loc 3 104 24 is_stmt 0 view .LVU145
 563 0080 84ED1F8A 		vstr.32	s16, [r4, #124]
 105:../../DaisySP/Source/Effects/pitchshifter.h ****         prev_phs_b_ = fade2;
 564              		.loc 3 105 9 is_stmt 1 view .LVU146
 106:../../DaisySP/Source/Effects/pitchshifter.h ****         if(shift_up_)
 565              		.loc 3 106 9 view .LVU147
 107:../../DaisySP/Source/Effects/pitchshifter.h ****         {
 566              		.loc 3 107 9 view .LVU148
 567 0084 2AB1     		cbz	r2, .L25
 109:../../DaisySP/Source/Effects/pitchshifter.h ****             fade2 = 1.0f - fade2;
 568              		.loc 3 109 13 view .LVU149
 109:../../DaisySP/Source/Effects/pitchshifter.h ****             fade2 = 1.0f - fade2;
 569              		.loc 3 109 19 is_stmt 0 view .LVU150
 570 0086 F7EE007A 		vmov.f32	s15, #1.0e+0
 571 008a 77EEE99A 		vsub.f32	s19, s15, s19
 572              	.LVL20:
 110:../../DaisySP/Source/Effects/pitchshifter.h ****         }
 573              		.loc 3 110 13 is_stmt 1 view .LVU151
 110:../../DaisySP/Source/Effects/pitchshifter.h ****         }
 574              		.loc 3 110 19 is_stmt 0 view .LVU152
 575 008e 77EEEAAA 		vsub.f32	s21, s15, s21
 576              	.LVL21:
 577              	.L25:
 112:../../DaisySP/Source/Effects/pitchshifter.h ****         mod_[1] = fade2 * (del_size_ - 1);
 578              		.loc 3 112 9 is_stmt 1 view .LVU153
 112:../../DaisySP/Source/Effects/pitchshifter.h ****         mod_[1] = fade2 * (del_size_ - 1);
 579              		.loc 3 112 38 is_stmt 0 view .LVU154
 580 0092 013B     		subs	r3, r3, #1
 118:../../DaisySP/Source/Effects/pitchshifter.h ****         gain_[1] = sinf(fade2 * PI_F);
 581              		.loc 3 118 24 view .LVU155
 582 0094 9FED85BA 		vldr.32	s22, .L30+8
 112:../../DaisySP/Source/Effects/pitchshifter.h ****         mod_[1] = fade2 * (del_size_ - 1);
 583              		.loc 3 112 38 view .LVU156
 584 0098 09EE103A 		vmov	s18, r3	@ int
 118:../../DaisySP/Source/Effects/pitchshifter.h ****         gain_[1] = sinf(fade2 * PI_F);
 585              		.loc 3 118 24 view .LVU157
 586 009c 29EE8B0A 		vmul.f32	s0, s19, s22
 112:../../DaisySP/Source/Effects/pitchshifter.h ****         mod_[1] = fade2 * (del_size_ - 1);
 587              		.loc 3 112 25 view .LVU158
 588 00a0 B8EE499A 		vcvt.f32.u32	s18, s18
 589 00a4 69EE299A 		vmul.f32	s19, s18, s19
 590              	.LVL22:
ARM GAS  C:\Users\seanw\AppData\Local\Temp\ccbivcrf.s 			page 29


 113:../../DaisySP/Source/Effects/pitchshifter.h **** #ifdef USE_ARM_DSP
 591              		.loc 3 113 25 view .LVU159
 592 00a8 29EE2A9A 		vmul.f32	s18, s18, s21
 112:../../DaisySP/Source/Effects/pitchshifter.h ****         mod_[1] = fade2 * (del_size_ - 1);
 593              		.loc 3 112 17 view .LVU160
 594 00ac C4ED169A 		vstr.32	s19, [r4, #88]
 113:../../DaisySP/Source/Effects/pitchshifter.h **** #ifdef USE_ARM_DSP
 595              		.loc 3 113 9 is_stmt 1 view .LVU161
 129:../../DaisySP/Source/Effects/pitchshifter.h ****         d_[1].SetDelay(mod_[1] + slewed_mod_[1]);
 596              		.loc 3 129 23 is_stmt 0 view .LVU162
 597 00b0 78EEA98A 		vadd.f32	s17, s17, s19
 113:../../DaisySP/Source/Effects/pitchshifter.h **** #ifdef USE_ARM_DSP
 598              		.loc 3 113 17 view .LVU163
 599 00b4 84ED179A 		vstr.32	s18, [r4, #92]
 118:../../DaisySP/Source/Effects/pitchshifter.h ****         gain_[1] = sinf(fade2 * PI_F);
 600              		.loc 3 118 9 is_stmt 1 view .LVU164
 130:../../DaisySP/Source/Effects/pitchshifter.h ****         val = 0.0f;
 601              		.loc 3 130 23 is_stmt 0 view .LVU165
 602 00b8 38EE098A 		vadd.f32	s16, s16, s18
 118:../../DaisySP/Source/Effects/pitchshifter.h ****         gain_[1] = sinf(fade2 * PI_F);
 603              		.loc 3 118 24 view .LVU166
 604 00bc FFF7FEFF 		bl	sinf
 605              	.LVL23:
 606 00c0 B0EE40AA 		vmov.f32	s20, s0
 119:../../DaisySP/Source/Effects/pitchshifter.h **** #endif
 607              		.loc 3 119 24 view .LVU167
 608 00c4 2AEE8B0A 		vmul.f32	s0, s21, s22
 118:../../DaisySP/Source/Effects/pitchshifter.h ****         gain_[1] = sinf(fade2 * PI_F);
 609              		.loc 3 118 18 view .LVU168
 610 00c8 84ED14AA 		vstr.32	s20, [r4, #80]
 119:../../DaisySP/Source/Effects/pitchshifter.h **** #endif
 611              		.loc 3 119 9 is_stmt 1 view .LVU169
 119:../../DaisySP/Source/Effects/pitchshifter.h **** #endif
 612              		.loc 3 119 24 is_stmt 0 view .LVU170
 613 00cc FFF7FEFF 		bl	sinf
 614              	.LVL24:
 615              	.LBB573:
 616              	.LBB574:
  25:../../DaisySP/Source/Utility/delayline.h ****     /** initializes the delay line by clearing the values within, and setting delay to 1 sample.
  26:../../DaisySP/Source/Utility/delayline.h ****     */
  27:../../DaisySP/Source/Utility/delayline.h ****     void Init() { Reset(); }
  28:../../DaisySP/Source/Utility/delayline.h ****     /** clears buffer, sets write ptr to 0, and delay to 1 sample.
  29:../../DaisySP/Source/Utility/delayline.h ****     */
  30:../../DaisySP/Source/Utility/delayline.h ****     void Reset()
  31:../../DaisySP/Source/Utility/delayline.h ****     {
  32:../../DaisySP/Source/Utility/delayline.h ****         for(size_t i = 0; i < max_size; i++)
  33:../../DaisySP/Source/Utility/delayline.h ****         {
  34:../../DaisySP/Source/Utility/delayline.h ****             line_[i] = T(0);
  35:../../DaisySP/Source/Utility/delayline.h ****         }
  36:../../DaisySP/Source/Utility/delayline.h ****         write_ptr_ = 0;
  37:../../DaisySP/Source/Utility/delayline.h ****         delay_     = 1;
  38:../../DaisySP/Source/Utility/delayline.h ****     }
  39:../../DaisySP/Source/Utility/delayline.h **** 
  40:../../DaisySP/Source/Utility/delayline.h ****     /** sets the delay time in samples
  41:../../DaisySP/Source/Utility/delayline.h ****         If a float is passed in, a fractional component will be calculated for interpolating the de
  42:../../DaisySP/Source/Utility/delayline.h ****     */
  43:../../DaisySP/Source/Utility/delayline.h ****     inline void SetDelay(size_t delay)
ARM GAS  C:\Users\seanw\AppData\Local\Temp\ccbivcrf.s 			page 30


  44:../../DaisySP/Source/Utility/delayline.h ****     {
  45:../../DaisySP/Source/Utility/delayline.h ****         frac_  = 0.0f;
  46:../../DaisySP/Source/Utility/delayline.h ****         delay_ = delay < max_size ? delay : max_size - 1;
  47:../../DaisySP/Source/Utility/delayline.h ****     }
  48:../../DaisySP/Source/Utility/delayline.h **** 
  49:../../DaisySP/Source/Utility/delayline.h ****     /** sets the delay time in samples
  50:../../DaisySP/Source/Utility/delayline.h ****         If a float is passed in, a fractional component will be calculated for interpolating the de
  51:../../DaisySP/Source/Utility/delayline.h ****     */
  52:../../DaisySP/Source/Utility/delayline.h ****     inline void SetDelay(float delay)
  53:../../DaisySP/Source/Utility/delayline.h ****     {
  54:../../DaisySP/Source/Utility/delayline.h ****         int32_t int_delay = static_cast<int32_t>(delay);
 617              		.loc 17 54 17 view .LVU171
 618 00d0 BDEEE87A 		vcvt.s32.f32	s14, s17
 619              	.LBE574:
 620              	.LBE573:
 621              	.LBB580:
 622              	.LBB581:
  55:../../DaisySP/Source/Utility/delayline.h ****         frac_             = delay - static_cast<float>(int_delay);
  56:../../DaisySP/Source/Utility/delayline.h ****         delay_ = static_cast<size_t>(int_delay) < max_size ? int_delay
  57:../../DaisySP/Source/Utility/delayline.h ****                                                            : max_size - 1;
  58:../../DaisySP/Source/Utility/delayline.h ****     }
  59:../../DaisySP/Source/Utility/delayline.h **** 
  60:../../DaisySP/Source/Utility/delayline.h ****     /** writes the sample of type T to the delay line, and advances the write ptr
  61:../../DaisySP/Source/Utility/delayline.h ****     */
  62:../../DaisySP/Source/Utility/delayline.h ****     inline void Write(const T sample)
  63:../../DaisySP/Source/Utility/delayline.h ****     {
  64:../../DaisySP/Source/Utility/delayline.h ****         line_[write_ptr_] = sample;
 623              		.loc 17 64 15 view .LVU172
 624 00d4 6A68     		ldr	r2, [r5, #4]
  65:../../DaisySP/Source/Utility/delayline.h ****         write_ptr_        = (write_ptr_ - 1 + max_size) % max_size;
 625              		.loc 17 65 45 view .LVU173
 626 00d6 43F6FF73 		movw	r3, #16383
 627              	.LBE581:
 628              	.LBE580:
 629              	.LBB586:
 630              	.LBB587:
  54:../../DaisySP/Source/Utility/delayline.h ****         frac_             = delay - static_cast<float>(int_delay);
 631              		.loc 17 54 17 view .LVU174
 632 00da FDEEC87A 		vcvt.s32.f32	s15, s16
 633              	.LBE587:
 634              	.LBE586:
 119:../../DaisySP/Source/Effects/pitchshifter.h **** #endif
 635              		.loc 3 119 18 view .LVU175
 636 00de 84ED150A 		vstr.32	s0, [r4, #84]
 123:../../DaisySP/Source/Effects/pitchshifter.h ****         d_[1].Write(in);
 637              		.loc 3 123 9 is_stmt 1 view .LVU176
 638              	.LBB595:
 639              	.LBB582:
  64:../../DaisySP/Source/Utility/delayline.h ****         write_ptr_        = (write_ptr_ - 1 + max_size) % max_size;
 640              		.loc 17 64 27 is_stmt 0 view .LVU177
 641 00e2 05EB8201 		add	r1, r5, r2, lsl #2
 642              	.LBE582:
 643              	.LBE595:
 123:../../DaisySP/Source/Effects/pitchshifter.h ****         d_[1].Write(in);
 644              		.loc 3 123 20 view .LVU178
 645 00e6 D6F800C0 		ldr	ip, [r6]	@ float
 646              	.LVL25:
ARM GAS  C:\Users\seanw\AppData\Local\Temp\ccbivcrf.s 			page 31


 647              	.LBB596:
 648              	.LBI580:
  62:../../DaisySP/Source/Utility/delayline.h ****     {
 649              		.loc 17 62 17 is_stmt 1 view .LVU179
 650              	.LBE596:
 651              	.LBB597:
 652              	.LBB575:
  56:../../DaisySP/Source/Utility/delayline.h ****                                                            : max_size - 1;
 653              		.loc 17 56 60 is_stmt 0 view .LVU180
 654 00ea 17EE104A 		vmov	r4, s14	@ int
 655              	.LBE575:
 656              	.LBE597:
 657              	.LBB598:
 658              	.LBB583:
 659              		.loc 17 65 45 view .LVU181
 660 00ee 1A44     		add	r2, r2, r3
  64:../../DaisySP/Source/Utility/delayline.h ****         write_ptr_        = (write_ptr_ - 1 + max_size) % max_size;
 661              		.loc 17 64 27 view .LVU182
 662 00f0 C1F80CC0 		str	ip, [r1, #12]	@ float
 663              	.LBE583:
 664              	.LBE598:
 665              	.LBB599:
 666              	.LBB588:
  56:../../DaisySP/Source/Utility/delayline.h ****                                                            : max_size - 1;
 667              		.loc 17 56 60 view .LVU183
 668 00f4 17EE900A 		vmov	r0, s15	@ int
 669              	.LBE588:
 670              	.LBE599:
 671              	.LBB600:
 672              	.LBB601:
  64:../../DaisySP/Source/Utility/delayline.h ****         write_ptr_        = (write_ptr_ - 1 + max_size) % max_size;
 673              		.loc 17 64 15 view .LVU184
 674 00f8 05F58031 		add	r1, r5, #65536
 675              	.LBE601:
 676              	.LBE600:
 677              	.LBB606:
 678              	.LBB576:
  56:../../DaisySP/Source/Utility/delayline.h ****                                                            : max_size - 1;
 679              		.loc 17 56 60 view .LVU185
 680 00fc 9C42     		cmp	r4, r3
 681              	.LBE576:
 682              	.LBE606:
 683              	.LBB607:
 684              	.LBB584:
 685              		.loc 17 65 57 view .LVU186
 686 00fe C2F30D02 		ubfx	r2, r2, #0, #14
 687              	.LBE584:
 688              	.LBE607:
 689              	.LBB608:
 690              	.LBB577:
  55:../../DaisySP/Source/Utility/delayline.h ****         delay_ = static_cast<size_t>(int_delay) < max_size ? int_delay
 691              		.loc 17 55 37 view .LVU187
 692 0102 F8EEC75A 		vcvt.f32.s32	s11, s14
  56:../../DaisySP/Source/Utility/delayline.h ****                                                            : max_size - 1;
 693              		.loc 17 56 60 view .LVU188
 694 0106 28BF     		it	cs
 695 0108 1C46     		movcs	r4, r3
ARM GAS  C:\Users\seanw\AppData\Local\Temp\ccbivcrf.s 			page 32


 696              	.LBE577:
 697              	.LBE608:
 698              	.LBB609:
 699              	.LBB589:
 700 010a 9842     		cmp	r0, r3
 701              	.LBE589:
 702              	.LBE609:
 703              	.LBB610:
 704              	.LBB585:
 705              		.loc 17 65 27 view .LVU189
 706 010c 6A60     		str	r2, [r5, #4]
 707              	.LVL26:
 708              		.loc 17 65 27 view .LVU190
 709              	.LBE585:
 710              	.LBE610:
 124:../../DaisySP/Source/Effects/pitchshifter.h ****         // Modulate Delay Lines
 711              		.loc 3 124 9 is_stmt 1 view .LVU191
 712              	.LBB611:
 713              	.LBI600:
  62:../../DaisySP/Source/Utility/delayline.h ****     {
 714              		.loc 17 62 17 view .LVU192
 715              	.LBE611:
 716              	.LBB612:
 717              	.LBB590:
  55:../../DaisySP/Source/Utility/delayline.h ****         delay_ = static_cast<size_t>(int_delay) < max_size ? int_delay
 718              		.loc 17 55 37 is_stmt 0 view .LVU193
 719 010e B8EEE76A 		vcvt.f32.s32	s12, s15
 720              	.LBE590:
 721              	.LBE612:
 722              	.LBB613:
 723              	.LBB602:
  64:../../DaisySP/Source/Utility/delayline.h ****         write_ptr_        = (write_ptr_ - 1 + max_size) % max_size;
 724              		.loc 17 64 15 view .LVU194
 725 0112 0E69     		ldr	r6, [r1, #16]
 726              	.LVL27:
  64:../../DaisySP/Source/Utility/delayline.h ****         write_ptr_        = (write_ptr_ - 1 + max_size) % max_size;
 727              		.loc 17 64 15 view .LVU195
 728              	.LBE602:
 729              	.LBE613:
 730              	.LBB614:
 731              	.LBB591:
  56:../../DaisySP/Source/Utility/delayline.h ****                                                            : max_size - 1;
 732              		.loc 17 56 60 view .LVU196
 733 0114 28BF     		it	cs
 734 0116 1846     		movcs	r0, r3
 735              	.LBE591:
 736              	.LBE614:
 737              	.LBB615:
 738              	.LBB578:
  55:../../DaisySP/Source/Utility/delayline.h ****         delay_ = static_cast<size_t>(int_delay) < max_size ? int_delay
 739              		.loc 17 55 35 view .LVU197
 740 0118 78EEE58A 		vsub.f32	s17, s17, s11
 741              	.LBE578:
 742              	.LBE615:
 743              	.LBB616:
 744              	.LBB617:
  66:../../DaisySP/Source/Utility/delayline.h ****     }
ARM GAS  C:\Users\seanw\AppData\Local\Temp\ccbivcrf.s 			page 33


  67:../../DaisySP/Source/Utility/delayline.h **** 
  68:../../DaisySP/Source/Utility/delayline.h ****     /** returns the next sample of type T in the delay line, interpolated if necessary.
  69:../../DaisySP/Source/Utility/delayline.h ****     */
  70:../../DaisySP/Source/Utility/delayline.h ****     inline const T Read() const
  71:../../DaisySP/Source/Utility/delayline.h ****     {
  72:../../DaisySP/Source/Utility/delayline.h ****         T a = line_[(write_ptr_ + delay_) % max_size];
 745              		.loc 17 72 33 view .LVU198
 746 011c 2244     		add	r2, r2, r4
 747              	.LBE617:
 748              	.LBE616:
 749              	.LBB624:
 750              	.LBB603:
  65:../../DaisySP/Source/Utility/delayline.h ****     }
 751              		.loc 17 65 45 view .LVU199
 752 011e 3344     		add	r3, r3, r6
  64:../../DaisySP/Source/Utility/delayline.h ****         write_ptr_        = (write_ptr_ - 1 + max_size) % max_size;
 753              		.loc 17 64 27 view .LVU200
 754 0120 01EB8606 		add	r6, r1, r6, lsl #2
 755              	.LBE603:
 756              	.LBE624:
 757              	.LBB625:
 758              	.LBB592:
  55:../../DaisySP/Source/Utility/delayline.h ****         delay_ = static_cast<size_t>(int_delay) < max_size ? int_delay
 759              		.loc 17 55 35 view .LVU201
 760 0124 38EE468A 		vsub.f32	s16, s16, s12
 761              	.LBE592:
 762              	.LBE625:
 763              	.LBB626:
 764              	.LBB604:
  65:../../DaisySP/Source/Utility/delayline.h ****     }
 765              		.loc 17 65 57 view .LVU202
 766 0128 C3F30D03 		ubfx	r3, r3, #0, #14
  64:../../DaisySP/Source/Utility/delayline.h ****         write_ptr_        = (write_ptr_ - 1 + max_size) % max_size;
 767              		.loc 17 64 27 view .LVU203
 768 012c C6F818C0 		str	ip, [r6, #24]	@ float
 769              	.LBE604:
 770              	.LBE626:
 119:../../DaisySP/Source/Effects/pitchshifter.h **** #endif
 771              		.loc 3 119 24 view .LVU204
 772 0130 F0EE406A 		vmov.f32	s13, s0
 132:../../DaisySP/Source/Effects/pitchshifter.h ****         val += (d_[1].Read() * gain_[1]);
 773              		.loc 3 132 13 view .LVU205
 774 0134 9FED5E0A 		vldr.32	s0, .L30+12
 775              	.LBB627:
 776              	.LBB605:
  65:../../DaisySP/Source/Utility/delayline.h ****     }
 777              		.loc 17 65 27 view .LVU206
 778 0138 0B61     		str	r3, [r1, #16]
 779              	.LVL28:
  65:../../DaisySP/Source/Utility/delayline.h ****     }
 780              		.loc 17 65 27 view .LVU207
 781              	.LBE605:
 782              	.LBE627:
 127:../../DaisySP/Source/Effects/pitchshifter.h ****         d_[1].SetDelay(mod_[1] + mod_b_amt_);
 783              		.loc 3 127 9 is_stmt 1 view .LVU208
 128:../../DaisySP/Source/Effects/pitchshifter.h ****         d_[0].SetDelay(mod_[0] + slewed_mod_[0]);
 784              		.loc 3 128 9 view .LVU209
ARM GAS  C:\Users\seanw\AppData\Local\Temp\ccbivcrf.s 			page 34


 129:../../DaisySP/Source/Effects/pitchshifter.h ****         d_[1].SetDelay(mod_[1] + slewed_mod_[1]);
 785              		.loc 3 129 9 view .LVU210
 786              	.LBB628:
 787              	.LBI573:
  52:../../DaisySP/Source/Utility/delayline.h ****     {
 788              		.loc 17 52 17 view .LVU211
  52:../../DaisySP/Source/Utility/delayline.h ****     {
 789              		.loc 17 52 17 is_stmt 0 view .LVU212
 790              	.LBE628:
 791              	.LBB629:
 792              	.LBB630:
 793              		.loc 17 72 33 view .LVU213
 794 013a 0344     		add	r3, r3, r0
 795              	.LBE630:
 796              	.LBE629:
 797              	.LBB636:
 798              	.LBB579:
  55:../../DaisySP/Source/Utility/delayline.h ****         delay_ = static_cast<size_t>(int_delay) < max_size ? int_delay
 799              		.loc 17 55 27 view .LVU214
 800 013c C5ED008A 		vstr.32	s17, [r5]
  56:../../DaisySP/Source/Utility/delayline.h ****                                                            : max_size - 1;
 801              		.loc 17 56 16 view .LVU215
 802 0140 AC60     		str	r4, [r5, #8]
 803              	.LVL29:
  56:../../DaisySP/Source/Utility/delayline.h ****                                                            : max_size - 1;
 804              		.loc 17 56 16 view .LVU216
 805              	.LBE579:
 806              	.LBE636:
 130:../../DaisySP/Source/Effects/pitchshifter.h ****         val = 0.0f;
 807              		.loc 3 130 9 is_stmt 1 view .LVU217
 808              	.LBB637:
 809              	.LBI586:
  52:../../DaisySP/Source/Utility/delayline.h ****     {
 810              		.loc 17 52 17 view .LVU218
 811              	.LBB593:
  56:../../DaisySP/Source/Utility/delayline.h ****                                                            : max_size - 1;
 812              		.loc 17 56 16 is_stmt 0 view .LVU219
 813 0142 4861     		str	r0, [r1, #20]
 814              	.LVL30:
  56:../../DaisySP/Source/Utility/delayline.h ****                                                            : max_size - 1;
 815              		.loc 17 56 16 view .LVU220
 816              	.LBE593:
 817              	.LBE637:
 131:../../DaisySP/Source/Effects/pitchshifter.h ****         val += (d_[0].Read() * gain_[0]);
 818              		.loc 3 131 9 is_stmt 1 view .LVU221
 132:../../DaisySP/Source/Effects/pitchshifter.h ****         val += (d_[1].Read() * gain_[1]);
 819              		.loc 3 132 9 view .LVU222
 820              	.LBB638:
 821              	.LBI616:
  70:../../DaisySP/Source/Utility/delayline.h ****     {
 822              		.loc 17 70 20 view .LVU223
 823              	.LBB618:
 824              		.loc 17 72 43 is_stmt 0 view .LVU224
 825 0144 C2F30D00 		ubfx	r0, r2, #0, #14
  73:../../DaisySP/Source/Utility/delayline.h ****         T b = line_[(write_ptr_ + delay_ + 1) % max_size];
 826              		.loc 17 73 42 view .LVU225
 827 0148 0132     		adds	r2, r2, #1
ARM GAS  C:\Users\seanw\AppData\Local\Temp\ccbivcrf.s 			page 35


 828              	.LBE618:
 829              	.LBE638:
 830              	.LBB639:
 831              	.LBB594:
  55:../../DaisySP/Source/Utility/delayline.h ****         delay_ = static_cast<size_t>(int_delay) < max_size ? int_delay
 832              		.loc 17 55 27 view .LVU226
 833 014a 81ED038A 		vstr.32	s16, [r1, #12]
 834              	.LBE594:
 835              	.LBE639:
 836              	.LBB640:
 837              	.LBB619:
  72:../../DaisySP/Source/Utility/delayline.h ****         T b = line_[(write_ptr_ + delay_ + 1) % max_size];
 838              		.loc 17 72 11 view .LVU227
 839 014e 05EB8000 		add	r0, r5, r0, lsl #2
 840              		.loc 17 73 47 view .LVU228
 841 0152 C2F30D02 		ubfx	r2, r2, #0, #14
  72:../../DaisySP/Source/Utility/delayline.h ****         T b = line_[(write_ptr_ + delay_ + 1) % max_size];
 842              		.loc 17 72 11 view .LVU229
 843 0156 90ED037A 		vldr.32	s14, [r0, #12]
 844              	.LVL31:
  72:../../DaisySP/Source/Utility/delayline.h ****         T b = line_[(write_ptr_ + delay_ + 1) % max_size];
 845              		.loc 17 72 11 view .LVU230
 846              	.LBE619:
 847              	.LBE640:
 848              	.LBB641:
 849              	.LBB631:
 850              		.loc 17 73 42 view .LVU231
 851 015a 581C     		adds	r0, r3, #1
 852              	.LBE631:
 853              	.LBE641:
 854              	.LBB642:
 855              	.LBB620:
 856              		.loc 17 73 11 view .LVU232
 857 015c 05EB8202 		add	r2, r5, r2, lsl #2
 858              	.LBE620:
 859              	.LBE642:
 860              	.LBB643:
 861              	.LBB632:
  72:../../DaisySP/Source/Utility/delayline.h ****         T b = line_[(write_ptr_ + delay_ + 1) % max_size];
 862              		.loc 17 72 43 view .LVU233
 863 0160 C3F30D03 		ubfx	r3, r3, #0, #14
 864              	.LBE632:
 865              	.LBE643:
 866              	.LBB644:
 867              	.LBB621:
  74:../../DaisySP/Source/Utility/delayline.h ****         return a + (b - a) * frac_;
 868              		.loc 17 74 23 view .LVU234
 869 0164 92ED036A 		vldr.32	s12, [r2, #12]
 870              	.LBE621:
 871              	.LBE644:
 872              	.LBB645:
 873              	.LBB633:
  73:../../DaisySP/Source/Utility/delayline.h ****         return a + (b - a) * frac_;
 874              		.loc 17 73 47 view .LVU235
 875 0168 C0F30D02 		ubfx	r2, r0, #0, #14
  72:../../DaisySP/Source/Utility/delayline.h ****         T b = line_[(write_ptr_ + delay_ + 1) % max_size];
 876              		.loc 17 72 11 view .LVU236
ARM GAS  C:\Users\seanw\AppData\Local\Temp\ccbivcrf.s 			page 36


 877 016c 01EB8303 		add	r3, r1, r3, lsl #2
 878              	.LBE633:
 879              	.LBE645:
 880              	.LBB646:
 881              	.LBB622:
 882              		.loc 17 74 23 view .LVU237
 883 0170 36EE476A 		vsub.f32	s12, s12, s14
 884              	.LBE622:
 885              	.LBE646:
 886              	.LBB647:
 887              	.LBB634:
  73:../../DaisySP/Source/Utility/delayline.h ****         return a + (b - a) * frac_;
 888              		.loc 17 73 11 view .LVU238
 889 0174 01EB8202 		add	r2, r1, r2, lsl #2
  72:../../DaisySP/Source/Utility/delayline.h ****         T b = line_[(write_ptr_ + delay_ + 1) % max_size];
 890              		.loc 17 72 11 view .LVU239
 891 0178 D3ED067A 		vldr.32	s15, [r3, #24]
 892              	.LBE634:
 893              	.LBE647:
 894              	.LBB648:
 895              	.LBB623:
 896              		.loc 17 74 30 view .LVU240
 897 017c A8EE867A 		vfma.f32	s14, s17, s12
 898              	.LVL32:
 899              		.loc 17 74 30 view .LVU241
 900              	.LBE623:
 901              	.LBE648:
 902              	.LBB649:
 903              	.LBB635:
 904              		.loc 17 74 23 view .LVU242
 905 0180 92ED066A 		vldr.32	s12, [r2, #24]
 906 0184 36EE676A 		vsub.f32	s12, s12, s15
 907              		.loc 17 74 30 view .LVU243
 908 0188 E8EE067A 		vfma.f32	s15, s16, s12
 909              	.LBE635:
 910              	.LBE649:
 132:../../DaisySP/Source/Effects/pitchshifter.h ****         val += (d_[1].Read() * gain_[1]);
 911              		.loc 3 132 13 view .LVU244
 912 018c AAEE070A 		vfma.f32	s0, s20, s14
 913              	.LVL33:
 133:../../DaisySP/Source/Effects/pitchshifter.h ****         return val;
 914              		.loc 3 133 9 is_stmt 1 view .LVU245
 915              	.LBB650:
 916              	.LBI629:
  70:../../DaisySP/Source/Utility/delayline.h ****     {
 917              		.loc 17 70 20 view .LVU246
  70:../../DaisySP/Source/Utility/delayline.h ****     {
 918              		.loc 17 70 20 is_stmt 0 view .LVU247
 919              	.LBE650:
 134:../../DaisySP/Source/Effects/pitchshifter.h ****     }
 920              		.loc 3 134 9 is_stmt 1 view .LVU248
 135:../../DaisySP/Source/Effects/pitchshifter.h **** 
 921              		.loc 3 135 5 is_stmt 0 view .LVU249
 922 0190 BDEC088B 		vldm	sp!, {d8-d11}
 923              		.cfi_remember_state
 924              		.cfi_restore 86
 925              		.cfi_restore 87
ARM GAS  C:\Users\seanw\AppData\Local\Temp\ccbivcrf.s 			page 37


 926              		.cfi_restore 84
 927              		.cfi_restore 85
 928              		.cfi_restore 82
 929              		.cfi_restore 83
 930              		.cfi_restore 80
 931              		.cfi_restore 81
 932              		.cfi_def_cfa_offset 24
 933 0194 A6EEA70A 		vfma.f32	s0, s13, s15
 934              	.LVL34:
 135:../../DaisySP/Source/Effects/pitchshifter.h **** 
 935              		.loc 3 135 5 view .LVU250
 936 0198 F8BD     		pop	{r3, r4, r5, r6, r7, pc}
 937              	.LVL35:
 938              	.L23:
 939              		.cfi_restore_state
  98:../../DaisySP/Source/Effects/pitchshifter.h ****                          * (del_size_ * 0.5f);
 940              		.loc 3 98 13 is_stmt 1 view .LVU251
 941              	.LBB651:
 942              	.LBI651:
  31:../../DaisySP/Source/Effects/pitchshifter.h **** {
 943              		.loc 3 31 17 view .LVU252
 944              	.LBB652:
  33:../../DaisySP/Source/Effects/pitchshifter.h ****     seed                 = hash_xs32(seed);
 945              		.loc 3 33 5 view .LVU253
  34:../../DaisySP/Source/Effects/pitchshifter.h ****     return seed;
 946              		.loc 3 34 5 view .LVU254
  34:../../DaisySP/Source/Effects/pitchshifter.h ****     return seed;
 947              		.loc 3 34 37 is_stmt 0 view .LVU255
 948 019a 464F     		ldr	r7, .L30+16
 949              	.LBE652:
 950              	.LBE651:
  98:../../DaisySP/Source/Effects/pitchshifter.h ****                          * (del_size_ * 0.5f);
 951              		.loc 3 98 51 view .LVU256
 952 019c 4649     		ldr	r1, .L30+20
 953              	.LBB665:
 954              	.LBB661:
  34:../../DaisySP/Source/Effects/pitchshifter.h ****     return seed;
 955              		.loc 3 34 37 view .LVU257
 956 019e 3A68     		ldr	r2, [r7]
 957              	.LVL36:
 958              	.LBB653:
 959              	.LBI653:
  23:../../DaisySP/Source/Effects/pitchshifter.h **** {
 960              		.loc 3 23 24 is_stmt 1 view .LVU258
 961              	.LBB654:
  25:../../DaisySP/Source/Effects/pitchshifter.h ****     x ^= x >> 17;
 962              		.loc 3 25 5 view .LVU259
 963              	.LBE654:
 964              	.LBE653:
 965              	.LBE661:
 966              	.LBE665:
  98:../../DaisySP/Source/Effects/pitchshifter.h ****                          * (del_size_ * 0.5f);
 967              		.loc 3 98 58 is_stmt 0 view .LVU260
 968 01a0 9FED465A 		vldr.32	s10, .L30+24
 969              	.LBB666:
 970              	.LBB662:
 971              	.LBB658:
ARM GAS  C:\Users\seanw\AppData\Local\Temp\ccbivcrf.s 			page 38


 972              	.LBB655:
  25:../../DaisySP/Source/Effects/pitchshifter.h ****     x ^= x >> 17;
 973              		.loc 3 25 7 view .LVU261
 974 01a4 82EA4232 		eor	r2, r2, r2, lsl #13
 975              	.LVL37:
  26:../../DaisySP/Source/Effects/pitchshifter.h ****     x ^= x << 5;
 976              		.loc 3 26 5 is_stmt 1 view .LVU262
 977              	.LBE655:
 978              	.LBE658:
 979              	.LBE662:
 980              	.LBE666:
  98:../../DaisySP/Source/Effects/pitchshifter.h ****                          * (del_size_ * 0.5f);
 981              		.loc 3 98 31 is_stmt 0 view .LVU263
 982 01a8 D4ED193A 		vldr.32	s7, [r4, #100]
 101:../../DaisySP/Source/Effects/pitchshifter.h ****         }
 983              		.loc 3 101 27 view .LVU264
 984 01ac 9FED446A 		vldr.32	s12, .L30+28
 985              	.LBB667:
 986              	.LBB663:
 987              	.LBB659:
 988              	.LBB656:
  26:../../DaisySP/Source/Effects/pitchshifter.h ****     x ^= x << 5;
 989              		.loc 3 26 7 view .LVU265
 990 01b0 82EA5242 		eor	r2, r2, r2, lsr #17
 991              	.LVL38:
  27:../../DaisySP/Source/Effects/pitchshifter.h ****     return x;
 992              		.loc 3 27 5 is_stmt 1 view .LVU266
 993              	.LBE656:
 994              	.LBE659:
 995              	.LBE663:
 996              	.LBE667:
 101:../../DaisySP/Source/Effects/pitchshifter.h ****         }
 997              		.loc 3 101 27 is_stmt 0 view .LVU267
 998 01b4 DFED434A 		vldr.32	s9, .L30+32
 999              	.LBB668:
 1000              	.LBB664:
 1001              	.LBB660:
 1002              	.LBB657:
  27:../../DaisySP/Source/Effects/pitchshifter.h ****     return x;
 1003              		.loc 3 27 7 view .LVU268
 1004 01b8 82EA4212 		eor	r2, r2, r2, lsl #5
 1005              	.LVL39:
  28:../../DaisySP/Source/Effects/pitchshifter.h **** }
 1006              		.loc 3 28 5 is_stmt 1 view .LVU269
  28:../../DaisySP/Source/Effects/pitchshifter.h **** }
 1007              		.loc 3 28 5 is_stmt 0 view .LVU270
 1008              	.LBE657:
 1009              	.LBE660:
  35:../../DaisySP/Source/Effects/pitchshifter.h **** }
 1010              		.loc 3 35 5 is_stmt 1 view .LVU271
 1011              	.LBE664:
 1012              	.LBE668:
 1013              	.LBB669:
 1014              	.LBB670:
 1015              	.LBB671:
 1016              	.LBB672:
  25:../../DaisySP/Source/Effects/pitchshifter.h ****     x ^= x >> 17;
ARM GAS  C:\Users\seanw\AppData\Local\Temp\ccbivcrf.s 			page 39


 1017              		.loc 3 25 7 is_stmt 0 view .LVU272
 1018 01bc 82EA4230 		eor	r0, r2, r2, lsl #13
  26:../../DaisySP/Source/Effects/pitchshifter.h ****     x ^= x << 5;
 1019              		.loc 3 26 7 view .LVU273
 1020 01c0 80EA5040 		eor	r0, r0, r0, lsr #17
  27:../../DaisySP/Source/Effects/pitchshifter.h ****     return x;
 1021              		.loc 3 27 7 view .LVU274
 1022 01c4 80EA4010 		eor	r0, r0, r0, lsl #5
 1023              	.LBE672:
 1024              	.LBE671:
  34:../../DaisySP/Source/Effects/pitchshifter.h ****     return seed;
 1025              		.loc 3 34 26 view .LVU275
 1026 01c8 3860     		str	r0, [r7]
 1027              	.LBE670:
 1028              	.LBE669:
  98:../../DaisySP/Source/Effects/pitchshifter.h ****                          * (del_size_ * 0.5f);
 1029              		.loc 3 98 51 view .LVU276
 1030 01ca A1FB027C 		umull	r7, ip, r1, r2
 101:../../DaisySP/Source/Effects/pitchshifter.h ****         }
 1031              		.loc 3 101 48 view .LVU277
 1032 01ce A1FB0071 		umull	r7, r1, r1, r0
  98:../../DaisySP/Source/Effects/pitchshifter.h ****                          * (del_size_ * 0.5f);
 1033              		.loc 3 98 51 view .LVU278
 1034 01d2 4FEADC1C 		lsr	ip, ip, #7
 101:../../DaisySP/Source/Effects/pitchshifter.h ****         }
 1035              		.loc 3 101 48 view .LVU279
 1036 01d6 C909     		lsrs	r1, r1, #7
  98:../../DaisySP/Source/Effects/pitchshifter.h ****                          * (del_size_ * 0.5f);
 1037              		.loc 3 98 51 view .LVU280
 1038 01d8 CCEB0C2C 		rsb	ip, ip, ip, lsl #8
 101:../../DaisySP/Source/Effects/pitchshifter.h ****         }
 1039              		.loc 3 101 48 view .LVU281
 1040 01dc C1EB0121 		rsb	r1, r1, r1, lsl #8
  98:../../DaisySP/Source/Effects/pitchshifter.h ****                          * (del_size_ * 0.5f);
 1041              		.loc 3 98 51 view .LVU282
 1042 01e0 A2EB0C02 		sub	r2, r2, ip
 101:../../DaisySP/Source/Effects/pitchshifter.h ****         }
 1043              		.loc 3 101 48 view .LVU283
 1044 01e4 411A     		subs	r1, r0, r1
  98:../../DaisySP/Source/Effects/pitchshifter.h ****                          * (del_size_ * 0.5f);
 1045              		.loc 3 98 34 view .LVU284
 1046 01e6 07EE902A 		vmov	s15, r2	@ int
 1047 01ea F8EEE76A 		vcvt.f32.s32	s13, s15
  98:../../DaisySP/Source/Effects/pitchshifter.h ****                          * (del_size_ * 0.5f);
 1048              		.loc 3 98 58 view .LVU285
 1049 01ee C6EE857A 		vdiv.f32	s15, s13, s10
 101:../../DaisySP/Source/Effects/pitchshifter.h ****         }
 1050              		.loc 3 101 31 view .LVU286
 1051 01f2 06EE901A 		vmov	s13, r1	@ int
 1052 01f6 F8EEE66A 		vcvt.f32.s32	s13, s13
 101:../../DaisySP/Source/Effects/pitchshifter.h ****         }
 1053              		.loc 3 101 55 view .LVU287
 1054 01fa 86EE854A 		vdiv.f32	s8, s13, s10
  99:../../DaisySP/Source/Effects/pitchshifter.h ****             mod_coeff_[1]
 1055              		.loc 3 99 26 view .LVU288
 1056 01fe 06EE903A 		vmov	s13, r3	@ int
 1057 0202 FBEEEF6A 		vcvt.f32.u32	s13, s13, #1
ARM GAS  C:\Users\seanw\AppData\Local\Temp\ccbivcrf.s 			page 40


  98:../../DaisySP/Source/Effects/pitchshifter.h ****                          * (del_size_ * 0.5f);
 1058              		.loc 3 98 31 view .LVU289
 1059 0206 67EEA37A 		vmul.f32	s15, s15, s7
  99:../../DaisySP/Source/Effects/pitchshifter.h ****             mod_coeff_[1]
 1060              		.loc 3 99 26 view .LVU290
 1061 020a 67EEA67A 		vmul.f32	s15, s15, s13
 101:../../DaisySP/Source/Effects/pitchshifter.h ****         }
 1062              		.loc 3 101 27 view .LVU291
 1063 020e F0EE466A 		vmov.f32	s13, s12
  98:../../DaisySP/Source/Effects/pitchshifter.h ****                          * (del_size_ * 0.5f);
 1064              		.loc 3 98 24 view .LVU292
 1065 0212 C4ED1B7A 		vstr.32	s15, [r4, #108]
 100:../../DaisySP/Source/Effects/pitchshifter.h ****                 = 0.0002f + (((float)(myrand() % 255) / 255.0f) * 0.001f);
 1066              		.loc 3 100 13 is_stmt 1 view .LVU293
 1067              	.LBB676:
 1068              	.LBI669:
  31:../../DaisySP/Source/Effects/pitchshifter.h **** {
 1069              		.loc 3 31 17 view .LVU294
 1070              	.LBB675:
  33:../../DaisySP/Source/Effects/pitchshifter.h ****     seed                 = hash_xs32(seed);
 1071              		.loc 3 33 5 view .LVU295
  34:../../DaisySP/Source/Effects/pitchshifter.h ****     return seed;
 1072              		.loc 3 34 5 view .LVU296
 1073              	.LVL40:
 1074              	.LBB674:
 1075              	.LBI671:
  23:../../DaisySP/Source/Effects/pitchshifter.h **** {
 1076              		.loc 3 23 24 view .LVU297
 1077              	.LBB673:
  25:../../DaisySP/Source/Effects/pitchshifter.h ****     x ^= x >> 17;
 1078              		.loc 3 25 5 view .LVU298
  26:../../DaisySP/Source/Effects/pitchshifter.h ****     x ^= x << 5;
 1079              		.loc 3 26 5 view .LVU299
  27:../../DaisySP/Source/Effects/pitchshifter.h ****     return x;
 1080              		.loc 3 27 5 view .LVU300
  28:../../DaisySP/Source/Effects/pitchshifter.h **** }
 1081              		.loc 3 28 5 view .LVU301
  28:../../DaisySP/Source/Effects/pitchshifter.h **** }
 1082              		.loc 3 28 5 is_stmt 0 view .LVU302
 1083              	.LBE673:
 1084              	.LBE674:
  35:../../DaisySP/Source/Effects/pitchshifter.h **** }
 1085              		.loc 3 35 5 is_stmt 1 view .LVU303
 1086              	.LBE675:
 1087              	.LBE676:
 101:../../DaisySP/Source/Effects/pitchshifter.h ****         }
 1088              		.loc 3 101 27 is_stmt 0 view .LVU304
 1089 0216 E4EE246A 		vfma.f32	s13, s8, s9
 101:../../DaisySP/Source/Effects/pitchshifter.h ****         }
 1090              		.loc 3 101 17 view .LVU305
 1091 021a C4ED216A 		vstr.32	s13, [r4, #132]
 1092 021e 1BE7     		b	.L24
 1093              	.L21:
  91:../../DaisySP/Source/Effects/pitchshifter.h ****                          * (del_size_ * 0.5f);
 1094              		.loc 3 91 13 is_stmt 1 view .LVU306
 1095              	.LBB677:
 1096              	.LBI677:
ARM GAS  C:\Users\seanw\AppData\Local\Temp\ccbivcrf.s 			page 41


  31:../../DaisySP/Source/Effects/pitchshifter.h **** {
 1097              		.loc 3 31 17 view .LVU307
 1098              	.LBB678:
  33:../../DaisySP/Source/Effects/pitchshifter.h ****     seed                 = hash_xs32(seed);
 1099              		.loc 3 33 5 view .LVU308
  34:../../DaisySP/Source/Effects/pitchshifter.h ****     return seed;
 1100              		.loc 3 34 5 view .LVU309
  34:../../DaisySP/Source/Effects/pitchshifter.h ****     return seed;
 1101              		.loc 3 34 37 is_stmt 0 view .LVU310
 1102 0220 244F     		ldr	r7, .L30+16
 1103              	.LBE678:
 1104              	.LBE677:
  91:../../DaisySP/Source/Effects/pitchshifter.h ****                          * (del_size_ * 0.5f);
 1105              		.loc 3 91 51 view .LVU311
 1106 0222 2548     		ldr	r0, .L30+20
 1107              	.LBB691:
 1108              	.LBB687:
  34:../../DaisySP/Source/Effects/pitchshifter.h ****     return seed;
 1109              		.loc 3 34 37 view .LVU312
 1110 0224 3A68     		ldr	r2, [r7]
 1111              	.LVL41:
 1112              	.LBB679:
 1113              	.LBI679:
  23:../../DaisySP/Source/Effects/pitchshifter.h **** {
 1114              		.loc 3 23 24 is_stmt 1 view .LVU313
 1115              	.LBB680:
  25:../../DaisySP/Source/Effects/pitchshifter.h ****     x ^= x >> 17;
 1116              		.loc 3 25 5 view .LVU314
 1117              	.LBE680:
 1118              	.LBE679:
 1119              	.LBE687:
 1120              	.LBE691:
  91:../../DaisySP/Source/Effects/pitchshifter.h ****                          * (del_size_ * 0.5f);
 1121              		.loc 3 91 58 is_stmt 0 view .LVU315
 1122 0226 DFED256A 		vldr.32	s13, .L30+24
 1123              	.LBB692:
 1124              	.LBB688:
 1125              	.LBB684:
 1126              	.LBB681:
  25:../../DaisySP/Source/Effects/pitchshifter.h ****     x ^= x >> 17;
 1127              		.loc 3 25 7 view .LVU316
 1128 022a 82EA4232 		eor	r2, r2, r2, lsl #13
 1129              	.LVL42:
  26:../../DaisySP/Source/Effects/pitchshifter.h ****     x ^= x << 5;
 1130              		.loc 3 26 5 is_stmt 1 view .LVU317
 1131              	.LBE681:
 1132              	.LBE684:
 1133              	.LBE688:
 1134              	.LBE692:
  92:../../DaisySP/Source/Effects/pitchshifter.h ****             mod_coeff_[0]
 1135              		.loc 3 92 29 is_stmt 0 view .LVU318
 1136 022e 236A     		ldr	r3, [r4, #32]
  91:../../DaisySP/Source/Effects/pitchshifter.h ****                          * (del_size_ * 0.5f);
 1137              		.loc 3 91 31 view .LVU319
 1138 0230 94ED194A 		vldr.32	s8, [r4, #100]
 1139              	.LBB693:
 1140              	.LBB689:
ARM GAS  C:\Users\seanw\AppData\Local\Temp\ccbivcrf.s 			page 42


 1141              	.LBB685:
 1142              	.LBB682:
  26:../../DaisySP/Source/Effects/pitchshifter.h ****     x ^= x << 5;
 1143              		.loc 3 26 7 view .LVU320
 1144 0234 82EA5242 		eor	r2, r2, r2, lsr #17
 1145              	.LVL43:
  27:../../DaisySP/Source/Effects/pitchshifter.h ****     return x;
 1146              		.loc 3 27 5 is_stmt 1 view .LVU321
 1147              	.LBE682:
 1148              	.LBE685:
 1149              	.LBE689:
 1150              	.LBE693:
  94:../../DaisySP/Source/Effects/pitchshifter.h ****         }
 1151              		.loc 3 94 27 is_stmt 0 view .LVU322
 1152 0238 9FED226A 		vldr.32	s12, .L30+32
 1153 023c DFED205A 		vldr.32	s11, .L30+28
  92:../../DaisySP/Source/Effects/pitchshifter.h ****             mod_coeff_[0]
 1154              		.loc 3 92 39 view .LVU323
 1155 0240 04EE903A 		vmov	s9, r3	@ int
 1156              	.LBB694:
 1157              	.LBB690:
 1158              	.LBB686:
 1159              	.LBB683:
  27:../../DaisySP/Source/Effects/pitchshifter.h ****     return x;
 1160              		.loc 3 27 7 view .LVU324
 1161 0244 82EA4212 		eor	r2, r2, r2, lsl #5
 1162              	.LVL44:
  28:../../DaisySP/Source/Effects/pitchshifter.h **** }
 1163              		.loc 3 28 5 is_stmt 1 view .LVU325
  28:../../DaisySP/Source/Effects/pitchshifter.h **** }
 1164              		.loc 3 28 5 is_stmt 0 view .LVU326
 1165              	.LBE683:
 1166              	.LBE686:
  35:../../DaisySP/Source/Effects/pitchshifter.h **** }
 1167              		.loc 3 35 5 is_stmt 1 view .LVU327
 1168              	.LBE690:
 1169              	.LBE694:
  92:../../DaisySP/Source/Effects/pitchshifter.h ****             mod_coeff_[0]
 1170              		.loc 3 92 39 is_stmt 0 view .LVU328
 1171 0248 FBEEEF4A 		vcvt.f32.u32	s9, s9, #1
 1172              	.LBB695:
 1173              	.LBB696:
 1174              	.LBB697:
 1175              	.LBB698:
  25:../../DaisySP/Source/Effects/pitchshifter.h ****     x ^= x >> 17;
 1176              		.loc 3 25 7 view .LVU329
 1177 024c 82EA4231 		eor	r1, r2, r2, lsl #13
  26:../../DaisySP/Source/Effects/pitchshifter.h ****     x ^= x << 5;
 1178              		.loc 3 26 7 view .LVU330
 1179 0250 81EA5141 		eor	r1, r1, r1, lsr #17
  27:../../DaisySP/Source/Effects/pitchshifter.h ****     return x;
 1180              		.loc 3 27 7 view .LVU331
 1181 0254 81EA4111 		eor	r1, r1, r1, lsl #5
 1182              	.LBE698:
 1183              	.LBE697:
  34:../../DaisySP/Source/Effects/pitchshifter.h ****     return seed;
 1184              		.loc 3 34 26 view .LVU332
ARM GAS  C:\Users\seanw\AppData\Local\Temp\ccbivcrf.s 			page 43


 1185 0258 3960     		str	r1, [r7]
 1186              	.LBE696:
 1187              	.LBE695:
  91:../../DaisySP/Source/Effects/pitchshifter.h ****                          * (del_size_ * 0.5f);
 1188              		.loc 3 91 51 view .LVU333
 1189 025a A0FB027C 		umull	r7, ip, r0, r2
  94:../../DaisySP/Source/Effects/pitchshifter.h ****         }
 1190              		.loc 3 94 48 view .LVU334
 1191 025e A0FB0170 		umull	r7, r0, r0, r1
  91:../../DaisySP/Source/Effects/pitchshifter.h ****                          * (del_size_ * 0.5f);
 1192              		.loc 3 91 51 view .LVU335
 1193 0262 4FEADC1C 		lsr	ip, ip, #7
  94:../../DaisySP/Source/Effects/pitchshifter.h ****         }
 1194              		.loc 3 94 48 view .LVU336
 1195 0266 C009     		lsrs	r0, r0, #7
  91:../../DaisySP/Source/Effects/pitchshifter.h ****                          * (del_size_ * 0.5f);
 1196              		.loc 3 91 51 view .LVU337
 1197 0268 CCEB0C2C 		rsb	ip, ip, ip, lsl #8
  94:../../DaisySP/Source/Effects/pitchshifter.h ****         }
 1198              		.loc 3 94 48 view .LVU338
 1199 026c C0EB0020 		rsb	r0, r0, r0, lsl #8
  91:../../DaisySP/Source/Effects/pitchshifter.h ****                          * (del_size_ * 0.5f);
 1200              		.loc 3 91 51 view .LVU339
 1201 0270 A2EB0C02 		sub	r2, r2, ip
  94:../../DaisySP/Source/Effects/pitchshifter.h ****         }
 1202              		.loc 3 94 48 view .LVU340
 1203 0274 081A     		subs	r0, r1, r0
  91:../../DaisySP/Source/Effects/pitchshifter.h ****                          * (del_size_ * 0.5f);
 1204              		.loc 3 91 34 view .LVU341
 1205 0276 07EE902A 		vmov	s15, r2	@ int
 1206 027a F8EEE77A 		vcvt.f32.s32	s15, s15
  91:../../DaisySP/Source/Effects/pitchshifter.h ****                          * (del_size_ * 0.5f);
 1207              		.loc 3 91 58 view .LVU342
 1208 027e 87EEA67A 		vdiv.f32	s14, s15, s13
  94:../../DaisySP/Source/Effects/pitchshifter.h ****         }
 1209              		.loc 3 94 31 view .LVU343
 1210 0282 07EE900A 		vmov	s15, r0	@ int
 1211 0286 F8EEE77A 		vcvt.f32.s32	s15, s15
  94:../../DaisySP/Source/Effects/pitchshifter.h ****         }
 1212              		.loc 3 94 55 view .LVU344
 1213 028a 87EEA65A 		vdiv.f32	s10, s15, s13
  91:../../DaisySP/Source/Effects/pitchshifter.h ****                          * (del_size_ * 0.5f);
 1214              		.loc 3 91 31 view .LVU345
 1215 028e 27EE047A 		vmul.f32	s14, s14, s8
  92:../../DaisySP/Source/Effects/pitchshifter.h ****             mod_coeff_[0]
 1216              		.loc 3 92 26 view .LVU346
 1217 0292 27EE247A 		vmul.f32	s14, s14, s9
  91:../../DaisySP/Source/Effects/pitchshifter.h ****                          * (del_size_ * 0.5f);
 1218              		.loc 3 91 24 view .LVU347
 1219 0296 84ED1A7A 		vstr.32	s14, [r4, #104]
  93:../../DaisySP/Source/Effects/pitchshifter.h ****                 = 0.0002f + (((float)(myrand() % 255) / 255.0f) * 0.001f);
 1220              		.loc 3 93 13 is_stmt 1 view .LVU348
 1221              	.LBB702:
 1222              	.LBI695:
  31:../../DaisySP/Source/Effects/pitchshifter.h **** {
 1223              		.loc 3 31 17 view .LVU349
 1224              	.LBB701:
ARM GAS  C:\Users\seanw\AppData\Local\Temp\ccbivcrf.s 			page 44


  33:../../DaisySP/Source/Effects/pitchshifter.h ****     seed                 = hash_xs32(seed);
 1225              		.loc 3 33 5 view .LVU350
  34:../../DaisySP/Source/Effects/pitchshifter.h ****     return seed;
 1226              		.loc 3 34 5 view .LVU351
 1227              	.LVL45:
 1228              	.LBB700:
 1229              	.LBI697:
  23:../../DaisySP/Source/Effects/pitchshifter.h **** {
 1230              		.loc 3 23 24 view .LVU352
 1231              	.LBB699:
  25:../../DaisySP/Source/Effects/pitchshifter.h ****     x ^= x >> 17;
 1232              		.loc 3 25 5 view .LVU353
  26:../../DaisySP/Source/Effects/pitchshifter.h ****     x ^= x << 5;
 1233              		.loc 3 26 5 view .LVU354
  27:../../DaisySP/Source/Effects/pitchshifter.h ****     return x;
 1234              		.loc 3 27 5 view .LVU355
  28:../../DaisySP/Source/Effects/pitchshifter.h **** }
 1235              		.loc 3 28 5 view .LVU356
  28:../../DaisySP/Source/Effects/pitchshifter.h **** }
 1236              		.loc 3 28 5 is_stmt 0 view .LVU357
 1237              	.LBE699:
 1238              	.LBE700:
  35:../../DaisySP/Source/Effects/pitchshifter.h **** }
 1239              		.loc 3 35 5 is_stmt 1 view .LVU358
 1240              	.LBE701:
 1241              	.LBE702:
  94:../../DaisySP/Source/Effects/pitchshifter.h ****         }
 1242              		.loc 3 94 27 is_stmt 0 view .LVU359
 1243 029a E5EE065A 		vfma.f32	s11, s10, s12
  94:../../DaisySP/Source/Effects/pitchshifter.h ****         }
 1244              		.loc 3 94 17 view .LVU360
 1245 029e C4ED205A 		vstr.32	s11, [r4, #128]
 1246 02a2 CDE6     		b	.L22
 1247              	.L31:
 1248              		.align	2
 1249              	.L30:
 1250 02a4 30000200 		.word	131120
 1251 02a8 40000200 		.word	131136
 1252 02ac DB0F4940 		.word	1078530011
 1253 02b0 00000000 		.word	0
 1254 02b4 00000000 		.word	_ZZN7daisysp6myrandEvE4seed
 1255 02b8 81808080 		.word	-2139062143
 1256 02bc 00007F43 		.word	1132396544
 1257 02c0 17B75139 		.word	961656599
 1258 02c4 6F12833A 		.word	981668463
 1259              		.cfi_endproc
 1260              	.LFE3058:
 1262              		.section	.text.startup.main,"ax",%progbits
 1263              		.align	1
 1264              		.p2align 2,,3
 1265              		.global	main
 1266              		.syntax unified
 1267              		.thumb
 1268              		.thumb_func
 1269              		.fpu fpv5-d16
 1271              	main:
 1272              	.LFB4404:
ARM GAS  C:\Users\seanw\AppData\Local\Temp\ccbivcrf.s 			page 45


 1273              		.file 18 "MultiEffect.cpp"
   1:MultiEffect.cpp **** #include "daisysp.h"
   2:MultiEffect.cpp **** #include "daisy_pod.h"
   3:MultiEffect.cpp **** 
   4:MultiEffect.cpp **** // Set max delay time to 0.75 of samplerate.
   5:MultiEffect.cpp **** #define MAX_DELAY static_cast<size_t>(48000 * 2.5f)
   6:MultiEffect.cpp **** #define CHRDEL 0
   7:MultiEffect.cpp **** #define DEL 1
   8:MultiEffect.cpp **** #define COR 2
   9:MultiEffect.cpp **** #define PHR 3
  10:MultiEffect.cpp **** #define OCT 4
  11:MultiEffect.cpp **** 
  12:MultiEffect.cpp **** 
  13:MultiEffect.cpp **** using namespace daisysp;
  14:MultiEffect.cpp **** using namespace daisy;
  15:MultiEffect.cpp **** 
  16:MultiEffect.cpp **** static DaisyPod pod;
  17:MultiEffect.cpp **** 
  18:MultiEffect.cpp **** /// declare effects used 
  19:MultiEffect.cpp **** static Chorus                                    crs;
  20:MultiEffect.cpp **** static Chorus                                    crs2;
  21:MultiEffect.cpp **** static Chorus                                    crs3;
  22:MultiEffect.cpp **** static Chorus                                    crs4;
  23:MultiEffect.cpp **** static PitchShifter                              pst;
  24:MultiEffect.cpp **** 
  25:MultiEffect.cpp **** static Phaser                                    psr;
  26:MultiEffect.cpp **** static Phaser                                    psr2;
  27:MultiEffect.cpp **** static DelayLine<float, MAX_DELAY> DSY_SDRAM_BSS dell;
  28:MultiEffect.cpp **** static DelayLine<float, MAX_DELAY> DSY_SDRAM_BSS delr;
  29:MultiEffect.cpp **** static DelayLine<float, MAX_DELAY> DSY_SDRAM_BSS dell2;
  30:MultiEffect.cpp **** static DelayLine<float, MAX_DELAY> DSY_SDRAM_BSS delr2;
  31:MultiEffect.cpp **** 
  32:MultiEffect.cpp **** static Parameter deltime;
  33:MultiEffect.cpp **** int   mode = CHRDEL;
  34:MultiEffect.cpp **** int   numstages;
  35:MultiEffect.cpp **** uint32_t octDelSize;
  36:MultiEffect.cpp **** 
  37:MultiEffect.cpp **** float currentDelay, feedback, delayTarget, freq, freqtarget, lfotarget, lfo;
  38:MultiEffect.cpp **** 
  39:MultiEffect.cpp **** 
  40:MultiEffect.cpp **** float  drywet;
  41:MultiEffect.cpp **** 
  42:MultiEffect.cpp **** 
  43:MultiEffect.cpp **** //Helper functions
  44:MultiEffect.cpp **** void Controls();
  45:MultiEffect.cpp **** 
  46:MultiEffect.cpp **** void GetReverbSample(float &outl, float &outr, float inl, float inr);
  47:MultiEffect.cpp **** 
  48:MultiEffect.cpp **** void GetDelaySample(float &outl, float &outr, float inl, float inr);
  49:MultiEffect.cpp **** 
  50:MultiEffect.cpp **** void GetChorusSample(float &outl, float &outr, float inl, float inr);
  51:MultiEffect.cpp **** 
  52:MultiEffect.cpp **** void GetPhaserSample(float &outl, float &outr, float inl, float inr);
  53:MultiEffect.cpp **** 
  54:MultiEffect.cpp **** void GetOctaveSample(float &outl, float &outr, float inl, float inr);
  55:MultiEffect.cpp **** 
  56:MultiEffect.cpp **** 
ARM GAS  C:\Users\seanw\AppData\Local\Temp\ccbivcrf.s 			page 46


  57:MultiEffect.cpp **** void AudioCallback(AudioHandle::InterleavingInputBuffer  in,
  58:MultiEffect.cpp ****                    AudioHandle::InterleavingOutputBuffer out,
  59:MultiEffect.cpp ****                    size_t                                size)
  60:MultiEffect.cpp **** {
  61:MultiEffect.cpp ****     float outl, outr, inl, inr;
  62:MultiEffect.cpp **** 
  63:MultiEffect.cpp ****     Controls();
  64:MultiEffect.cpp **** 
  65:MultiEffect.cpp ****     //audio
  66:MultiEffect.cpp ****     for(size_t i = 0; i < size; i += 2)
  67:MultiEffect.cpp ****     {
  68:MultiEffect.cpp ****         inl = in[i];
  69:MultiEffect.cpp ****         inr = in[i + 1];
  70:MultiEffect.cpp **** 
  71:MultiEffect.cpp ****         switch(mode)
  72:MultiEffect.cpp ****         {
  73:MultiEffect.cpp ****             case CHRDEL: GetReverbSample(outl, outr, inl, inr); break;
  74:MultiEffect.cpp ****             case DEL: GetDelaySample(outl, outr, inl, inr); break;
  75:MultiEffect.cpp ****             case COR: GetChorusSample(outl, outr, inl, inr); break;
  76:MultiEffect.cpp ****             case PHR: GetPhaserSample(outl, outr, inl, inr); break;
  77:MultiEffect.cpp ****             case OCT: GetOctaveSample(outl, outr, inl, inr); break;
  78:MultiEffect.cpp ****             default: outl = outr = 0;
  79:MultiEffect.cpp ****         }
  80:MultiEffect.cpp **** 
  81:MultiEffect.cpp ****         // left out
  82:MultiEffect.cpp ****         out[i] = outl;
  83:MultiEffect.cpp **** 
  84:MultiEffect.cpp ****         // right out
  85:MultiEffect.cpp ****         out[i + 1] = outr;
  86:MultiEffect.cpp ****     }
  87:MultiEffect.cpp **** }
  88:MultiEffect.cpp **** int main(void)
  89:MultiEffect.cpp **** {
 1274              		.loc 18 89 1 is_stmt 1 view -0
 1275              		.cfi_startproc
 1276              		@ args = 0, pretend = 0, frame = 40
 1277              		@ frame_needed = 0, uses_anonymous_args = 0
  90:MultiEffect.cpp ****     // initialize pod hardware and oscillator daisysp module
  91:MultiEffect.cpp ****     float sample_rate;
 1278              		.loc 18 91 5 view .LVU362
  92:MultiEffect.cpp **** 
  93:MultiEffect.cpp ****     //Inits and sample rate
  94:MultiEffect.cpp ****     pod.Init();
 1279              		.loc 18 94 5 view .LVU363
  89:MultiEffect.cpp ****     // initialize pod hardware and oscillator daisysp module
 1280              		.loc 18 89 1 is_stmt 0 view .LVU364
 1281 0000 2DE9F04F 		push	{r4, r5, r6, r7, r8, r9, r10, fp, lr}
 1282              		.cfi_def_cfa_offset 36
 1283              		.cfi_offset 4, -36
 1284              		.cfi_offset 5, -32
 1285              		.cfi_offset 6, -28
 1286              		.cfi_offset 7, -24
 1287              		.cfi_offset 8, -20
 1288              		.cfi_offset 9, -16
 1289              		.cfi_offset 10, -12
 1290              		.cfi_offset 11, -8
 1291              		.cfi_offset 14, -4
ARM GAS  C:\Users\seanw\AppData\Local\Temp\ccbivcrf.s 			page 47


 1292              		.loc 18 94 13 view .LVU365
 1293 0004 0021     		movs	r1, #0
 1294              	.LBB750:
 1295              	.LBB751:
 1296              	.LBB752:
  36:../../DaisySP/Source/Utility/delayline.h ****         delay_     = 1;
 1297              		.loc 17 36 20 view .LVU366
 1298 0006 0024     		movs	r4, #0
 1299              	.LBE752:
 1300              	.LBE751:
 1301              	.LBE750:
 1302              		.loc 18 94 13 view .LVU367
 1303 0008 DB48     		ldr	r0, .L46+8
 1304              	.LBB765:
 1305              	.LBB760:
 1306              	.LBB755:
  37:../../DaisySP/Source/Utility/delayline.h ****     }
 1307              		.loc 17 37 20 view .LVU368
 1308 000a 0125     		movs	r5, #1
 1309              	.LBE755:
 1310              	.LBE760:
 1311              	.LBE765:
 1312              	.LBB766:
 1313              	.LBB767:
 1314              	.LBB768:
  36:../../DaisySP/Source/Utility/delayline.h ****         delay_     = 1;
 1315              		.loc 17 36 20 view .LVU369
 1316 000c DFF80894 		ldr	r9, .L46+168
 1317              	.LBE768:
 1318              	.LBE767:
 1319              	.LBE766:
 1320              	.LBB777:
 1321              	.LBB778:
 1322              	.LBB779:
 1323 0010 DFF80884 		ldr	r8, .L46+172
 1324              	.LBE779:
 1325              	.LBE778:
 1326              	.LBE777:
 1327              	.LBB788:
 1328              	.LBB761:
 1329              	.LBB756:
 1330 0014 DFF808A4 		ldr	r10, .L46+176
 1331              	.LBE756:
 1332              	.LBE761:
 1333              	.LBE788:
 1334              	.LBB789:
 1335              	.LBB790:
 1336              	.LBB791:
 1337 0018 D84F     		ldr	r7, .L46+12
 1338              	.LBE791:
 1339              	.LBE790:
 1340              	.LBE789:
 1341              	.LBB802:
 1342              	.LBB803:
  65:../../DaisySP/Source/Effects/pitchshifter.h ****         sr_           = sr;
 1343              		.loc 3 65 23 view .LVU370
 1344 001a D94E     		ldr	r6, .L46+16
ARM GAS  C:\Users\seanw\AppData\Local\Temp\ccbivcrf.s 			page 48


 1345              	.LBE803:
 1346              	.LBE802:
  89:MultiEffect.cpp ****     // initialize pod hardware and oscillator daisysp module
 1347              		.loc 18 89 1 view .LVU371
 1348 001c 2DED048B 		vpush.64	{d8, d9}
 1349              		.cfi_def_cfa_offset 52
 1350              		.cfi_offset 80, -52
 1351              		.cfi_offset 81, -48
 1352              		.cfi_offset 82, -44
 1353              		.cfi_offset 83, -40
 1354 0020 8BB0     		sub	sp, sp, #44
 1355              		.cfi_def_cfa_offset 96
 1356              		.loc 18 94 13 view .LVU372
 1357 0022 FFF7FEFF 		bl	_ZN5daisy8DaisyPod4InitEb
 1358              	.LVL46:
  95:MultiEffect.cpp ****     sample_rate = pod.AudioSampleRate();
 1359              		.loc 18 95 5 is_stmt 1 view .LVU373
 1360              		.loc 18 95 38 is_stmt 0 view .LVU374
 1361 0026 D448     		ldr	r0, .L46+8
 1362 0028 FFF7FEFF 		bl	_ZN5daisy8DaisyPod15AudioSampleRateEv
 1363              	.LVL47:
 1364              	.LBB865:
 1365              	.LBB762:
 1366              	.LBB757:
 1367              	.LBB753:
  34:../../DaisySP/Source/Utility/delayline.h ****         }
 1368              		.loc 17 34 22 view .LVU375
 1369 002c D54A     		ldr	r2, .L46+20
 1370 002e 2146     		mov	r1, r4
 1371 0030 D548     		ldr	r0, .L46+24
 1372              	.LBE753:
 1373              	.LBE757:
 1374              	.LBE762:
 1375              	.LBE865:
 1376              		.loc 18 95 38 view .LVU376
 1377 0032 F0EE408A 		vmov.f32	s17, s0
 1378              	.LVL48:
  96:MultiEffect.cpp ****     // start effect processing
  97:MultiEffect.cpp **** 
  98:MultiEffect.cpp ****     dell.Init();
 1379              		.loc 18 98 5 is_stmt 1 view .LVU377
 1380              	.LBB866:
 1381              	.LBI750:
  27:../../DaisySP/Source/Utility/delayline.h ****     /** clears buffer, sets write ptr to 0, and delay to 1 sample.
 1382              		.loc 17 27 10 view .LVU378
 1383              	.LBB763:
 1384              	.LBI751:
  30:../../DaisySP/Source/Utility/delayline.h ****     {
 1385              		.loc 17 30 10 view .LVU379
 1386              	.LBB758:
 1387              	.LBB754:
  32:../../DaisySP/Source/Utility/delayline.h ****         {
 1388              		.loc 17 32 29 view .LVU380
  34:../../DaisySP/Source/Utility/delayline.h ****         }
 1389              		.loc 17 34 22 is_stmt 0 view .LVU381
 1390 0036 FFF7FEFF 		bl	memset
 1391              	.LVL49:
ARM GAS  C:\Users\seanw\AppData\Local\Temp\ccbivcrf.s 			page 49


  34:../../DaisySP/Source/Utility/delayline.h ****         }
 1392              		.loc 17 34 22 view .LVU382
 1393              	.LBE754:
 1394              	.LBE758:
 1395              	.LBE763:
 1396              	.LBE866:
 1397              	.LBB867:
 1398              	.LBB774:
 1399              	.LBB771:
 1400              	.LBB769:
 1401 003a D24A     		ldr	r2, .L46+20
 1402 003c 2146     		mov	r1, r4
 1403 003e 09F10C00 		add	r0, r9, #12
 1404              	.LBE769:
 1405              	.LBE771:
 1406              	.LBE774:
 1407              	.LBE867:
 1408              	.LBB868:
 1409              	.LBB764:
 1410              	.LBB759:
  37:../../DaisySP/Source/Utility/delayline.h ****     }
 1411              		.loc 17 37 20 view .LVU383
 1412 0042 CAE90145 		strd	r4, r5, [r10, #4]
 1413              	.LVL50:
  37:../../DaisySP/Source/Utility/delayline.h ****     }
 1414              		.loc 17 37 20 view .LVU384
 1415              	.LBE759:
 1416              	.LBE764:
 1417              	.LBE868:
 1418              	.LBB869:
 1419              	.LBB775:
 1420              	.LBB772:
 1421              	.LBB770:
  32:../../DaisySP/Source/Utility/delayline.h ****         {
 1422              		.loc 17 32 29 is_stmt 1 view .LVU385
  34:../../DaisySP/Source/Utility/delayline.h ****         }
 1423              		.loc 17 34 22 is_stmt 0 view .LVU386
 1424 0046 FFF7FEFF 		bl	memset
 1425              	.LVL51:
  34:../../DaisySP/Source/Utility/delayline.h ****         }
 1426              		.loc 17 34 22 view .LVU387
 1427              	.LBE770:
 1428              	.LBE772:
 1429              	.LBE775:
 1430              	.LBE869:
 1431              	.LBB870:
 1432              	.LBB785:
 1433              	.LBB782:
 1434              	.LBB780:
 1435 004a CE4A     		ldr	r2, .L46+20
 1436 004c 2146     		mov	r1, r4
 1437 004e 08F10C00 		add	r0, r8, #12
 1438              	.LBE780:
 1439              	.LBE782:
 1440              	.LBE785:
 1441              	.LBE870:
 1442              	.LBB871:
ARM GAS  C:\Users\seanw\AppData\Local\Temp\ccbivcrf.s 			page 50


 1443              	.LBB776:
 1444              	.LBB773:
  37:../../DaisySP/Source/Utility/delayline.h ****     }
 1445              		.loc 17 37 20 view .LVU388
 1446 0052 C9E90145 		strd	r4, r5, [r9, #4]
 1447              	.LVL52:
  37:../../DaisySP/Source/Utility/delayline.h ****     }
 1448              		.loc 17 37 20 view .LVU389
 1449              	.LBE773:
 1450              	.LBE776:
 1451              	.LBE871:
 1452              	.LBB872:
 1453              	.LBB786:
 1454              	.LBB783:
 1455              	.LBB781:
  32:../../DaisySP/Source/Utility/delayline.h ****         {
 1456              		.loc 17 32 29 is_stmt 1 view .LVU390
  34:../../DaisySP/Source/Utility/delayline.h ****         }
 1457              		.loc 17 34 22 is_stmt 0 view .LVU391
 1458 0056 FFF7FEFF 		bl	memset
 1459              	.LVL53:
  34:../../DaisySP/Source/Utility/delayline.h ****         }
 1460              		.loc 17 34 22 view .LVU392
 1461              	.LBE781:
 1462              	.LBE783:
 1463              	.LBE786:
 1464              	.LBE872:
 1465              	.LBB873:
 1466              	.LBB798:
 1467              	.LBB794:
 1468              	.LBB792:
 1469 005a CA4A     		ldr	r2, .L46+20
 1470 005c 2146     		mov	r1, r4
 1471 005e 07F10C00 		add	r0, r7, #12
 1472              	.LBE792:
 1473              	.LBE794:
 1474              	.LBE798:
 1475              	.LBE873:
 1476              	.LBB874:
 1477              	.LBB787:
 1478              	.LBB784:
  37:../../DaisySP/Source/Utility/delayline.h ****     }
 1479              		.loc 17 37 20 view .LVU393
 1480 0062 C8E90145 		strd	r4, r5, [r8, #4]
 1481              	.LVL54:
  37:../../DaisySP/Source/Utility/delayline.h ****     }
 1482              		.loc 17 37 20 view .LVU394
 1483              	.LBE784:
 1484              	.LBE787:
 1485              	.LBE874:
 1486              	.LBB875:
 1487              	.LBB799:
 1488              	.LBB795:
 1489              	.LBB793:
  32:../../DaisySP/Source/Utility/delayline.h ****         {
 1490              		.loc 17 32 29 is_stmt 1 view .LVU395
  34:../../DaisySP/Source/Utility/delayline.h ****         }
ARM GAS  C:\Users\seanw\AppData\Local\Temp\ccbivcrf.s 			page 51


 1491              		.loc 17 34 22 is_stmt 0 view .LVU396
 1492 0066 FFF7FEFF 		bl	memset
 1493              	.LVL55:
  34:../../DaisySP/Source/Utility/delayline.h ****         }
 1494              		.loc 17 34 22 view .LVU397
 1495              	.LBE793:
 1496              	.LBE795:
 1497              	.LBE799:
 1498              	.LBE875:
  99:MultiEffect.cpp ****     delr.Init();
 100:MultiEffect.cpp ****     dell2.Init();
 101:MultiEffect.cpp ****     delr2.Init();
 102:MultiEffect.cpp ****     crs.Init(sample_rate);
 1499              		.loc 18 102 13 view .LVU398
 1500 006a B0EE680A 		vmov.f32	s0, s17
 1501 006e C748     		ldr	r0, .L46+28
 1502              	.LBB876:
 1503              	.LBB800:
 1504              	.LBB796:
  37:../../DaisySP/Source/Utility/delayline.h ****     }
 1505              		.loc 17 37 20 view .LVU399
 1506 0070 BD60     		str	r5, [r7, #8]
 1507              	.LBE796:
 1508              	.LBE800:
 1509              	.LBE876:
 1510              		.loc 18 102 5 is_stmt 1 view .LVU400
 1511 0072 06F18805 		add	r5, r6, #136
 1512              	.LBB877:
 1513              	.LBB801:
 1514              	.LBB797:
  36:../../DaisySP/Source/Utility/delayline.h ****         delay_     = 1;
 1515              		.loc 17 36 20 is_stmt 0 view .LVU401
 1516 0076 7C60     		str	r4, [r7, #4]
 1517              	.LBE797:
 1518              	.LBE801:
 1519              	.LBE877:
 1520              		.loc 18 102 13 view .LVU402
 1521 0078 FFF7FEFF 		bl	_ZN7daisysp6Chorus4InitEf
 1522              	.LVL56:
 103:MultiEffect.cpp ****     crs2.Init(sample_rate);
 1523              		.loc 18 103 5 is_stmt 1 view .LVU403
 1524              		.loc 18 103 14 is_stmt 0 view .LVU404
 1525 007c B0EE680A 		vmov.f32	s0, s17
 1526 0080 C348     		ldr	r0, .L46+32
 1527 0082 FFF7FEFF 		bl	_ZN7daisysp6Chorus4InitEf
 1528              	.LVL57:
 104:MultiEffect.cpp ****     crs3.Init(sample_rate);
 1529              		.loc 18 104 5 is_stmt 1 view .LVU405
 1530              		.loc 18 104 14 is_stmt 0 view .LVU406
 1531 0086 B0EE680A 		vmov.f32	s0, s17
 1532 008a C248     		ldr	r0, .L46+36
 1533 008c FFF7FEFF 		bl	_ZN7daisysp6Chorus4InitEf
 1534              	.LVL58:
 105:MultiEffect.cpp ****     crs4.Init(sample_rate);
 1535              		.loc 18 105 5 is_stmt 1 view .LVU407
 1536              		.loc 18 105 14 is_stmt 0 view .LVU408
 1537 0090 B0EE680A 		vmov.f32	s0, s17
ARM GAS  C:\Users\seanw\AppData\Local\Temp\ccbivcrf.s 			page 52


 1538 0094 C048     		ldr	r0, .L46+40
 1539 0096 FFF7FEFF 		bl	_ZN7daisysp6Chorus4InitEf
 1540              	.LVL59:
 106:MultiEffect.cpp ****     psr.Init(sample_rate);
 1541              		.loc 18 106 5 is_stmt 1 view .LVU409
 1542              		.loc 18 106 13 is_stmt 0 view .LVU410
 1543 009a B0EE680A 		vmov.f32	s0, s17
 1544 009e BF48     		ldr	r0, .L46+44
 1545 00a0 FFF7FEFF 		bl	_ZN7daisysp6Phaser4InitEf
 1546              	.LVL60:
 107:MultiEffect.cpp ****     psr2.Init(sample_rate);
 1547              		.loc 18 107 5 is_stmt 1 view .LVU411
 1548              		.loc 18 107 14 is_stmt 0 view .LVU412
 1549 00a4 B0EE680A 		vmov.f32	s0, s17
 1550 00a8 BD48     		ldr	r0, .L46+48
 1551 00aa FFF7FEFF 		bl	_ZN7daisysp6Phaser4InitEf
 1552              	.LVL61:
 108:MultiEffect.cpp ****     pst.Init(sample_rate);
 1553              		.loc 18 108 5 is_stmt 1 view .LVU413
 1554              	.LBB878:
 1555              	.LBI802:
  63:../../DaisySP/Source/Effects/pitchshifter.h ****     {
 1556              		.loc 3 63 10 view .LVU414
 1557              	.LBB862:
  65:../../DaisySP/Source/Effects/pitchshifter.h ****         sr_           = sr;
 1558              		.loc 3 65 9 view .LVU415
  67:../../DaisySP/Source/Effects/pitchshifter.h ****         SetSemitones();
 1559              		.loc 3 67 23 is_stmt 0 view .LVU416
 1560 00ae BD4B     		ldr	r3, .L46+52
  65:../../DaisySP/Source/Effects/pitchshifter.h ****         sr_           = sr;
 1561              		.loc 3 65 23 view .LVU417
 1562 00b0 86F82440 		strb	r4, [r6, #36]
  66:../../DaisySP/Source/Effects/pitchshifter.h ****         mod_freq_     = 5.0f;
 1563              		.loc 3 66 9 is_stmt 1 view .LVU418
  67:../../DaisySP/Source/Effects/pitchshifter.h ****         SetSemitones();
 1564              		.loc 3 67 23 is_stmt 0 view .LVU419
 1565 00b4 F361     		str	r3, [r6, #28]	@ float
  66:../../DaisySP/Source/Effects/pitchshifter.h ****         mod_freq_     = 5.0f;
 1566              		.loc 3 66 23 view .LVU420
 1567 00b6 C6ED0A8A 		vstr.32	s17, [r6, #40]
  67:../../DaisySP/Source/Effects/pitchshifter.h ****         SetSemitones();
 1568              		.loc 3 67 9 is_stmt 1 view .LVU421
  68:../../DaisySP/Source/Effects/pitchshifter.h ****         for(uint8_t i = 0; i < 2; i++)
 1569              		.loc 3 68 9 view .LVU422
 1570              	.LVL62:
 1571              	.LBB804:
 1572              	.LBI804:
 170:../../DaisySP/Source/Effects/pitchshifter.h **** 
 171:../../DaisySP/Source/Effects/pitchshifter.h ****     /** sets delay size changing the timbre of the pitchshifting 
 172:../../DaisySP/Source/Effects/pitchshifter.h ****     */
 173:../../DaisySP/Source/Effects/pitchshifter.h ****     void SetDelSize(uint32_t size)
 174:../../DaisySP/Source/Effects/pitchshifter.h ****     {
 175:../../DaisySP/Source/Effects/pitchshifter.h ****         del_size_     = size < SHIFT_BUFFER_SIZE ? size : SHIFT_BUFFER_SIZE;
 176:../../DaisySP/Source/Effects/pitchshifter.h ****         force_recalc_ = true;
 177:../../DaisySP/Source/Effects/pitchshifter.h ****         SetTransposition(transpose_);
 178:../../DaisySP/Source/Effects/pitchshifter.h ****     }
 179:../../DaisySP/Source/Effects/pitchshifter.h **** 
ARM GAS  C:\Users\seanw\AppData\Local\Temp\ccbivcrf.s 			page 53


 180:../../DaisySP/Source/Effects/pitchshifter.h ****     /** sets an amount of internal random modulation, kind of sounds like tape-flutter
 181:../../DaisySP/Source/Effects/pitchshifter.h ****     */
 182:../../DaisySP/Source/Effects/pitchshifter.h ****     inline void SetFun(float f) { fun_ = f; }
 183:../../DaisySP/Source/Effects/pitchshifter.h **** 
 184:../../DaisySP/Source/Effects/pitchshifter.h ****   private:
 185:../../DaisySP/Source/Effects/pitchshifter.h ****     inline void SetSemitones()
 1573              		.loc 3 185 17 view .LVU423
 1574              	.LBB805:
 186:../../DaisySP/Source/Effects/pitchshifter.h ****     {
 187:../../DaisySP/Source/Effects/pitchshifter.h ****         for(size_t i = 0; i < 12; i++)
 1575              		.loc 3 187 29 view .LVU424
 1576              	.L33:
 188:../../DaisySP/Source/Effects/pitchshifter.h ****         {
 189:../../DaisySP/Source/Effects/pitchshifter.h ****             semitone_ratios_[i] = powf(2.0f, (float)i / 12);
 1577              		.loc 3 189 13 view .LVU425
 1578              		.loc 3 189 46 is_stmt 0 view .LVU426
 1579 00ba 07EE904A 		vmov	s15, r4	@ int
 1580              		.loc 3 189 39 view .LVU427
 1581 00be B2EE088A 		vmov.f32	s16, #1.2e+1
 187:../../DaisySP/Source/Effects/pitchshifter.h ****         {
 1582              		.loc 3 187 9 view .LVU428
 1583 00c2 0134     		adds	r4, r4, #1
 1584              	.LVL63:
 1585              		.loc 3 189 39 view .LVU429
 1586 00c4 B0EE000A 		vmov.f32	s0, #2.0e+0
 1587              		.loc 3 189 46 view .LVU430
 1588 00c8 F8EEE70A 		vcvt.f32.s32	s1, s15
 1589              		.loc 3 189 39 view .LVU431
 1590 00cc C0EE880A 		vdiv.f32	s1, s1, s16
 1591 00d0 FFF7FEFF 		bl	powf
 1592              	.LVL64:
 187:../../DaisySP/Source/Effects/pitchshifter.h ****         {
 1593              		.loc 3 187 29 view .LVU432
 1594 00d4 0C2C     		cmp	r4, #12
 1595              		.loc 3 189 33 view .LVU433
 1596 00d6 A5EC010A 		vstmia.32	r5!, {s0}
 187:../../DaisySP/Source/Effects/pitchshifter.h ****         {
 1597              		.loc 3 187 9 is_stmt 1 view .LVU434
 1598              	.LVL65:
 187:../../DaisySP/Source/Effects/pitchshifter.h ****         {
 1599              		.loc 3 187 29 view .LVU435
 1600 00da EED1     		bne	.L33
 1601              	.LVL66:
 187:../../DaisySP/Source/Effects/pitchshifter.h ****         {
 1602              		.loc 3 187 29 is_stmt 0 view .LVU436
 1603              	.LBE805:
 1604              	.LBE804:
 1605              	.LBB806:
  69:../../DaisySP/Source/Effects/pitchshifter.h ****         {
 1606              		.loc 3 69 30 is_stmt 1 view .LVU437
  71:../../DaisySP/Source/Effects/pitchshifter.h ****             d_[i].Init();
 1607              		.loc 3 71 13 view .LVU438
 1608              	.LBB807:
 1609              	.LBB808:
 1610              	.LBB809:
 1611              	.LBB810:
  34:../../DaisySP/Source/Utility/delayline.h ****         }
ARM GAS  C:\Users\seanw\AppData\Local\Temp\ccbivcrf.s 			page 54


 1612              		.loc 17 34 22 is_stmt 0 view .LVU439
 1613 00dc 0021     		movs	r1, #0
 1614              	.LBE810:
 1615              	.LBE809:
 1616              	.LBE808:
 1617              	.LBE807:
  71:../../DaisySP/Source/Effects/pitchshifter.h ****             d_[i].Init();
 1618              		.loc 3 71 22 view .LVU440
 1619 00de B24D     		ldr	r5, .L46+56
 1620              	.LBB829:
 1621              	.LBB822:
 1622              	.LBB815:
  37:../../DaisySP/Source/Utility/delayline.h ****     }
 1623              		.loc 17 37 20 view .LVU441
 1624 00e0 4FF0010B 		mov	fp, #1
 1625              	.LBE815:
 1626              	.LBE822:
 1627              	.LBE829:
  71:../../DaisySP/Source/Effects/pitchshifter.h ****             d_[i].Init();
 1628              		.loc 3 71 22 view .LVU442
 1629 00e4 9FEDB19A 		vldr.32	s18, .L46+60
 1630              	.LBB830:
 1631              	.LBB823:
 1632              	.LBB816:
  36:../../DaisySP/Source/Utility/delayline.h ****         delay_     = 1;
 1633              		.loc 17 36 20 view .LVU443
 1634 00e8 0C46     		mov	r4, r1
 1635              	.LBB811:
  34:../../DaisySP/Source/Utility/delayline.h ****         }
 1636              		.loc 17 34 22 view .LVU444
 1637 00ea 4FF48032 		mov	r2, #65536
 1638 00ee 05F10C00 		add	r0, r5, #12
 1639              	.LBE811:
 1640              	.LBE816:
 1641              	.LBE823:
 1642              	.LBE830:
  71:../../DaisySP/Source/Effects/pitchshifter.h ****             d_[i].Init();
 1643              		.loc 3 71 22 view .LVU445
 1644 00f2 86ED149A 		vstr.32	s18, [r6, #80]
  72:../../DaisySP/Source/Effects/pitchshifter.h ****             phs_[i].Init(sr, 50, i == 0 ? 0 : PI_F);
 1645              		.loc 3 72 13 is_stmt 1 view .LVU446
 1646              	.LVL67:
 1647              	.LBB831:
 1648              	.LBI807:
  27:../../DaisySP/Source/Utility/delayline.h ****     /** clears buffer, sets write ptr to 0, and delay to 1 sample.
 1649              		.loc 17 27 10 view .LVU447
 1650              	.LBB824:
 1651              	.LBI808:
  30:../../DaisySP/Source/Utility/delayline.h ****     {
 1652              		.loc 17 30 10 view .LVU448
 1653              	.LBB817:
 1654              	.LBB812:
  32:../../DaisySP/Source/Utility/delayline.h ****         {
 1655              		.loc 17 32 29 view .LVU449
  34:../../DaisySP/Source/Utility/delayline.h ****         }
 1656              		.loc 17 34 22 is_stmt 0 view .LVU450
 1657 00f6 FFF7FEFF 		bl	memset
ARM GAS  C:\Users\seanw\AppData\Local\Temp\ccbivcrf.s 			page 55


 1658              	.LVL68:
  34:../../DaisySP/Source/Utility/delayline.h ****         }
 1659              		.loc 17 34 22 view .LVU451
 1660              	.LBE812:
 1661              	.LBE817:
 1662              	.LBE824:
 1663              	.LBE831:
 1664              	.LBB832:
 1665              	.LBB833:
 1666              		.file 19 "../../DaisySP/Source/Control/phasor.h"
   1:../../DaisySP/Source/Control/phasor.h **** #pragma once
   2:../../DaisySP/Source/Control/phasor.h **** #ifndef DSY_PHASOR_H
   3:../../DaisySP/Source/Control/phasor.h **** #define DSY_PHASOR_H
   4:../../DaisySP/Source/Control/phasor.h **** #ifdef __cplusplus
   5:../../DaisySP/Source/Control/phasor.h **** 
   6:../../DaisySP/Source/Control/phasor.h **** namespace daisysp
   7:../../DaisySP/Source/Control/phasor.h **** {
   8:../../DaisySP/Source/Control/phasor.h **** /** Generates a normalized signal moving from 0-1 at the specified frequency.
   9:../../DaisySP/Source/Control/phasor.h **** 
  10:../../DaisySP/Source/Control/phasor.h **** \todo Selecting which channels should be initialized/included in the sequence conversion.
  11:../../DaisySP/Source/Control/phasor.h **** \todo Setup a similar start function for an external mux, but that seems outside the scope of this 
  12:../../DaisySP/Source/Control/phasor.h **** 
  13:../../DaisySP/Source/Control/phasor.h **** */
  14:../../DaisySP/Source/Control/phasor.h **** class Phasor
  15:../../DaisySP/Source/Control/phasor.h **** {
  16:../../DaisySP/Source/Control/phasor.h ****   public:
  17:../../DaisySP/Source/Control/phasor.h ****     Phasor() {}
  18:../../DaisySP/Source/Control/phasor.h ****     ~Phasor() {}
  19:../../DaisySP/Source/Control/phasor.h ****     /** Initializes the Phasor module
  20:../../DaisySP/Source/Control/phasor.h ****     sample rate, and freq are in Hz
  21:../../DaisySP/Source/Control/phasor.h ****     initial phase is in radians
  22:../../DaisySP/Source/Control/phasor.h ****     Additional Init functions have defaults when arg is not specified:
  23:../../DaisySP/Source/Control/phasor.h ****     - phs = 0.0f
  24:../../DaisySP/Source/Control/phasor.h ****     - freq = 1.0f
  25:../../DaisySP/Source/Control/phasor.h ****     */
  26:../../DaisySP/Source/Control/phasor.h ****     inline void Init(float sample_rate, float freq, float initial_phase)
  27:../../DaisySP/Source/Control/phasor.h ****     {
  28:../../DaisySP/Source/Control/phasor.h ****         sample_rate_ = sample_rate;
  29:../../DaisySP/Source/Control/phasor.h ****         phs_         = initial_phase;
  30:../../DaisySP/Source/Control/phasor.h ****         SetFreq(freq);
 1667              		.loc 19 30 16 view .LVU452
 1668 00fa 9FEDAD0A 		vldr.32	s0, .L46+64
 1669 00fe AD48     		ldr	r0, .L46+68
  28:../../DaisySP/Source/Control/phasor.h ****         phs_         = initial_phase;
 1670              		.loc 19 28 22 view .LVU453
 1671 0100 C6ED0D8A 		vstr.32	s17, [r6, #52]
  29:../../DaisySP/Source/Control/phasor.h ****         SetFreq(freq);
 1672              		.loc 19 29 22 view .LVU454
 1673 0104 86ED0F9A 		vstr.32	s18, [r6, #60]
 1674              	.LBE833:
 1675              	.LBE832:
 1676              	.LBB837:
 1677              	.LBB825:
 1678              	.LBB818:
  37:../../DaisySP/Source/Utility/delayline.h ****     }
 1679              		.loc 17 37 20 view .LVU455
 1680 0108 C5E9014B 		strd	r4, fp, [r5, #4]
ARM GAS  C:\Users\seanw\AppData\Local\Temp\ccbivcrf.s 			page 56


 1681              	.LVL69:
  37:../../DaisySP/Source/Utility/delayline.h ****     }
 1682              		.loc 17 37 20 view .LVU456
 1683              	.LBE818:
 1684              	.LBE825:
 1685              	.LBE837:
  73:../../DaisySP/Source/Effects/pitchshifter.h ****         }
 1686              		.loc 3 73 13 is_stmt 1 view .LVU457
 1687              	.LBB838:
 1688              	.LBI832:
  26:../../DaisySP/Source/Control/phasor.h ****     {
 1689              		.loc 19 26 17 view .LVU458
 1690              	.LBB834:
  28:../../DaisySP/Source/Control/phasor.h ****         phs_         = initial_phase;
 1691              		.loc 19 28 9 view .LVU459
  29:../../DaisySP/Source/Control/phasor.h ****         SetFreq(freq);
 1692              		.loc 19 29 9 view .LVU460
 1693              		.loc 19 30 9 view .LVU461
 1694              		.loc 19 30 16 is_stmt 0 view .LVU462
 1695 010c FFF7FEFF 		bl	_ZN7daisysp6Phasor7SetFreqEf
 1696              	.LVL70:
 1697              		.loc 19 30 16 view .LVU463
 1698              	.LBE834:
 1699              	.LBE838:
  69:../../DaisySP/Source/Effects/pitchshifter.h ****         {
 1700              		.loc 3 69 9 is_stmt 1 view .LVU464
  69:../../DaisySP/Source/Effects/pitchshifter.h ****         {
 1701              		.loc 3 69 30 view .LVU465
  71:../../DaisySP/Source/Effects/pitchshifter.h ****             d_[i].Init();
 1702              		.loc 3 71 13 view .LVU466
 1703              	.LBB839:
 1704              	.LBB826:
 1705              	.LBB819:
 1706              	.LBB813:
  34:../../DaisySP/Source/Utility/delayline.h ****         }
 1707              		.loc 17 34 22 is_stmt 0 view .LVU467
 1708 0110 4FF48032 		mov	r2, #65536
 1709 0114 2146     		mov	r1, r4
 1710 0116 A848     		ldr	r0, .L46+72
 1711              	.LBE813:
 1712              	.LBE819:
 1713              	.LBE826:
 1714              	.LBE839:
  71:../../DaisySP/Source/Effects/pitchshifter.h ****             d_[i].Init();
 1715              		.loc 3 71 22 view .LVU468
 1716 0118 86ED159A 		vstr.32	s18, [r6, #84]
  72:../../DaisySP/Source/Effects/pitchshifter.h ****             phs_[i].Init(sr, 50, i == 0 ? 0 : PI_F);
 1717              		.loc 3 72 13 is_stmt 1 view .LVU469
 1718              	.LVL71:
 1719              	.LBB840:
  27:../../DaisySP/Source/Utility/delayline.h ****     /** clears buffer, sets write ptr to 0, and delay to 1 sample.
 1720              		.loc 17 27 10 view .LVU470
 1721              	.LBB827:
  30:../../DaisySP/Source/Utility/delayline.h ****     {
 1722              		.loc 17 30 10 view .LVU471
 1723              	.LBB820:
 1724              	.LBB814:
ARM GAS  C:\Users\seanw\AppData\Local\Temp\ccbivcrf.s 			page 57


  32:../../DaisySP/Source/Utility/delayline.h ****         {
 1725              		.loc 17 32 29 view .LVU472
  34:../../DaisySP/Source/Utility/delayline.h ****         }
 1726              		.loc 17 34 22 is_stmt 0 view .LVU473
 1727 011c FFF7FEFF 		bl	memset
 1728              	.LVL72:
  34:../../DaisySP/Source/Utility/delayline.h ****         }
 1729              		.loc 17 34 22 view .LVU474
 1730              	.LBE814:
  36:../../DaisySP/Source/Utility/delayline.h ****         delay_     = 1;
 1731              		.loc 17 36 20 view .LVU475
 1732 0120 05F58033 		add	r3, r5, #65536
 1733              	.LBE820:
 1734              	.LBE827:
 1735              	.LBE840:
 1736              	.LBB841:
 1737              	.LBB835:
 1738              		.loc 19 30 16 view .LVU476
 1739 0124 9FEDA20A 		vldr.32	s0, .L46+64
 1740 0128 A448     		ldr	r0, .L46+76
  28:../../DaisySP/Source/Control/phasor.h ****         phs_         = initial_phase;
 1741              		.loc 19 28 22 view .LVU477
 1742 012a C6ED118A 		vstr.32	s17, [r6, #68]
 1743              	.LBE835:
 1744              	.LBE841:
 1745              	.LBB842:
 1746              	.LBB828:
 1747              	.LBB821:
  37:../../DaisySP/Source/Utility/delayline.h ****     }
 1748              		.loc 17 37 20 view .LVU478
 1749 012e C3E9044B 		strd	r4, fp, [r3, #16]
 1750              	.LVL73:
  37:../../DaisySP/Source/Utility/delayline.h ****     }
 1751              		.loc 17 37 20 view .LVU479
 1752              	.LBE821:
 1753              	.LBE828:
 1754              	.LBE842:
  73:../../DaisySP/Source/Effects/pitchshifter.h ****         }
 1755              		.loc 3 73 13 is_stmt 1 view .LVU480
 1756              	.LBB843:
  26:../../DaisySP/Source/Control/phasor.h ****     {
 1757              		.loc 19 26 17 view .LVU481
 1758              	.LBB836:
  28:../../DaisySP/Source/Control/phasor.h ****         phs_         = initial_phase;
 1759              		.loc 19 28 9 view .LVU482
  29:../../DaisySP/Source/Control/phasor.h ****         SetFreq(freq);
 1760              		.loc 19 29 9 view .LVU483
  29:../../DaisySP/Source/Control/phasor.h ****         SetFreq(freq);
 1761              		.loc 19 29 22 is_stmt 0 view .LVU484
 1762 0132 A34B     		ldr	r3, .L46+80
 1763 0134 F364     		str	r3, [r6, #76]	@ float
 1764              		.loc 19 30 9 is_stmt 1 view .LVU485
 1765              		.loc 19 30 16 is_stmt 0 view .LVU486
 1766 0136 FFF7FEFF 		bl	_ZN7daisysp6Phasor7SetFreqEf
 1767              	.LVL74:
 1768              		.loc 19 30 16 view .LVU487
 1769              	.LBE836:
ARM GAS  C:\Users\seanw\AppData\Local\Temp\ccbivcrf.s 			page 58


 1770              	.LBE843:
  69:../../DaisySP/Source/Effects/pitchshifter.h ****         {
 1771              		.loc 3 69 9 is_stmt 1 view .LVU488
  69:../../DaisySP/Source/Effects/pitchshifter.h ****         {
 1772              		.loc 3 69 30 view .LVU489
 1773              	.LBE806:
  75:../../DaisySP/Source/Effects/pitchshifter.h ****         del_size_ = SHIFT_BUFFER_SIZE;
 1774              		.loc 3 75 9 view .LVU490
 1775 013a 96ED187A 		vldr.32	s14, [r6, #96]
 1776              	.LBB844:
 1777              	.LBB845:
 1778              	.LBB846:
 1779              	.LBB847:
 147:../../DaisySP/Source/Effects/pitchshifter.h ****             ratio *= (uint8_t)(fabsf(transpose) / 12) + 1;
 1780              		.loc 3 147 47 is_stmt 0 view .LVU491
 1781 013e A14A     		ldr	r2, .L46+84
 146:../../DaisySP/Source/Effects/pitchshifter.h ****             ratio      = semitone_ratios_[idx % 12];
 1782              		.loc 3 146 40 view .LVU492
 1783 0140 F0EEC77A 		vabs.f32	s15, s14
 1784              	.LBE847:
 1785              	.LBE846:
 1786              	.LBE845:
 1787              	.LBE844:
  75:../../DaisySP/Source/Effects/pitchshifter.h ****         del_size_ = SHIFT_BUFFER_SIZE;
 1788              		.loc 3 75 19 view .LVU493
 1789 0144 86F82CB0 		strb	fp, [r6, #44]
  76:../../DaisySP/Source/Effects/pitchshifter.h ****         SetDelSize(del_size_);
 1790              		.loc 3 76 9 is_stmt 1 view .LVU494
 1791              	.LBB859:
 1792              	.LBB856:
 1793              	.LBB852:
 1794              	.LBB848:
 149:../../DaisySP/Source/Effects/pitchshifter.h ****             {
 1795              		.loc 3 149 13 is_stmt 0 view .LVU495
 1796 0148 B4EEC97A 		vcmpe.f32	s14, s18
 1797              	.LBE848:
 1798              	.LBE852:
 176:../../DaisySP/Source/Effects/pitchshifter.h ****         SetTransposition(transpose_);
 1799              		.loc 3 176 23 view .LVU496
 1800 014c 86F824B0 		strb	fp, [r6, #36]
 1801              	.LBB853:
 1802              	.LBB849:
 148:../../DaisySP/Source/Effects/pitchshifter.h ****             if(transpose > 0.0f)
 1803              		.loc 3 148 49 view .LVU497
 1804 0150 C7EE886A 		vdiv.f32	s13, s15, s16
 146:../../DaisySP/Source/Effects/pitchshifter.h ****             ratio      = semitone_ratios_[idx % 12];
 1805              		.loc 3 146 24 view .LVU498
 1806 0154 FCEEE77A 		vcvt.u32.f32	s15, s15
 149:../../DaisySP/Source/Effects/pitchshifter.h ****             {
 1807              		.loc 3 149 13 view .LVU499
 1808 0158 F1EE10FA 		vmrs	APSR_nzcv, FPSCR
 146:../../DaisySP/Source/Effects/pitchshifter.h ****             ratio      = semitone_ratios_[idx % 12];
 1809              		.loc 3 146 24 view .LVU500
 1810 015c CDED007A 		vstr.32	s15, [sp]	@ int
 147:../../DaisySP/Source/Effects/pitchshifter.h ****             ratio *= (uint8_t)(fabsf(transpose) / 12) + 1;
 1811              		.loc 3 147 47 view .LVU501
 1812 0160 9DF80030 		ldrb	r3, [sp]	@ zero_extendqisi2
ARM GAS  C:\Users\seanw\AppData\Local\Temp\ccbivcrf.s 			page 59


 1813 0164 A2FB0312 		umull	r1, r2, r2, r3
 1814 0168 4FEAD202 		lsr	r2, r2, #3
 1815 016c 02EB4202 		add	r2, r2, r2, lsl #1
 148:../../DaisySP/Source/Effects/pitchshifter.h ****             if(transpose > 0.0f)
 1816              		.loc 3 148 22 view .LVU502
 1817 0170 FCEEE67A 		vcvt.u32.f32	s15, s13
 147:../../DaisySP/Source/Effects/pitchshifter.h ****             ratio *= (uint8_t)(fabsf(transpose) / 12) + 1;
 1818              		.loc 3 147 47 view .LVU503
 1819 0174 A3EB8203 		sub	r3, r3, r2, lsl #2
 147:../../DaisySP/Source/Effects/pitchshifter.h ****             ratio *= (uint8_t)(fabsf(transpose) / 12) + 1;
 1820              		.loc 3 147 24 view .LVU504
 1821 0178 48F22202 		movw	r2, #32802
 1822 017c 52FA83F3 		uxtab	r3, r2, r3
 148:../../DaisySP/Source/Effects/pitchshifter.h ****             if(transpose > 0.0f)
 1823              		.loc 3 148 22 view .LVU505
 1824 0180 CDED017A 		vstr.32	s15, [sp, #4]	@ int
 147:../../DaisySP/Source/Effects/pitchshifter.h ****             ratio *= (uint8_t)(fabsf(transpose) / 12) + 1;
 1825              		.loc 3 147 24 view .LVU506
 1826 0184 05EB8303 		add	r3, r5, r3, lsl #2
 1827 0188 D3ED006A 		vldr.32	s13, [r3]
 148:../../DaisySP/Source/Effects/pitchshifter.h ****             if(transpose > 0.0f)
 1828              		.loc 3 148 22 view .LVU507
 1829 018c 9DF80430 		ldrb	r3, [sp, #4]	@ zero_extendqisi2
 148:../../DaisySP/Source/Effects/pitchshifter.h ****             if(transpose > 0.0f)
 1830              		.loc 3 148 55 view .LVU508
 1831 0190 5B44     		add	r3, r3, fp
 148:../../DaisySP/Source/Effects/pitchshifter.h ****             if(transpose > 0.0f)
 1832              		.loc 3 148 19 view .LVU509
 1833 0192 07EE903A 		vmov	s15, r3	@ int
 1834              	.LBE849:
 1835              	.LBE853:
 1836              	.LBE856:
 1837              	.LBE859:
  76:../../DaisySP/Source/Effects/pitchshifter.h ****         SetDelSize(del_size_);
 1838              		.loc 3 76 19 view .LVU510
 1839 0196 4FF48043 		mov	r3, #16384
 1840              	.LBB860:
 1841              	.LBB857:
 1842              	.LBB854:
 1843              	.LBB850:
 148:../../DaisySP/Source/Effects/pitchshifter.h ****             if(transpose > 0.0f)
 1844              		.loc 3 148 19 view .LVU511
 1845 019a F8EEE77A 		vcvt.f32.s32	s15, s15
 1846              	.LBE850:
 1847              	.LBE854:
 1848              	.LBE857:
 1849              	.LBE860:
  76:../../DaisySP/Source/Effects/pitchshifter.h ****         SetDelSize(del_size_);
 1850              		.loc 3 76 19 view .LVU512
 1851 019e 3362     		str	r3, [r6, #32]
  77:../../DaisySP/Source/Effects/pitchshifter.h ****         fun_ = 0.0f;
 1852              		.loc 3 77 9 is_stmt 1 view .LVU513
 1853              	.LVL75:
 1854              	.LBB861:
 1855              	.LBI844:
 173:../../DaisySP/Source/Effects/pitchshifter.h ****     {
 1856              		.loc 3 173 10 view .LVU514
ARM GAS  C:\Users\seanw\AppData\Local\Temp\ccbivcrf.s 			page 60


 1857              	.LBB858:
 175:../../DaisySP/Source/Effects/pitchshifter.h ****         force_recalc_ = true;
 1858              		.loc 3 175 9 view .LVU515
 176:../../DaisySP/Source/Effects/pitchshifter.h ****         SetTransposition(transpose_);
 1859              		.loc 3 176 9 view .LVU516
 177:../../DaisySP/Source/Effects/pitchshifter.h ****     }
 1860              		.loc 3 177 9 view .LVU517
 1861              	.LBB855:
 1862              	.LBI846:
 139:../../DaisySP/Source/Effects/pitchshifter.h ****     {
 1863              		.loc 3 139 10 view .LVU518
 1864              	.LBB851:
 141:../../DaisySP/Source/Effects/pitchshifter.h ****         uint8_t idx;
 1865              		.loc 3 141 9 view .LVU519
 142:../../DaisySP/Source/Effects/pitchshifter.h ****         if(transpose_ != transpose || force_recalc_)
 1866              		.loc 3 142 9 view .LVU520
 143:../../DaisySP/Source/Effects/pitchshifter.h ****         {
 1867              		.loc 3 143 9 view .LVU521
 145:../../DaisySP/Source/Effects/pitchshifter.h ****             idx        = (uint8_t)fabsf(transpose);
 1868              		.loc 3 145 13 view .LVU522
 146:../../DaisySP/Source/Effects/pitchshifter.h ****             ratio      = semitone_ratios_[idx % 12];
 1869              		.loc 3 146 13 view .LVU523
 147:../../DaisySP/Source/Effects/pitchshifter.h ****             ratio *= (uint8_t)(fabsf(transpose) / 12) + 1;
 1870              		.loc 3 147 13 view .LVU524
 148:../../DaisySP/Source/Effects/pitchshifter.h ****             if(transpose > 0.0f)
 1871              		.loc 3 148 13 view .LVU525
 148:../../DaisySP/Source/Effects/pitchshifter.h ****             if(transpose > 0.0f)
 1872              		.loc 3 148 19 is_stmt 0 view .LVU526
 1873 01a0 67EEA67A 		vmul.f32	s15, s15, s13
 1874              	.LVL76:
 149:../../DaisySP/Source/Effects/pitchshifter.h ****             {
 1875              		.loc 3 149 13 is_stmt 1 view .LVU527
 1876 01a4 01DC     		bgt	.L34
 155:../../DaisySP/Source/Effects/pitchshifter.h ****             }
 1877              		.loc 3 155 17 view .LVU528
 155:../../DaisySP/Source/Effects/pitchshifter.h ****             }
 1878              		.loc 3 155 27 is_stmt 0 view .LVU529
 1879 01a6 86F82C40 		strb	r4, [r6, #44]
 1880              	.L34:
 157:../../DaisySP/Source/Effects/pitchshifter.h ****             if(mod_freq_ < 0.0f)
 1881              		.loc 3 157 13 is_stmt 1 view .LVU530
 157:../../DaisySP/Source/Effects/pitchshifter.h ****             if(mod_freq_ < 0.0f)
 1882              		.loc 3 157 33 is_stmt 0 view .LVU531
 1883 01aa B7EE006A 		vmov.f32	s12, #1.0e+0
 157:../../DaisySP/Source/Effects/pitchshifter.h ****             if(mod_freq_ < 0.0f)
 1884              		.loc 3 157 41 view .LVU532
 1885 01ae D6ED0A6A 		vldr.32	s13, [r6, #40]
 157:../../DaisySP/Source/Effects/pitchshifter.h ****             if(mod_freq_ < 0.0f)
 1886              		.loc 3 157 48 view .LVU533
 1887 01b2 9FED857A 		vldr.32	s14, .L46+88
 1888              	.LVL77:
 158:../../DaisySP/Source/Effects/pitchshifter.h ****             {
 1889              		.loc 3 158 13 view .LVU534
 1890 01b6 0023     		movs	r3, #0
 162:../../DaisySP/Source/Effects/pitchshifter.h ****             phs_[1].SetFreq(mod_freq_);
 1891              		.loc 3 162 28 view .LVU535
 1892 01b8 7E48     		ldr	r0, .L46+68
ARM GAS  C:\Users\seanw\AppData\Local\Temp\ccbivcrf.s 			page 61


 157:../../DaisySP/Source/Effects/pitchshifter.h ****             if(mod_freq_ < 0.0f)
 1893              		.loc 3 157 33 view .LVU536
 1894 01ba 77EEC67A 		vsub.f32	s15, s15, s12
 1895              	.LVL78:
 157:../../DaisySP/Source/Effects/pitchshifter.h ****             if(mod_freq_ < 0.0f)
 1896              		.loc 3 157 41 view .LVU537
 1897 01be 67EEA67A 		vmul.f32	s15, s15, s13
 157:../../DaisySP/Source/Effects/pitchshifter.h ****             if(mod_freq_ < 0.0f)
 1898              		.loc 3 157 48 view .LVU538
 1899 01c2 67EE877A 		vmul.f32	s15, s15, s14
 158:../../DaisySP/Source/Effects/pitchshifter.h ****             {
 1900              		.loc 3 158 13 is_stmt 1 view .LVU539
 1901 01c6 F5EEC07A 		vcmpe.f32	s15, #0
 1902 01ca F1EE10FA 		vmrs	APSR_nzcv, FPSCR
 160:../../DaisySP/Source/Effects/pitchshifter.h ****             }
 1903              		.loc 3 160 27 is_stmt 0 view .LVU540
 1904 01ce 4CBF     		ite	mi
 1905 01d0 F361     		strmi	r3, [r6, #28]	@ float
 157:../../DaisySP/Source/Effects/pitchshifter.h ****             if(mod_freq_ < 0.0f)
 1906              		.loc 3 157 23 view .LVU541
 1907 01d2 C6ED077A 		vstrpl.32	s15, [r6, #28]
 160:../../DaisySP/Source/Effects/pitchshifter.h ****             }
 1908              		.loc 3 160 17 is_stmt 1 view .LVU542
 162:../../DaisySP/Source/Effects/pitchshifter.h ****             phs_[1].SetFreq(mod_freq_);
 1909              		.loc 3 162 13 view .LVU543
 162:../../DaisySP/Source/Effects/pitchshifter.h ****             phs_[1].SetFreq(mod_freq_);
 1910              		.loc 3 162 28 is_stmt 0 view .LVU544
 1911 01d6 96ED070A 		vldr.32	s0, [r6, #28]
 1912 01da FFF7FEFF 		bl	_ZN7daisysp6Phasor7SetFreqEf
 1913              	.LVL79:
 163:../../DaisySP/Source/Effects/pitchshifter.h ****             if(force_recalc_)
 1914              		.loc 3 163 13 is_stmt 1 view .LVU545
 163:../../DaisySP/Source/Effects/pitchshifter.h ****             if(force_recalc_)
 1915              		.loc 3 163 28 is_stmt 0 view .LVU546
 1916 01de 96ED070A 		vldr.32	s0, [r6, #28]
 1917 01e2 7648     		ldr	r0, .L46+76
 1918 01e4 FFF7FEFF 		bl	_ZN7daisysp6Phasor7SetFreqEf
 1919              	.LVL80:
 164:../../DaisySP/Source/Effects/pitchshifter.h ****             {
 1920              		.loc 3 164 13 is_stmt 1 view .LVU547
 1921 01e8 96F82430 		ldrb	r3, [r6, #36]	@ zero_extendqisi2
 1922 01ec 13B1     		cbz	r3, .L39
 166:../../DaisySP/Source/Effects/pitchshifter.h ****             }
 1923              		.loc 3 166 17 view .LVU548
 166:../../DaisySP/Source/Effects/pitchshifter.h ****             }
 1924              		.loc 3 166 31 is_stmt 0 view .LVU549
 1925 01ee 0023     		movs	r3, #0
 1926 01f0 86F82430 		strb	r3, [r6, #36]
 1927              	.L39:
 1928              	.LVL81:
 166:../../DaisySP/Source/Effects/pitchshifter.h ****             }
 1929              		.loc 3 166 31 view .LVU550
 1930              	.LBE851:
 1931              	.LBE855:
 1932              	.LBE858:
 1933              	.LBE861:
  78:../../DaisySP/Source/Effects/pitchshifter.h ****     }
ARM GAS  C:\Users\seanw\AppData\Local\Temp\ccbivcrf.s 			page 62


 1934              		.loc 3 78 9 is_stmt 1 view .LVU551
 1935              	.LBE862:
 1936              	.LBE878:
 109:MultiEffect.cpp **** 
 110:MultiEffect.cpp **** 
 111:MultiEffect.cpp ****     //set parameters
 112:MultiEffect.cpp ****     deltime.Init(pod.knob1, sample_rate * .05, MAX_DELAY, deltime.LOGARITHMIC);
 1937              		.loc 18 112 29 is_stmt 0 view .LVU552
 1938 01f4 B7EEE87A 		vcvt.f64.f32	d7, s17
 1939              		.loc 18 112 22 view .LVU553
 1940 01f8 744C     		ldr	r4, .L46+92
 1941 01fa 02AD     		add	r5, sp, #8
 1942              	.LBB879:
 1943              	.LBB863:
  78:../../DaisySP/Source/Effects/pitchshifter.h ****     }
 1944              		.loc 3 78 14 view .LVU554
 1945 01fc 9FED6B8A 		vldr.32	s16, .L46+60
 1946              	.LBE863:
 1947              	.LBE879:
 1948              		.loc 18 112 17 view .LVU555
 1949 0200 DFED730A 		vldr.32	s1, .L46+96
 1950              	.LBB880:
 1951              	.LBB864:
  78:../../DaisySP/Source/Effects/pitchshifter.h ****     }
 1952              		.loc 3 78 14 view .LVU556
 1953 0204 86ED198A 		vstr.32	s16, [r6, #100]
 1954              	.LVL82:
  78:../../DaisySP/Source/Effects/pitchshifter.h ****     }
 1955              		.loc 3 78 14 view .LVU557
 1956              	.LBE864:
 1957              	.LBE880:
 1958              		.loc 18 112 5 is_stmt 1 view .LVU558
 113:MultiEffect.cpp **** 
 114:MultiEffect.cpp **** 
 115:MultiEffect.cpp **** 
 116:MultiEffect.cpp ****     //delay parameters
 117:MultiEffect.cpp ****     currentDelay = delayTarget = sample_rate * 0.75f;
 118:MultiEffect.cpp ****     dell.SetDelay(currentDelay);
 119:MultiEffect.cpp ****     delr.SetDelay(currentDelay);
 120:MultiEffect.cpp ****     dell2.SetDelay(currentDelay+500);
 121:MultiEffect.cpp ****     delr2.SetDelay(currentDelay+1000);
 122:MultiEffect.cpp **** 
 123:MultiEffect.cpp **** 
 124:MultiEffect.cpp **** 
 125:MultiEffect.cpp ****     //chorus parameters
 126:MultiEffect.cpp ****     crs.SetFeedback(.1f);
 127:MultiEffect.cpp ****     crs.SetDelay(.7f);
 128:MultiEffect.cpp ****     crs2.SetFeedback(.1f);
 129:MultiEffect.cpp ****     crs2.SetDelay(.82f);
 130:MultiEffect.cpp ****     crs3.SetFeedback(.1f);
 131:MultiEffect.cpp ****     crs3.SetDelay(.9f);
 132:MultiEffect.cpp ****     crs4.SetFeedback(.1f);
 133:MultiEffect.cpp ****     crs4.SetDelay(.97f);
 134:MultiEffect.cpp **** 
 135:MultiEffect.cpp ****     // phaser parameters
 136:MultiEffect.cpp ****     numstages = 4;
 1959              		.loc 18 136 15 is_stmt 0 view .LVU559
ARM GAS  C:\Users\seanw\AppData\Local\Temp\ccbivcrf.s 			page 63


 1960 0208 DFF818B2 		ldr	fp, .L46+180
 112:MultiEffect.cpp **** 
 1961              		.loc 18 112 41 view .LVU560
 1962 020c 9FED586B 		vldr.64	d6, .L46
 112:MultiEffect.cpp **** 
 1963              		.loc 18 112 22 view .LVU561
 1964 0210 0FCC     		ldmia	r4!, {r0, r1, r2, r3}
 112:MultiEffect.cpp **** 
 1965              		.loc 18 112 41 view .LVU562
 1966 0212 27EE067B 		vmul.f64	d7, d7, d6
 112:MultiEffect.cpp **** 
 1967              		.loc 18 112 22 view .LVU563
 1968 0216 0FC5     		stmia	r5!, {r0, r1, r2, r3}
 1969 0218 94E80F00 		ldm	r4, {r0, r1, r2, r3}
 112:MultiEffect.cpp **** 
 1970              		.loc 18 112 17 view .LVU564
 1971 021c B7EEC70B 		vcvt.f32.f64	s0, d7
 112:MultiEffect.cpp **** 
 1972              		.loc 18 112 22 view .LVU565
 1973 0220 85E80F00 		stm	r5, {r0, r1, r2, r3}
 112:MultiEffect.cpp **** 
 1974              		.loc 18 112 17 view .LVU566
 1975 0224 0222     		movs	r2, #2
 1976 0226 02A9     		add	r1, sp, #8
 1977 0228 6A48     		ldr	r0, .L46+100
 1978 022a FFF7FEFF 		bl	_ZN5daisy9Parameter4InitENS_13AnalogControlEffNS0_5CurveE
 1979              	.LVL83:
 1980              	.LBB881:
 1981              	.LBI881:
 1982              		.loc 5 23 5 is_stmt 1 view .LVU567
 1983              		.loc 5 23 5 is_stmt 0 view .LVU568
 1984              	.LBE881:
 117:MultiEffect.cpp ****     dell.SetDelay(currentDelay);
 1985              		.loc 18 117 5 is_stmt 1 view .LVU569
 117:MultiEffect.cpp ****     dell.SetDelay(currentDelay);
 1986              		.loc 18 117 46 is_stmt 0 view .LVU570
 1987 022e F6EE087A 		vmov.f32	s15, #7.5e-1
 120:MultiEffect.cpp ****     delr2.SetDelay(currentDelay+1000);
 1988              		.loc 18 120 19 view .LVU571
 1989 0232 9FED697A 		vldr.32	s14, .L46+104
 117:MultiEffect.cpp ****     dell.SetDelay(currentDelay);
 1990              		.loc 18 117 32 view .LVU572
 1991 0236 694B     		ldr	r3, .L46+108
 117:MultiEffect.cpp ****     dell.SetDelay(currentDelay);
 1992              		.loc 18 117 46 view .LVU573
 1993 0238 68EEA78A 		vmul.f32	s17, s17, s15
 1994              	.LVL84:
 121:MultiEffect.cpp **** 
 1995              		.loc 18 121 19 view .LVU574
 1996 023c DFED687A 		vldr.32	s15, .L46+112
 1997              	.LBB882:
 1998              	.LBB883:
  56:../../DaisySP/Source/Utility/delayline.h ****                                                            : max_size - 1;
 1999              		.loc 17 56 60 view .LVU575
 2000 0240 6849     		ldr	r1, .L46+116
 2001              	.LBE883:
 2002              	.LBE882:
ARM GAS  C:\Users\seanw\AppData\Local\Temp\ccbivcrf.s 			page 64


 126:MultiEffect.cpp ****     crs.SetDelay(.7f);
 2003              		.loc 18 126 20 view .LVU576
 2004 0242 9FED690A 		vldr.32	s0, .L46+120
 2005              	.LBB891:
 2006              	.LBB884:
  54:../../DaisySP/Source/Utility/delayline.h ****         frac_             = delay - static_cast<float>(int_delay);
 2007              		.loc 17 54 17 view .LVU577
 2008 0246 FDEEE86A 		vcvt.s32.f32	s13, s17
 2009              	.LBE884:
 2010              	.LBE891:
 117:MultiEffect.cpp ****     dell.SetDelay(currentDelay);
 2011              		.loc 18 117 32 view .LVU578
 2012 024a C3ED008A 		vstr.32	s17, [r3]
 120:MultiEffect.cpp ****     delr2.SetDelay(currentDelay+1000);
 2013              		.loc 18 120 19 view .LVU579
 2014 024e 38EE877A 		vadd.f32	s14, s17, s14
 126:MultiEffect.cpp ****     crs.SetDelay(.7f);
 2015              		.loc 18 126 20 view .LVU580
 2016 0252 4E48     		ldr	r0, .L46+28
 121:MultiEffect.cpp **** 
 2017              		.loc 18 121 19 view .LVU581
 2018 0254 78EEA77A 		vadd.f32	s15, s17, s15
 2019              	.LBB892:
 2020              	.LBB885:
  56:../../DaisySP/Source/Utility/delayline.h ****                                                            : max_size - 1;
 2021              		.loc 17 56 60 view .LVU582
 2022 0258 16EE903A 		vmov	r3, s13	@ int
  55:../../DaisySP/Source/Utility/delayline.h ****         delay_ = static_cast<size_t>(int_delay) < max_size ? int_delay
 2023              		.loc 17 55 37 view .LVU583
 2024 025c B8EEE65A 		vcvt.f32.s32	s10, s13
 2025              	.LBE885:
 2026              	.LBE892:
 2027              	.LBB893:
 2028              	.LBB894:
  54:../../DaisySP/Source/Utility/delayline.h ****         frac_             = delay - static_cast<float>(int_delay);
 2029              		.loc 17 54 17 view .LVU584
 2030 0260 FDEEC75A 		vcvt.s32.f32	s11, s14
 2031              	.LBE894:
 2032              	.LBE893:
 2033              	.LBB901:
 2034              	.LBB886:
  56:../../DaisySP/Source/Utility/delayline.h ****                                                            : max_size - 1;
 2035              		.loc 17 56 60 view .LVU585
 2036 0264 8B42     		cmp	r3, r1
 2037              	.LBE886:
 2038              	.LBE901:
 2039              	.LBB902:
 2040              	.LBB903:
  54:../../DaisySP/Source/Utility/delayline.h ****         frac_             = delay - static_cast<float>(int_delay);
 2041              		.loc 17 54 17 view .LVU586
 2042 0266 BDEEE76A 		vcvt.s32.f32	s12, s15
 2043              	.LBE903:
 2044              	.LBE902:
 2045              	.LBB909:
 2046              	.LBB887:
  55:../../DaisySP/Source/Utility/delayline.h ****         delay_ = static_cast<size_t>(int_delay) < max_size ? int_delay
 2047              		.loc 17 55 35 view .LVU587
ARM GAS  C:\Users\seanw\AppData\Local\Temp\ccbivcrf.s 			page 65


 2048 026a 38EEC55A 		vsub.f32	s10, s17, s10
 2049              	.LBE887:
 2050              	.LBE909:
 2051              	.LBB910:
 2052              	.LBB895:
  56:../../DaisySP/Source/Utility/delayline.h ****                                                            : max_size - 1;
 2053              		.loc 17 56 60 view .LVU588
 2054 026e 15EE902A 		vmov	r2, s11	@ int
 2055              	.LBE895:
 2056              	.LBE910:
 2057              	.LBB911:
 2058              	.LBB888:
 2059 0272 28BF     		it	cs
 2060 0274 0B46     		movcs	r3, r1
 2061              	.LBE888:
 2062              	.LBE911:
 2063              	.LBB912:
 2064              	.LBB896:
  55:../../DaisySP/Source/Utility/delayline.h ****         delay_ = static_cast<size_t>(int_delay) < max_size ? int_delay
 2065              		.loc 17 55 37 view .LVU589
 2066 0276 B8EEE54A 		vcvt.f32.s32	s8, s11
  56:../../DaisySP/Source/Utility/delayline.h ****                                                            : max_size - 1;
 2067              		.loc 17 56 60 view .LVU590
 2068 027a 8A42     		cmp	r2, r1
 2069              	.LBE896:
 2070              	.LBE912:
 2071              	.LBB913:
 2072              	.LBB889:
  56:../../DaisySP/Source/Utility/delayline.h ****                                                            : max_size - 1;
 2073              		.loc 17 56 16 view .LVU591
 2074 027c CAF80830 		str	r3, [r10, #8]
 2075              	.LBE889:
 2076              	.LBE913:
 2077              	.LBB914:
 2078              	.LBB915:
 2079 0280 C9F80830 		str	r3, [r9, #8]
 2080              	.LBE915:
 2081              	.LBE914:
 2082              	.LBB917:
 2083              	.LBB904:
  56:../../DaisySP/Source/Utility/delayline.h ****                                                            : max_size - 1;
 2084              		.loc 17 56 60 view .LVU592
 2085 0284 16EE103A 		vmov	r3, s12	@ int
  55:../../DaisySP/Source/Utility/delayline.h ****         delay_ = static_cast<size_t>(int_delay) < max_size ? int_delay
 2086              		.loc 17 55 37 view .LVU593
 2087 0288 F8EEC64A 		vcvt.f32.s32	s9, s12
 2088              	.LBE904:
 2089              	.LBE917:
 2090              	.LBB918:
 2091              	.LBB897:
  56:../../DaisySP/Source/Utility/delayline.h ****                                                            : max_size - 1;
 2092              		.loc 17 56 60 view .LVU594
 2093 028c 28BF     		it	cs
 2094 028e 0A46     		movcs	r2, r1
 2095              	.LBE897:
 2096              	.LBE918:
 2097              	.LBB919:
ARM GAS  C:\Users\seanw\AppData\Local\Temp\ccbivcrf.s 			page 66


 2098              	.LBB905:
 2099 0290 8B42     		cmp	r3, r1
 2100              	.LBE905:
 2101              	.LBE919:
 2102              	.LBB920:
 2103              	.LBB898:
  55:../../DaisySP/Source/Utility/delayline.h ****         delay_ = static_cast<size_t>(int_delay) < max_size ? int_delay
 2104              		.loc 17 55 35 view .LVU595
 2105 0292 37EE447A 		vsub.f32	s14, s14, s8
 2106              	.LBE898:
 2107              	.LBE920:
 2108              	.LBB921:
 2109              	.LBB890:
  55:../../DaisySP/Source/Utility/delayline.h ****         delay_ = static_cast<size_t>(int_delay) < max_size ? int_delay
 2110              		.loc 17 55 27 view .LVU596
 2111 0296 8AED005A 		vstr.32	s10, [r10]
 2112              	.LBE890:
 2113              	.LBE921:
 2114              	.LBB922:
 2115              	.LBB906:
  56:../../DaisySP/Source/Utility/delayline.h ****                                                            : max_size - 1;
 2116              		.loc 17 56 60 view .LVU597
 2117 029a 28BF     		it	cs
 2118 029c 0B46     		movcs	r3, r1
  55:../../DaisySP/Source/Utility/delayline.h ****         delay_ = static_cast<size_t>(int_delay) < max_size ? int_delay
 2119              		.loc 17 55 35 view .LVU598
 2120 029e 77EEE47A 		vsub.f32	s15, s15, s9
 2121              	.LBE906:
 2122              	.LBE922:
 2123              	.LBB923:
 2124              	.LBB916:
  55:../../DaisySP/Source/Utility/delayline.h ****         delay_ = static_cast<size_t>(int_delay) < max_size ? int_delay
 2125              		.loc 17 55 27 view .LVU599
 2126 02a2 89ED005A 		vstr.32	s10, [r9]
 2127              	.LBE916:
 2128              	.LBE923:
 2129              	.LBB924:
 2130              	.LBB907:
  56:../../DaisySP/Source/Utility/delayline.h ****                                                            : max_size - 1;
 2131              		.loc 17 56 16 view .LVU600
 2132 02a6 BB60     		str	r3, [r7, #8]
 2133              	.LBE907:
 2134              	.LBE924:
 117:MultiEffect.cpp ****     dell.SetDelay(currentDelay);
 2135              		.loc 18 117 18 view .LVU601
 2136 02a8 504B     		ldr	r3, .L46+124
 2137              	.LBB925:
 2138              	.LBB899:
  55:../../DaisySP/Source/Utility/delayline.h ****         delay_ = static_cast<size_t>(int_delay) < max_size ? int_delay
 2139              		.loc 17 55 27 view .LVU602
 2140 02aa 88ED007A 		vstr.32	s14, [r8]
 2141              	.LBE899:
 2142              	.LBE925:
 2143              	.LBB926:
 2144              	.LBB908:
 2145 02ae C7ED007A 		vstr.32	s15, [r7]
 2146              	.LBE908:
ARM GAS  C:\Users\seanw\AppData\Local\Temp\ccbivcrf.s 			page 67


 2147              	.LBE926:
 2148              	.LBB927:
 2149              	.LBB900:
  56:../../DaisySP/Source/Utility/delayline.h ****                                                            : max_size - 1;
 2150              		.loc 17 56 16 view .LVU603
 2151 02b2 C8F80820 		str	r2, [r8, #8]
 2152              	.LBE900:
 2153              	.LBE927:
 117:MultiEffect.cpp ****     dell.SetDelay(currentDelay);
 2154              		.loc 18 117 18 view .LVU604
 2155 02b6 C3ED008A 		vstr.32	s17, [r3]
 118:MultiEffect.cpp ****     delr.SetDelay(currentDelay);
 2156              		.loc 18 118 5 is_stmt 1 view .LVU605
 2157              	.LVL85:
 2158              	.LBB928:
 2159              	.LBI882:
  52:../../DaisySP/Source/Utility/delayline.h ****     {
 2160              		.loc 17 52 17 view .LVU606
  52:../../DaisySP/Source/Utility/delayline.h ****     {
 2161              		.loc 17 52 17 is_stmt 0 view .LVU607
 2162              	.LBE928:
 119:MultiEffect.cpp ****     dell2.SetDelay(currentDelay+500);
 2163              		.loc 18 119 5 is_stmt 1 view .LVU608
 2164              	.LBB929:
 2165              	.LBI914:
  52:../../DaisySP/Source/Utility/delayline.h ****     {
 2166              		.loc 17 52 17 view .LVU609
  52:../../DaisySP/Source/Utility/delayline.h ****     {
 2167              		.loc 17 52 17 is_stmt 0 view .LVU610
 2168              	.LBE929:
 120:MultiEffect.cpp ****     delr2.SetDelay(currentDelay+1000);
 2169              		.loc 18 120 5 is_stmt 1 view .LVU611
 2170              	.LBB930:
 2171              	.LBI893:
  52:../../DaisySP/Source/Utility/delayline.h ****     {
 2172              		.loc 17 52 17 view .LVU612
  52:../../DaisySP/Source/Utility/delayline.h ****     {
 2173              		.loc 17 52 17 is_stmt 0 view .LVU613
 2174              	.LBE930:
 121:MultiEffect.cpp **** 
 2175              		.loc 18 121 5 is_stmt 1 view .LVU614
 2176              	.LBB931:
 2177              	.LBI902:
  52:../../DaisySP/Source/Utility/delayline.h ****     {
 2178              		.loc 17 52 17 view .LVU615
  52:../../DaisySP/Source/Utility/delayline.h ****     {
 2179              		.loc 17 52 17 is_stmt 0 view .LVU616
 2180              	.LBE931:
 126:MultiEffect.cpp ****     crs.SetDelay(.7f);
 2181              		.loc 18 126 5 is_stmt 1 view .LVU617
 126:MultiEffect.cpp ****     crs.SetDelay(.7f);
 2182              		.loc 18 126 20 is_stmt 0 view .LVU618
 2183 02ba FFF7FEFF 		bl	_ZN7daisysp6Chorus11SetFeedbackEf
 2184              	.LVL86:
 127:MultiEffect.cpp ****     crs2.SetFeedback(.1f);
 2185              		.loc 18 127 5 is_stmt 1 view .LVU619
 127:MultiEffect.cpp ****     crs2.SetFeedback(.1f);
ARM GAS  C:\Users\seanw\AppData\Local\Temp\ccbivcrf.s 			page 68


 2186              		.loc 18 127 17 is_stmt 0 view .LVU620
 2187 02be 9FED4C0A 		vldr.32	s0, .L46+128
 2188 02c2 3248     		ldr	r0, .L46+28
 2189 02c4 FFF7FEFF 		bl	_ZN7daisysp6Chorus8SetDelayEf
 2190              	.LVL87:
 128:MultiEffect.cpp ****     crs2.SetDelay(.82f);
 2191              		.loc 18 128 5 is_stmt 1 view .LVU621
 128:MultiEffect.cpp ****     crs2.SetDelay(.82f);
 2192              		.loc 18 128 21 is_stmt 0 view .LVU622
 2193 02c8 9FED470A 		vldr.32	s0, .L46+120
 2194 02cc 3048     		ldr	r0, .L46+32
 2195 02ce FFF7FEFF 		bl	_ZN7daisysp6Chorus11SetFeedbackEf
 2196              	.LVL88:
 129:MultiEffect.cpp ****     crs3.SetFeedback(.1f);
 2197              		.loc 18 129 5 is_stmt 1 view .LVU623
 129:MultiEffect.cpp ****     crs3.SetFeedback(.1f);
 2198              		.loc 18 129 18 is_stmt 0 view .LVU624
 2199 02d2 9FED480A 		vldr.32	s0, .L46+132
 2200 02d6 2E48     		ldr	r0, .L46+32
 2201 02d8 FFF7FEFF 		bl	_ZN7daisysp6Chorus8SetDelayEf
 2202              	.LVL89:
 130:MultiEffect.cpp ****     crs3.SetDelay(.9f);
 2203              		.loc 18 130 5 is_stmt 1 view .LVU625
 130:MultiEffect.cpp ****     crs3.SetDelay(.9f);
 2204              		.loc 18 130 21 is_stmt 0 view .LVU626
 2205 02dc 9FED420A 		vldr.32	s0, .L46+120
 2206 02e0 2C48     		ldr	r0, .L46+36
 2207 02e2 FFF7FEFF 		bl	_ZN7daisysp6Chorus11SetFeedbackEf
 2208              	.LVL90:
 131:MultiEffect.cpp ****     crs4.SetFeedback(.1f);
 2209              		.loc 18 131 5 is_stmt 1 view .LVU627
 131:MultiEffect.cpp ****     crs4.SetFeedback(.1f);
 2210              		.loc 18 131 18 is_stmt 0 view .LVU628
 2211 02e6 9FED440A 		vldr.32	s0, .L46+136
 2212 02ea 2A48     		ldr	r0, .L46+36
 2213 02ec FFF7FEFF 		bl	_ZN7daisysp6Chorus8SetDelayEf
 2214              	.LVL91:
 132:MultiEffect.cpp ****     crs4.SetDelay(.97f);
 2215              		.loc 18 132 5 is_stmt 1 view .LVU629
 132:MultiEffect.cpp ****     crs4.SetDelay(.97f);
 2216              		.loc 18 132 21 is_stmt 0 view .LVU630
 2217 02f0 9FED3D0A 		vldr.32	s0, .L46+120
 2218 02f4 2848     		ldr	r0, .L46+40
 2219 02f6 FFF7FEFF 		bl	_ZN7daisysp6Chorus11SetFeedbackEf
 2220              	.LVL92:
 133:MultiEffect.cpp **** 
 2221              		.loc 18 133 5 is_stmt 1 view .LVU631
 133:MultiEffect.cpp **** 
 2222              		.loc 18 133 18 is_stmt 0 view .LVU632
 2223 02fa 9FED400A 		vldr.32	s0, .L46+140
 2224 02fe 2648     		ldr	r0, .L46+40
 2225 0300 FFF7FEFF 		bl	_ZN7daisysp6Chorus8SetDelayEf
 2226              	.LVL93:
 2227              		.loc 18 136 5 is_stmt 1 view .LVU633
 2228              		.loc 18 136 15 is_stmt 0 view .LVU634
 2229 0304 0421     		movs	r1, #4
 137:MultiEffect.cpp ****     psr.SetPoles(numstages);
ARM GAS  C:\Users\seanw\AppData\Local\Temp\ccbivcrf.s 			page 69


 2230              		.loc 18 137 17 view .LVU635
 2231 0306 2548     		ldr	r0, .L46+44
 136:MultiEffect.cpp ****     psr.SetPoles(numstages);
 2232              		.loc 18 136 15 view .LVU636
 2233 0308 CBF80010 		str	r1, [fp]
 2234              		.loc 18 137 5 is_stmt 1 view .LVU637
 2235              		.loc 18 137 17 is_stmt 0 view .LVU638
 2236 030c FFF7FEFF 		bl	_ZN7daisysp6Phaser8SetPolesEi
 2237              	.LVL94:
 138:MultiEffect.cpp ****     psr2.SetPoles(numstages);
 2238              		.loc 18 138 5 is_stmt 1 view .LVU639
 2239              		.loc 18 138 18 is_stmt 0 view .LVU640
 2240 0310 DBF80010 		ldr	r1, [fp]
 2241 0314 2248     		ldr	r0, .L46+48
 2242 0316 FFF7FEFF 		bl	_ZN7daisysp6Phaser8SetPolesEi
 2243              	.LVL95:
 139:MultiEffect.cpp ****     freqtarget = freq = 0.f;
 2244              		.loc 18 139 5 is_stmt 1 view .LVU641
 2245              		.loc 18 139 23 is_stmt 0 view .LVU642
 2246 031a 394B     		ldr	r3, .L46+144
 2247              		.loc 18 139 16 view .LVU643
 2248 031c 394A     		ldr	r2, .L46+148
 140:MultiEffect.cpp ****     lfotarget = lfo = 0.f;
 141:MultiEffect.cpp **** 
 142:MultiEffect.cpp ****     //pitchshifter parameters
 143:MultiEffect.cpp ****     pst.SetTransposition(12.0f);
 2249              		.loc 18 143 25 view .LVU644
 2250 031e B2EE080A 		vmov.f32	s0, #1.2e+1
 139:MultiEffect.cpp ****     freqtarget = freq = 0.f;
 2251              		.loc 18 139 23 view .LVU645
 2252 0322 83ED008A 		vstr.32	s16, [r3]
 140:MultiEffect.cpp ****     lfotarget = lfo = 0.f;
 2253              		.loc 18 140 21 view .LVU646
 2254 0326 384B     		ldr	r3, .L46+152
 2255              		.loc 18 143 25 view .LVU647
 2256 0328 1F48     		ldr	r0, .L46+56
 140:MultiEffect.cpp ****     lfotarget = lfo = 0.f;
 2257              		.loc 18 140 21 view .LVU648
 2258 032a 83ED008A 		vstr.32	s16, [r3]
 140:MultiEffect.cpp ****     lfotarget = lfo = 0.f;
 2259              		.loc 18 140 15 view .LVU649
 2260 032e 374B     		ldr	r3, .L46+156
 139:MultiEffect.cpp ****     freqtarget = freq = 0.f;
 2261              		.loc 18 139 16 view .LVU650
 2262 0330 82ED008A 		vstr.32	s16, [r2]
 140:MultiEffect.cpp ****     lfotarget = lfo = 0.f;
 2263              		.loc 18 140 5 is_stmt 1 view .LVU651
 140:MultiEffect.cpp ****     lfotarget = lfo = 0.f;
 2264              		.loc 18 140 15 is_stmt 0 view .LVU652
 2265 0334 83ED008A 		vstr.32	s16, [r3]
 2266              		.loc 18 143 5 is_stmt 1 view .LVU653
 2267              		.loc 18 143 25 is_stmt 0 view .LVU654
 2268 0338 FFF7FEFF 		bl	_ZN7daisysp12PitchShifter16SetTranspositionERKf.isra.0
 2269              	.LVL96:
 144:MultiEffect.cpp ****     /***
 145:MultiEffect.cpp ****     sets delay size changing the timbre of the pitchshifting  ***/
 146:MultiEffect.cpp ****     octDelSize = 256;
ARM GAS  C:\Users\seanw\AppData\Local\Temp\ccbivcrf.s 			page 70


 2270              		.loc 18 146 5 is_stmt 1 view .LVU655
 2271              		.loc 18 146 16 is_stmt 0 view .LVU656
 2272 033c 4FF48073 		mov	r3, #256
 2273 0340 3349     		ldr	r1, .L46+160
 2274              	.LBB932:
 2275              	.LBB933:
 176:../../DaisySP/Source/Effects/pitchshifter.h ****         SetTransposition(transpose_);
 2276              		.loc 3 176 23 view .LVU657
 2277 0342 0122     		movs	r2, #1
 177:../../DaisySP/Source/Effects/pitchshifter.h ****     }
 2278              		.loc 3 177 25 view .LVU658
 2279 0344 96ED180A 		vldr.32	s0, [r6, #96]
 2280 0348 1748     		ldr	r0, .L46+56
 2281              	.LBE933:
 2282              	.LBE932:
 2283              		.loc 18 146 16 view .LVU659
 2284 034a 0B60     		str	r3, [r1]
 147:MultiEffect.cpp ****     pst.SetDelSize(octDelSize);
 2285              		.loc 18 147 5 is_stmt 1 view .LVU660
 2286              	.LVL97:
 2287              	.LBB935:
 2288              	.LBI932:
 173:../../DaisySP/Source/Effects/pitchshifter.h ****     {
 2289              		.loc 3 173 10 view .LVU661
 2290              	.LBB934:
 175:../../DaisySP/Source/Effects/pitchshifter.h ****         force_recalc_ = true;
 2291              		.loc 3 175 9 view .LVU662
 175:../../DaisySP/Source/Effects/pitchshifter.h ****         force_recalc_ = true;
 2292              		.loc 3 175 23 is_stmt 0 view .LVU663
 2293 034c 3362     		str	r3, [r6, #32]
 176:../../DaisySP/Source/Effects/pitchshifter.h ****         SetTransposition(transpose_);
 2294              		.loc 3 176 9 is_stmt 1 view .LVU664
 176:../../DaisySP/Source/Effects/pitchshifter.h ****         SetTransposition(transpose_);
 2295              		.loc 3 176 23 is_stmt 0 view .LVU665
 2296 034e 86F82420 		strb	r2, [r6, #36]
 177:../../DaisySP/Source/Effects/pitchshifter.h ****     }
 2297              		.loc 3 177 9 is_stmt 1 view .LVU666
 177:../../DaisySP/Source/Effects/pitchshifter.h ****     }
 2298              		.loc 3 177 25 is_stmt 0 view .LVU667
 2299 0352 FFF7FEFF 		bl	_ZN7daisysp12PitchShifter16SetTranspositionERKf.isra.0
 2300              	.LVL98:
 177:../../DaisySP/Source/Effects/pitchshifter.h ****     }
 2301              		.loc 3 177 25 view .LVU668
 2302              	.LBE934:
 2303              	.LBE935:
 148:MultiEffect.cpp **** 
 149:MultiEffect.cpp **** 
 150:MultiEffect.cpp ****     // start callback
 151:MultiEffect.cpp ****     pod.StartAdc();
 2304              		.loc 18 151 5 is_stmt 1 view .LVU669
 2305              		.loc 18 151 17 is_stmt 0 view .LVU670
 2306 0356 A4F16800 		sub	r0, r4, #104
 2307 035a FFF7FEFF 		bl	_ZN5daisy8DaisyPod8StartAdcEv
 2308              	.LVL99:
 152:MultiEffect.cpp ****     pod.StartAudio(AudioCallback);
 2309              		.loc 18 152 5 is_stmt 1 view .LVU671
 2310              		.loc 18 152 19 is_stmt 0 view .LVU672
ARM GAS  C:\Users\seanw\AppData\Local\Temp\ccbivcrf.s 			page 71


 2311 035e 2D49     		ldr	r1, .L46+164
 2312 0360 A4F16800 		sub	r0, r4, #104
 2313 0364 FFF7FEFF 		bl	_ZN5daisy8DaisyPod10StartAudioEPFvPKfPfjE
 2314              	.LVL100:
 2315 0368 5EE0     		b	.L47
 2316              	.L48:
 2317 036a 00BFAFF3 		.align	3
 2317      0080
 2318              	.L46:
 2319 0370 9A999999 		.word	-1717986918
 2320 0374 9999A93F 		.word	1068079513
 2321 0378 00000000 		.word	_ZL3pod
 2322 037c 00000000 		.word	_ZL5delr2
 2323 0380 00000200 		.word	_ZL3pst+131072
 2324 0384 00530700 		.word	480000
 2325 0388 30F91500 		.word	_ZL4dell+12
 2326 038c 00000000 		.word	_ZL3crs
 2327 0390 00000000 		.word	_ZL4crs2
 2328 0394 00000000 		.word	_ZL4crs3
 2329 0398 00000000 		.word	_ZL4crs4
 2330 039c 00000000 		.word	_ZL3psr
 2331 03a0 00000000 		.word	_ZL4psr2
 2332 03a4 0000A040 		.word	1084227584
 2333 03a8 00000000 		.word	_ZL3pst
 2334 03ac 00000000 		.word	0
 2335 03b0 00004842 		.word	1112014848
 2336 03b4 30000200 		.word	_ZL3pst+131120
 2337 03b8 18000100 		.word	_ZL3pst+65560
 2338 03bc 40000200 		.word	_ZL3pst+131136
 2339 03c0 DB0F4940 		.word	1078530011
 2340 03c4 ABAAAAAA 		.word	-1431655765
 2341 03c8 00008038 		.word	947912704
 2342 03cc 58000000 		.word	_ZL3pod+88
 2343 03d0 0060EA47 		.word	1206542336
 2344 03d4 00000000 		.word	.LANCHOR0
 2345 03d8 0000FA43 		.word	1140457472
 2346 03dc 00000000 		.word	.LANCHOR1
 2347 03e0 00007A44 		.word	1148846080
 2348 03e4 BFD40100 		.word	119999
 2349 03e8 CDCCCC3D 		.word	1036831949
 2350 03ec 00000000 		.word	.LANCHOR2
 2351 03f0 3333333F 		.word	1060320051
 2352 03f4 85EB513F 		.word	1062333317
 2353 03f8 6666663F 		.word	1063675494
 2354 03fc EC51783F 		.word	1064849900
 2355 0400 00000000 		.word	.LANCHOR4
 2356 0404 00000000 		.word	.LANCHOR5
 2357 0408 00000000 		.word	.LANCHOR6
 2358 040c 00000000 		.word	.LANCHOR7
 2359 0410 00000000 		.word	.LANCHOR8
 2360 0414 00000000 		.word	_Z13AudioCallbackPKfPfj
 2361 0418 18A60E00 		.word	_ZL4delr
 2362 041c 0C530700 		.word	_ZL5dell2
 2363 0420 24F91500 		.word	_ZL4dell
 2364 0424 00000000 		.word	.LANCHOR3
 2365              	.L47:
 2366              	.L40:
ARM GAS  C:\Users\seanw\AppData\Local\Temp\ccbivcrf.s 			page 72


 153:MultiEffect.cpp **** 
 154:MultiEffect.cpp ****     while(1) {}
 2367              		.loc 18 154 5 is_stmt 1 discriminator 1 view .LVU673
 2368              		.loc 18 154 5 discriminator 1 view .LVU674
 2369              		.loc 18 154 5 discriminator 1 view .LVU675
 2370              		.loc 18 154 5 discriminator 1 view .LVU676
 2371 0428 FEE7     		b	.L40
 2372              		.cfi_endproc
 2373              	.LFE4404:
 2375 042a 00BF     		.section	.text._Z11UpdateKnobsRfS_,"ax",%progbits
 2376              		.align	1
 2377              		.p2align 2,,3
 2378              		.global	_Z11UpdateKnobsRfS_
 2379              		.syntax unified
 2380              		.thumb
 2381              		.thumb_func
 2382              		.fpu fpv5-d16
 2384              	_Z11UpdateKnobsRfS_:
 2385              	.LVL101:
 2386              	.LFB4405:
 155:MultiEffect.cpp **** }
 156:MultiEffect.cpp **** 
 157:MultiEffect.cpp **** void UpdateKnobs(float &k1, float &k2)
 158:MultiEffect.cpp **** {
 2387              		.loc 18 158 1 view -0
 2388              		.cfi_startproc
 2389              		@ args = 0, pretend = 0, frame = 0
 2390              		@ frame_needed = 0, uses_anonymous_args = 0
 159:MultiEffect.cpp ****     k1 = pod.knob1.Process();
 2391              		.loc 18 159 5 view .LVU678
 158:MultiEffect.cpp ****     k1 = pod.knob1.Process();
 2392              		.loc 18 158 1 is_stmt 0 view .LVU679
 2393 0000 38B5     		push	{r3, r4, r5, lr}
 2394              		.cfi_def_cfa_offset 16
 2395              		.cfi_offset 3, -16
 2396              		.cfi_offset 4, -12
 2397              		.cfi_offset 5, -8
 2398              		.cfi_offset 14, -4
 2399 0002 0446     		mov	r4, r0
 2400              		.loc 18 159 27 view .LVU680
 2401 0004 6048     		ldr	r0, .L59+16
 2402              	.LVL102:
 158:MultiEffect.cpp ****     k1 = pod.knob1.Process();
 2403              		.loc 18 158 1 view .LVU681
 2404 0006 0D46     		mov	r5, r1
 2405 0008 2DED028B 		vpush.64	{d8}
 2406              		.cfi_def_cfa_offset 24
 2407              		.cfi_offset 80, -24
 2408              		.cfi_offset 81, -20
 2409              		.loc 18 159 27 view .LVU682
 2410 000c FFF7FEFF 		bl	_ZN5daisy13AnalogControl7ProcessEv
 2411              	.LVL103:
 160:MultiEffect.cpp ****     k2 = pod.knob2.Process();
 2412              		.loc 18 160 27 view .LVU683
 2413 0010 5E48     		ldr	r0, .L59+20
 159:MultiEffect.cpp ****     k1 = pod.knob1.Process();
 2414              		.loc 18 159 8 view .LVU684
ARM GAS  C:\Users\seanw\AppData\Local\Temp\ccbivcrf.s 			page 73


 2415 0012 84ED000A 		vstr.32	s0, [r4]
 2416              		.loc 18 160 5 is_stmt 1 view .LVU685
 2417              		.loc 18 160 27 is_stmt 0 view .LVU686
 2418 0016 FFF7FEFF 		bl	_ZN5daisy13AnalogControl7ProcessEv
 2419              	.LVL104:
 161:MultiEffect.cpp **** 
 162:MultiEffect.cpp ****     switch(mode)
 2420              		.loc 18 162 5 view .LVU687
 2421 001a 5D4B     		ldr	r3, .L59+24
 160:MultiEffect.cpp ****     k2 = pod.knob2.Process();
 2422              		.loc 18 160 8 view .LVU688
 2423 001c 85ED000A 		vstr.32	s0, [r5]
 2424              		.loc 18 162 5 is_stmt 1 view .LVU689
 2425 0020 1B68     		ldr	r3, [r3]
 2426 0022 042B     		cmp	r3, #4
 2427 0024 07D8     		bhi	.L49
 2428 0026 DFE803F0 		tbb	[pc, r3]
 2429              	.L52:
 2430 002a 09       		.byte	(.L56-.L52)/2
 2431 002b 77       		.byte	(.L55-.L52)/2
 2432 002c 83       		.byte	(.L54-.L52)/2
 2433 002d 9D       		.byte	(.L53-.L52)/2
 2434 002e 03       		.byte	(.L51-.L52)/2
 2435 002f 00       		.p2align 1
 2436              	.L51:
 163:MultiEffect.cpp ****     {
 164:MultiEffect.cpp ****         /// a allan holdsworth inspired chorus plus stereo delay lead sound 
 165:MultiEffect.cpp ****         case CHRDEL:
 166:MultiEffect.cpp ****             drywet = k1;
 167:MultiEffect.cpp ****             delayTarget = deltime.Process();
 168:MultiEffect.cpp ****             feedback    = k1*0.2 + k2*0.1; 
 169:MultiEffect.cpp ****             /**
 170:MultiEffect.cpp ****             crs.SetLfoDepth(0.15f+k2*0.35f);
 171:MultiEffect.cpp ****             crs2.SetLfoDepth(0.2f+k2*0.26f);
 172:MultiEffect.cpp ****             crs3.SetLfoDepth(0.23f+k2*0.37f);
 173:MultiEffect.cpp ****             crs4.SetLfoDepth(0.25f+k2*0.29f);
 174:MultiEffect.cpp ****             **/
 175:MultiEffect.cpp ****             crs.SetLfoDepth(4.0f + k1*1.1f );
 176:MultiEffect.cpp ****             crs2.SetLfoDepth(5.0f + k1*1.2f);
 177:MultiEffect.cpp ****             crs3.SetLfoDepth(6.0f + k1*0.9f);
 178:MultiEffect.cpp ****             crs4.SetLfoDepth(7.0f + k1*0.8f);
 179:MultiEffect.cpp ****             /**Set lfo frequency Frequency in Hz */
 180:MultiEffect.cpp ****             crs.SetLfoFreq(k2*0.6f);
 181:MultiEffect.cpp ****             crs2.SetLfoFreq(k2*0.7f);
 182:MultiEffect.cpp ****             crs3.SetLfoFreq(k2*0.8f); 
 183:MultiEffect.cpp ****             crs4.SetLfoFreq(k2*0.9f); 
 184:MultiEffect.cpp ****             
 185:MultiEffect.cpp ****             break;
 186:MultiEffect.cpp ****             // a stereo delay without chorus 
 187:MultiEffect.cpp ****         case DEL:
 188:MultiEffect.cpp ****             delayTarget = deltime.Process();
 189:MultiEffect.cpp ****             feedback    = k2;
 190:MultiEffect.cpp ****             break;
 191:MultiEffect.cpp ****             // a chorus with no delay/reverb
 192:MultiEffect.cpp ****         case COR:
 193:MultiEffect.cpp ****             drywet = k1;
 194:MultiEffect.cpp ****             /** How much to modulate the delay by Works 0-1.    */
ARM GAS  C:\Users\seanw\AppData\Local\Temp\ccbivcrf.s 			page 74


 195:MultiEffect.cpp ****             crs.SetLfoDepth(4.0f + k1*1.1f );
 196:MultiEffect.cpp ****             crs2.SetLfoDepth(5.0f + k1*1.2f);
 197:MultiEffect.cpp ****             crs3.SetLfoDepth(6.0f + k1*0.9f);
 198:MultiEffect.cpp ****             crs4.SetLfoDepth(7.0f + k1*0.8f);
 199:MultiEffect.cpp ****             /**Set lfo frequency Frequency in Hz */
 200:MultiEffect.cpp ****             crs.SetLfoFreq(k2*0.6f);
 201:MultiEffect.cpp ****             crs2.SetLfoFreq(k2*0.7f);
 202:MultiEffect.cpp ****             crs3.SetLfoFreq(k2*0.8f); 
 203:MultiEffect.cpp ****             crs4.SetLfoFreq(k2*0.9f); 
 204:MultiEffect.cpp **** 
 205:MultiEffect.cpp ****             break;
 206:MultiEffect.cpp ****         case PHR:
 207:MultiEffect.cpp ****             //ap_freq Frequency in Hz
 208:MultiEffect.cpp ****             /*** = k1 * k1 * 7000;
 209:MultiEffect.cpp ****             fonepole(freq, freqtarget, .0001f); //smooth at audio rate     
 210:MultiEffect.cpp ****             psr.SetFreq(freq);
 211:MultiEffect.cpp ****             //feedback Amount from 0-1.
 212:MultiEffect.cpp ****             psr.SetFeedback(k2);
 213:MultiEffect.cpp ****             //set lfo_freq Frequency in Hz
 214:MultiEffect.cpp ****             lfo = k2*10.0f;
 215:MultiEffect.cpp ****             fonepole(lfo, lfotarget, .0001f); //smooth at audio rate
 216:MultiEffect.cpp ****             psr.SetLfoDepth(lfo);
 217:MultiEffect.cpp ****             psr.SetLfoFreq(k2*10);
 218:MultiEffect.cpp ****             
 219:MultiEffect.cpp ****             // depth Works 0-1
 220:MultiEffect.cpp ****             ***/
 221:MultiEffect.cpp **** 
 222:MultiEffect.cpp ****             drywet = k1;
 223:MultiEffect.cpp ****             lfo = k2;
 224:MultiEffect.cpp **** 
 225:MultiEffect.cpp ****             break;
 226:MultiEffect.cpp ****         case OCT:
 2437              		.loc 18 226 9 view .LVU690
 227:MultiEffect.cpp ****             drywet = k1;
 2438              		.loc 18 227 13 view .LVU691
 2439              		.loc 18 227 22 is_stmt 0 view .LVU692
 2440 0030 2268     		ldr	r2, [r4]	@ float
 2441              		.loc 18 227 20 view .LVU693
 2442 0032 584B     		ldr	r3, .L59+28
 2443 0034 1A60     		str	r2, [r3]	@ float
 228:MultiEffect.cpp ****             break;
 2444              		.loc 18 228 13 is_stmt 1 view .LVU694
 2445              	.L49:
 229:MultiEffect.cpp **** 
 230:MultiEffect.cpp **** 
 231:MultiEffect.cpp **** 
 232:MultiEffect.cpp ****            
 233:MultiEffect.cpp ****     }
 234:MultiEffect.cpp **** }
 2446              		.loc 18 234 1 is_stmt 0 view .LVU695
 2447 0036 BDEC028B 		vldm	sp!, {d8}
 2448              		.cfi_remember_state
 2449              		.cfi_restore 80
 2450              		.cfi_restore 81
 2451              		.cfi_def_cfa_offset 16
 2452 003a 38BD     		pop	{r3, r4, r5, pc}
 2453              	.LVL105:
ARM GAS  C:\Users\seanw\AppData\Local\Temp\ccbivcrf.s 			page 75


 2454              	.L56:
 2455              		.cfi_restore_state
 165:MultiEffect.cpp ****             drywet = k1;
 2456              		.loc 18 165 9 is_stmt 1 view .LVU696
 166:MultiEffect.cpp ****             delayTarget = deltime.Process();
 2457              		.loc 18 166 13 view .LVU697
 166:MultiEffect.cpp ****             delayTarget = deltime.Process();
 2458              		.loc 18 166 22 is_stmt 0 view .LVU698
 2459 003c 2268     		ldr	r2, [r4]	@ float
 166:MultiEffect.cpp ****             delayTarget = deltime.Process();
 2460              		.loc 18 166 20 view .LVU699
 2461 003e 554B     		ldr	r3, .L59+28
 167:MultiEffect.cpp ****             feedback    = k1*0.2 + k2*0.1; 
 2462              		.loc 18 167 42 view .LVU700
 2463 0040 5548     		ldr	r0, .L59+32
 166:MultiEffect.cpp ****             delayTarget = deltime.Process();
 2464              		.loc 18 166 20 view .LVU701
 2465 0042 1A60     		str	r2, [r3]	@ float
 167:MultiEffect.cpp ****             feedback    = k1*0.2 + k2*0.1; 
 2466              		.loc 18 167 13 is_stmt 1 view .LVU702
 167:MultiEffect.cpp ****             feedback    = k1*0.2 + k2*0.1; 
 2467              		.loc 18 167 42 is_stmt 0 view .LVU703
 2468 0044 FFF7FEFF 		bl	_ZN5daisy9Parameter7ProcessEv
 2469              	.LVL106:
 167:MultiEffect.cpp ****             feedback    = k1*0.2 + k2*0.1; 
 2470              		.loc 18 167 25 view .LVU704
 2471 0048 544B     		ldr	r3, .L59+36
 175:MultiEffect.cpp ****             crs2.SetLfoDepth(5.0f + k1*1.2f);
 2472              		.loc 18 175 28 view .LVU705
 2473 004a DFED555A 		vldr.32	s11, .L59+40
 167:MultiEffect.cpp ****             feedback    = k1*0.2 + k2*0.1; 
 2474              		.loc 18 167 25 view .LVU706
 2475 004e 83ED000A 		vstr.32	s0, [r3]
 168:MultiEffect.cpp ****             /**
 2476              		.loc 18 168 13 is_stmt 1 view .LVU707
 175:MultiEffect.cpp ****             crs2.SetLfoDepth(5.0f + k1*1.2f);
 2477              		.loc 18 175 28 is_stmt 0 view .LVU708
 2478 0052 B1EE000A 		vmov.f32	s0, #4.0e+0
 168:MultiEffect.cpp ****             /**
 2479              		.loc 18 168 36 view .LVU709
 2480 0056 95ED007A 		vldr.32	s14, [r5]
 168:MultiEffect.cpp ****             /**
 2481              		.loc 18 168 27 view .LVU710
 2482 005a 94ED006A 		vldr.32	s12, [r4]
 168:MultiEffect.cpp ****             /**
 2483              		.loc 18 168 36 view .LVU711
 2484 005e B7EEC77A 		vcvt.f64.f32	d7, s14
 168:MultiEffect.cpp ****             /**
 2485              		.loc 18 168 25 view .LVU712
 2486 0062 504B     		ldr	r3, .L59+44
 168:MultiEffect.cpp ****             /**
 2487              		.loc 18 168 27 view .LVU713
 2488 0064 B7EEC66A 		vcvt.f64.f32	d6, s12
 175:MultiEffect.cpp ****             crs2.SetLfoDepth(5.0f + k1*1.2f);
 2489              		.loc 18 175 28 view .LVU714
 2490 0068 4F48     		ldr	r0, .L59+48
 177:MultiEffect.cpp ****             crs4.SetLfoDepth(7.0f + k1*0.8f);
ARM GAS  C:\Users\seanw\AppData\Local\Temp\ccbivcrf.s 			page 76


 2491              		.loc 18 177 29 view .LVU715
 2492 006a 9FED508A 		vldr.32	s16, .L59+52
 178:MultiEffect.cpp ****             /**Set lfo frequency Frequency in Hz */
 2493              		.loc 18 178 29 view .LVU716
 2494 006e DFED508A 		vldr.32	s17, .L59+56
 168:MultiEffect.cpp ****             /**
 2495              		.loc 18 168 38 view .LVU717
 2496 0072 9FED413B 		vldr.64	d3, .L59
 168:MultiEffect.cpp ****             /**
 2497              		.loc 18 168 34 view .LVU718
 2498 0076 9FED424B 		vldr.64	d4, .L59+8
 168:MultiEffect.cpp ****             /**
 2499              		.loc 18 168 38 view .LVU719
 2500 007a 27EE037B 		vmul.f64	d7, d7, d3
 168:MultiEffect.cpp ****             /**
 2501              		.loc 18 168 34 view .LVU720
 2502 007e A6EE047B 		vfma.f64	d7, d6, d4
 2503 0082 B7EEC77B 		vcvt.f32.f64	s14, d7
 2504 0086 83ED007A 		vstr.32	s14, [r3]
 175:MultiEffect.cpp ****             crs2.SetLfoDepth(5.0f + k1*1.2f);
 2505              		.loc 18 175 13 is_stmt 1 view .LVU721
 175:MultiEffect.cpp ****             crs2.SetLfoDepth(5.0f + k1*1.2f);
 2506              		.loc 18 175 28 is_stmt 0 view .LVU722
 2507 008a D4ED007A 		vldr.32	s15, [r4]
 2508 008e A7EEA50A 		vfma.f32	s0, s15, s11
 2509 0092 FFF7FEFF 		bl	_ZN7daisysp6Chorus11SetLfoDepthEf
 2510              	.LVL107:
 176:MultiEffect.cpp ****             crs3.SetLfoDepth(6.0f + k1*0.9f);
 2511              		.loc 18 176 13 is_stmt 1 view .LVU723
 176:MultiEffect.cpp ****             crs3.SetLfoDepth(6.0f + k1*0.9f);
 2512              		.loc 18 176 29 is_stmt 0 view .LVU724
 2513 0096 B1EE040A 		vmov.f32	s0, #5.0e+0
 2514 009a 94ED007A 		vldr.32	s14, [r4]
 2515 009e DFED457A 		vldr.32	s15, .L59+60
 2516 00a2 4548     		ldr	r0, .L59+64
 2517              	.L58:
 196:MultiEffect.cpp ****             crs3.SetLfoDepth(6.0f + k1*0.9f);
 2518              		.loc 18 196 29 view .LVU725
 2519 00a4 A7EE270A 		vfma.f32	s0, s14, s15
 2520 00a8 FFF7FEFF 		bl	_ZN7daisysp6Chorus11SetLfoDepthEf
 2521              	.LVL108:
 197:MultiEffect.cpp ****             crs4.SetLfoDepth(7.0f + k1*0.8f);
 2522              		.loc 18 197 13 is_stmt 1 view .LVU726
 197:MultiEffect.cpp ****             crs4.SetLfoDepth(7.0f + k1*0.8f);
 2523              		.loc 18 197 29 is_stmt 0 view .LVU727
 2524 00ac B1EE080A 		vmov.f32	s0, #6.0e+0
 2525 00b0 D4ED007A 		vldr.32	s15, [r4]
 2526 00b4 4148     		ldr	r0, .L59+68
 2527 00b6 A7EE880A 		vfma.f32	s0, s15, s16
 2528 00ba FFF7FEFF 		bl	_ZN7daisysp6Chorus11SetLfoDepthEf
 2529              	.LVL109:
 198:MultiEffect.cpp ****             /**Set lfo frequency Frequency in Hz */
 2530              		.loc 18 198 13 is_stmt 1 view .LVU728
 198:MultiEffect.cpp ****             /**Set lfo frequency Frequency in Hz */
 2531              		.loc 18 198 29 is_stmt 0 view .LVU729
 2532 00be B1EE0C0A 		vmov.f32	s0, #7.0e+0
 2533 00c2 D4ED007A 		vldr.32	s15, [r4]
ARM GAS  C:\Users\seanw\AppData\Local\Temp\ccbivcrf.s 			page 77


 2534 00c6 3E48     		ldr	r0, .L59+72
 2535 00c8 A7EEA80A 		vfma.f32	s0, s15, s17
 2536 00cc FFF7FEFF 		bl	_ZN7daisysp6Chorus11SetLfoDepthEf
 2537              	.LVL110:
 200:MultiEffect.cpp ****             crs2.SetLfoFreq(k2*0.7f);
 2538              		.loc 18 200 13 is_stmt 1 view .LVU730
 200:MultiEffect.cpp ****             crs2.SetLfoFreq(k2*0.7f);
 2539              		.loc 18 200 27 is_stmt 0 view .LVU731
 2540 00d0 95ED000A 		vldr.32	s0, [r5]
 2541 00d4 DFED3B7A 		vldr.32	s15, .L59+76
 2542 00d8 3348     		ldr	r0, .L59+48
 2543 00da 20EE270A 		vmul.f32	s0, s0, s15
 2544 00de FFF7FEFF 		bl	_ZN7daisysp6Chorus10SetLfoFreqEf
 2545              	.LVL111:
 201:MultiEffect.cpp ****             crs3.SetLfoFreq(k2*0.8f); 
 2546              		.loc 18 201 13 is_stmt 1 view .LVU732
 201:MultiEffect.cpp ****             crs3.SetLfoFreq(k2*0.8f); 
 2547              		.loc 18 201 28 is_stmt 0 view .LVU733
 2548 00e2 95ED000A 		vldr.32	s0, [r5]
 2549 00e6 DFED387A 		vldr.32	s15, .L59+80
 2550 00ea 3348     		ldr	r0, .L59+64
 2551 00ec 20EE270A 		vmul.f32	s0, s0, s15
 2552 00f0 FFF7FEFF 		bl	_ZN7daisysp6Chorus10SetLfoFreqEf
 2553              	.LVL112:
 202:MultiEffect.cpp ****             crs4.SetLfoFreq(k2*0.9f); 
 2554              		.loc 18 202 13 is_stmt 1 view .LVU734
 202:MultiEffect.cpp ****             crs4.SetLfoFreq(k2*0.9f); 
 2555              		.loc 18 202 28 is_stmt 0 view .LVU735
 2556 00f4 95ED000A 		vldr.32	s0, [r5]
 2557 00f8 3048     		ldr	r0, .L59+68
 2558 00fa 20EE280A 		vmul.f32	s0, s0, s17
 2559 00fe FFF7FEFF 		bl	_ZN7daisysp6Chorus10SetLfoFreqEf
 2560              	.LVL113:
 203:MultiEffect.cpp **** 
 2561              		.loc 18 203 13 is_stmt 1 view .LVU736
 203:MultiEffect.cpp **** 
 2562              		.loc 18 203 28 is_stmt 0 view .LVU737
 2563 0102 95ED000A 		vldr.32	s0, [r5]
 2564 0106 2E48     		ldr	r0, .L59+72
 2565 0108 20EE080A 		vmul.f32	s0, s0, s16
 2566              		.loc 18 234 1 view .LVU738
 2567 010c BDEC028B 		vldm	sp!, {d8}
 2568              		.cfi_remember_state
 2569              		.cfi_restore 80
 2570              		.cfi_restore 81
 2571              		.cfi_def_cfa_offset 16
 2572 0110 BDE83840 		pop	{r3, r4, r5, lr}
 2573              		.cfi_restore 14
 2574              		.cfi_restore 5
 2575              		.cfi_restore 4
 2576              		.cfi_restore 3
 2577              		.cfi_def_cfa_offset 0
 2578              	.LVL114:
 203:MultiEffect.cpp **** 
 2579              		.loc 18 203 28 view .LVU739
 2580 0114 FFF7FEBF 		b	_ZN7daisysp6Chorus10SetLfoFreqEf
 2581              	.LVL115:
ARM GAS  C:\Users\seanw\AppData\Local\Temp\ccbivcrf.s 			page 78


 2582              	.L55:
 2583              		.cfi_restore_state
 187:MultiEffect.cpp ****             delayTarget = deltime.Process();
 2584              		.loc 18 187 9 is_stmt 1 view .LVU740
 188:MultiEffect.cpp ****             feedback    = k2;
 2585              		.loc 18 188 13 view .LVU741
 188:MultiEffect.cpp ****             feedback    = k2;
 2586              		.loc 18 188 42 is_stmt 0 view .LVU742
 2587 0118 1F48     		ldr	r0, .L59+32
 2588 011a FFF7FEFF 		bl	_ZN5daisy9Parameter7ProcessEv
 2589              	.LVL116:
 188:MultiEffect.cpp ****             feedback    = k2;
 2590              		.loc 18 188 25 view .LVU743
 2591 011e 1F4A     		ldr	r2, .L59+36
 189:MultiEffect.cpp ****             break;
 2592              		.loc 18 189 25 view .LVU744
 2593 0120 204B     		ldr	r3, .L59+44
 188:MultiEffect.cpp ****             feedback    = k2;
 2594              		.loc 18 188 25 view .LVU745
 2595 0122 82ED000A 		vstr.32	s0, [r2]
 189:MultiEffect.cpp ****             break;
 2596              		.loc 18 189 13 is_stmt 1 view .LVU746
 189:MultiEffect.cpp ****             break;
 2597              		.loc 18 189 27 is_stmt 0 view .LVU747
 2598 0126 2A68     		ldr	r2, [r5]	@ float
 2599              		.loc 18 234 1 view .LVU748
 2600 0128 BDEC028B 		vldm	sp!, {d8}
 2601              		.cfi_remember_state
 2602              		.cfi_restore 80
 2603              		.cfi_restore 81
 2604              		.cfi_def_cfa_offset 16
 189:MultiEffect.cpp ****             break;
 2605              		.loc 18 189 25 view .LVU749
 2606 012c 1A60     		str	r2, [r3]	@ float
 190:MultiEffect.cpp ****             // a chorus with no delay/reverb
 2607              		.loc 18 190 13 is_stmt 1 view .LVU750
 2608              		.loc 18 234 1 is_stmt 0 view .LVU751
 2609 012e 38BD     		pop	{r3, r4, r5, pc}
 2610              	.LVL117:
 2611              	.L54:
 2612              		.cfi_restore_state
 192:MultiEffect.cpp ****             drywet = k1;
 2613              		.loc 18 192 9 is_stmt 1 view .LVU752
 193:MultiEffect.cpp ****             /** How much to modulate the delay by Works 0-1.    */
 2614              		.loc 18 193 13 view .LVU753
 195:MultiEffect.cpp ****             crs2.SetLfoDepth(5.0f + k1*1.2f);
 2615              		.loc 18 195 28 is_stmt 0 view .LVU754
 2616 0130 B1EE000A 		vmov.f32	s0, #4.0e+0
 193:MultiEffect.cpp ****             /** How much to modulate the delay by Works 0-1.    */
 2617              		.loc 18 193 22 view .LVU755
 2618 0134 D4ED007A 		vldr.32	s15, [r4]
 195:MultiEffect.cpp ****             crs2.SetLfoDepth(5.0f + k1*1.2f);
 2619              		.loc 18 195 28 view .LVU756
 2620 0138 9FED197A 		vldr.32	s14, .L59+40
 193:MultiEffect.cpp ****             /** How much to modulate the delay by Works 0-1.    */
 2621              		.loc 18 193 20 view .LVU757
 2622 013c 154B     		ldr	r3, .L59+28
ARM GAS  C:\Users\seanw\AppData\Local\Temp\ccbivcrf.s 			page 79


 195:MultiEffect.cpp ****             crs2.SetLfoDepth(5.0f + k1*1.2f);
 2623              		.loc 18 195 28 view .LVU758
 2624 013e A7EE870A 		vfma.f32	s0, s15, s14
 2625 0142 1948     		ldr	r0, .L59+48
 193:MultiEffect.cpp ****             /** How much to modulate the delay by Works 0-1.    */
 2626              		.loc 18 193 20 view .LVU759
 2627 0144 C3ED007A 		vstr.32	s15, [r3]
 195:MultiEffect.cpp ****             crs2.SetLfoDepth(5.0f + k1*1.2f);
 2628              		.loc 18 195 13 is_stmt 1 view .LVU760
 195:MultiEffect.cpp ****             crs2.SetLfoDepth(5.0f + k1*1.2f);
 2629              		.loc 18 195 28 is_stmt 0 view .LVU761
 2630 0148 FFF7FEFF 		bl	_ZN7daisysp6Chorus11SetLfoDepthEf
 2631              	.LVL118:
 196:MultiEffect.cpp ****             crs3.SetLfoDepth(6.0f + k1*0.9f);
 2632              		.loc 18 196 13 is_stmt 1 view .LVU762
 197:MultiEffect.cpp ****             crs4.SetLfoDepth(7.0f + k1*0.8f);
 2633              		.loc 18 197 29 is_stmt 0 view .LVU763
 2634 014c 9FED178A 		vldr.32	s16, .L59+52
 196:MultiEffect.cpp ****             crs3.SetLfoDepth(6.0f + k1*0.9f);
 2635              		.loc 18 196 29 view .LVU764
 2636 0150 B1EE040A 		vmov.f32	s0, #5.0e+0
 2637 0154 94ED007A 		vldr.32	s14, [r4]
 2638 0158 DFED167A 		vldr.32	s15, .L59+60
 2639 015c 1648     		ldr	r0, .L59+64
 198:MultiEffect.cpp ****             /**Set lfo frequency Frequency in Hz */
 2640              		.loc 18 198 29 view .LVU765
 2641 015e DFED148A 		vldr.32	s17, .L59+56
 2642 0162 9FE7     		b	.L58
 2643              	.L53:
 206:MultiEffect.cpp ****             //ap_freq Frequency in Hz
 2644              		.loc 18 206 9 is_stmt 1 view .LVU766
 222:MultiEffect.cpp ****             lfo = k2;
 2645              		.loc 18 222 13 view .LVU767
 222:MultiEffect.cpp ****             lfo = k2;
 2646              		.loc 18 222 22 is_stmt 0 view .LVU768
 2647 0164 2168     		ldr	r1, [r4]	@ float
 222:MultiEffect.cpp ****             lfo = k2;
 2648              		.loc 18 222 20 view .LVU769
 2649 0166 0B4A     		ldr	r2, .L59+28
 223:MultiEffect.cpp **** 
 2650              		.loc 18 223 17 view .LVU770
 2651 0168 184B     		ldr	r3, .L59+84
 222:MultiEffect.cpp ****             lfo = k2;
 2652              		.loc 18 222 20 view .LVU771
 2653 016a 1160     		str	r1, [r2]	@ float
 223:MultiEffect.cpp **** 
 2654              		.loc 18 223 13 is_stmt 1 view .LVU772
 223:MultiEffect.cpp **** 
 2655              		.loc 18 223 19 is_stmt 0 view .LVU773
 2656 016c 2A68     		ldr	r2, [r5]	@ float
 2657              		.loc 18 234 1 view .LVU774
 2658 016e BDEC028B 		vldm	sp!, {d8}
 2659              		.cfi_restore 80
 2660              		.cfi_restore 81
 2661              		.cfi_def_cfa_offset 16
 223:MultiEffect.cpp **** 
 2662              		.loc 18 223 17 view .LVU775
ARM GAS  C:\Users\seanw\AppData\Local\Temp\ccbivcrf.s 			page 80


 2663 0172 1A60     		str	r2, [r3]	@ float
 225:MultiEffect.cpp ****         case OCT:
 2664              		.loc 18 225 13 is_stmt 1 view .LVU776
 2665              		.loc 18 234 1 is_stmt 0 view .LVU777
 2666 0174 38BD     		pop	{r3, r4, r5, pc}
 2667              	.LVL119:
 2668              	.L60:
 2669              		.loc 18 234 1 view .LVU778
 2670 0176 00BF     		.align	3
 2671              	.L59:
 2672 0178 9A999999 		.word	-1717986918
 2673 017c 9999B93F 		.word	1069128089
 2674 0180 9A999999 		.word	-1717986918
 2675 0184 9999C93F 		.word	1070176665
 2676 0188 58000000 		.word	_ZL3pod+88
 2677 018c 78000000 		.word	_ZL3pod+120
 2678 0190 00000000 		.word	.LANCHOR9
 2679 0194 00000000 		.word	.LANCHOR10
 2680 0198 00000000 		.word	.LANCHOR0
 2681 019c 00000000 		.word	.LANCHOR1
 2682 01a0 CDCC8C3F 		.word	1066192077
 2683 01a4 00000000 		.word	.LANCHOR11
 2684 01a8 00000000 		.word	_ZL3crs
 2685 01ac 6666663F 		.word	1063675494
 2686 01b0 CDCC4C3F 		.word	1061997773
 2687 01b4 9A99993F 		.word	1067030938
 2688 01b8 00000000 		.word	_ZL4crs2
 2689 01bc 00000000 		.word	_ZL4crs3
 2690 01c0 00000000 		.word	_ZL4crs4
 2691 01c4 9A99193F 		.word	1058642330
 2692 01c8 3333333F 		.word	1060320051
 2693 01cc 00000000 		.word	.LANCHOR6
 2694              		.cfi_endproc
 2695              	.LFE4405:
 2697              		.section	.text._Z13UpdateEncoderv,"ax",%progbits
 2698              		.align	1
 2699              		.p2align 2,,3
 2700              		.global	_Z13UpdateEncoderv
 2701              		.syntax unified
 2702              		.thumb
 2703              		.thumb_func
 2704              		.fpu fpv5-d16
 2706              	_Z13UpdateEncoderv:
 2707              	.LFB4406:
 235:MultiEffect.cpp **** 
 236:MultiEffect.cpp **** void UpdateEncoder()
 237:MultiEffect.cpp **** {
 2708              		.loc 18 237 1 is_stmt 1 view -0
 2709              		.cfi_startproc
 2710              		@ args = 0, pretend = 0, frame = 0
 2711              		@ frame_needed = 0, uses_anonymous_args = 0
 2712              		@ link register save eliminated.
 238:MultiEffect.cpp ****     mode = mode + pod.encoder.Increment();
 2713              		.loc 18 238 5 view .LVU780
 2714              	.LVL120:
 2715              	.LBB936:
 2716              	.LBI936:
ARM GAS  C:\Users\seanw\AppData\Local\Temp\ccbivcrf.s 			page 81


  22:../../libDaisy/src/hid/encoder.h **** 
  23:../../libDaisy/src/hid/encoder.h ****     /** Initializes the encoder with the specified hardware pins.
  24:../../libDaisy/src/hid/encoder.h ****      * Update rate is to be deprecated in a future release
  25:../../libDaisy/src/hid/encoder.h ****      */
  26:../../libDaisy/src/hid/encoder.h ****     void Init(dsy_gpio_pin a,
  27:../../libDaisy/src/hid/encoder.h ****               dsy_gpio_pin b,
  28:../../libDaisy/src/hid/encoder.h ****               dsy_gpio_pin click,
  29:../../libDaisy/src/hid/encoder.h ****               float        update_rate = 0.f);
  30:../../libDaisy/src/hid/encoder.h ****     /** Called at update_rate to debounce and handle timing for the switch.
  31:../../libDaisy/src/hid/encoder.h ****      * In order for events not to be missed, its important that the Edge/Pressed checks be made at 
  32:../../libDaisy/src/hid/encoder.h ****      */
  33:../../libDaisy/src/hid/encoder.h ****     void Debounce();
  34:../../libDaisy/src/hid/encoder.h **** 
  35:../../libDaisy/src/hid/encoder.h ****     /** Returns +1 if the encoder was turned clockwise, -1 if it was turned counter-clockwise, or 0
  36:../../libDaisy/src/hid/encoder.h ****     inline int32_t Increment() const { return inc_; }
 2717              		.loc 11 36 20 view .LVU781
 2718              	.LBB937:
 2719              		.loc 11 36 40 view .LVU782
 2720              		.loc 11 36 40 is_stmt 0 view .LVU783
 2721              	.LBE937:
 2722              	.LBE936:
 239:MultiEffect.cpp ****     mode = (mode % 5 + 5) % 5;
 2723              		.loc 18 239 5 is_stmt 1 view .LVU784
 237:MultiEffect.cpp ****     mode = mode + pod.encoder.Increment();
 2724              		.loc 18 237 1 is_stmt 0 view .LVU785
 2725 0000 10B4     		push	{r4}
 2726              		.cfi_def_cfa_offset 4
